(lp0
((lp1
S'exit'
p2
aS'blue'
p3
aS'room'
p4
aS'and'
p5
aS'go'
p6
aS'to'
p7
aS'pink'
p8
aS'room'
p9
aS','
p10
aS'push'
p11
aS'chair'
p12
aS'into'
p13
aS'the'
p14
aS'blue'
p15
aS'room'
p16
ag10
aS'exit'
p17
aS'blue'
p18
aS'room'
p19
aS'and'
p20
aS'turn'
p21
aS'right'
p22
aS'in'
p23
aS'pink'
p24
aS'room'
p25
aS'and'
p26
aS'then'
p27
aS'go'
p28
aS'to'
p29
aS'green'
p30
aS'room'
p31
aS'agentInRegion  roomIsGreen blockInRegion  roomIsBlue'
p32
tp33
a((lp34
S'move'
p35
aS'to'
p36
aS'the'
p37
aS'red'
p38
aS'room'
p39
aS'agentInRegion  roomIsRed'
p40
tp41
a((lp42
S'go'
p43
aS'to'
p44
aS'the'
p45
aS'pink'
p46
aS'room'
p47
aS'and'
p48
aS'push'
p49
aS'the'
p50
aS'chair'
p51
aS'back'
p52
aS'into'
p53
aS'the'
p54
aS'blue'
p55
aS'room'
p56
aS'then'
p57
aS'go'
p58
aS'to'
p59
aS'the'
p60
aS'green'
p61
aS'room'
p62
aS'agentInRegion  roomIsGreen blockInRegion  roomIsBlue'
p63
tp64
a((lp65
S'go'
p66
aS'to'
p67
aS'the'
p68
aS'red'
p69
aS'room'
p70
aS'agentInRegion  roomIsRed'
p71
tp72
a((lp73
S'move'
p74
aS'the'
p75
aS'chair'
p76
aS'from'
p77
aS'the'
p78
aS'red'
p79
aS'room'
p80
aS'to'
p81
aS'the'
p82
aS'blue'
p83
aS'room'
p84
aS'and'
p85
aS'then'
p86
aS'go'
p87
aS'to'
p88
aS'the'
p89
aS'green'
p90
aS'room'
p91
aS'agentInRegion  roomIsGreen blockInRegion  roomIsBlue'
p92
tp93
a((lp94
S'go'
p95
aS'into'
p96
aS'the'
p97
aS'green'
p98
aS'room'
p99
aS'agentInRegion  roomIsGreen'
p100
tp101
a((lp102
S'go'
p103
aS'to'
p104
aS'red'
p105
aS'room'
p106
aS'agentInRegion  roomIsRed'
p107
tp108
a((lp109
S'move'
p110
aS'to'
p111
aS'the'
p112
aS'red'
p113
aS'room'
p114
aS'get'
p115
aS'the'
p116
aS'chair'
p117
aS'move'
p118
aS'to'
p119
aS'the'
p120
aS'blue'
p121
aS'room'
p122
aS'leave'
p123
aS'the'
p124
aS'chair'
p125
aS'move'
p126
aS'to'
p127
aS'the'
p128
aS'red'
p129
aS'room'
p130
aS'move'
p131
aS'to'
p132
aS'the'
p133
aS'green'
p134
aS'room'
p135
aS'agentInRegion  roomIsGreen blockInRegion  roomIsBlue'
p136
tp137
a((lp138
S'go'
p139
aS'to'
p140
aS'the'
p141
aS'red'
p142
aS'room'
p143
aS'.'
p144
aS'push'
p145
aS'the'
p146
aS'chair'
p147
aS'into'
p148
aS'the'
p149
aS'blue'
p150
aS'room'
p151
aS'blockInRegion  roomIsBlue'
p152
tp153
a((lp154
S'move'
p155
aS'from'
p156
aS'purple'
p157
aS'room'
p158
aS'to'
p159
aS'green'
p160
aS'room'
p161
aS'agentInRegion  roomIsGreen'
p162
tp163
a((lp164
S'go'
p165
aS'to'
p166
aS'the'
p167
aS'red'
p168
aS'room'
p169
ag10
aS'push'
p170
aS'the'
p171
aS'yellow'
p172
aS'chair'
p173
aS'to'
p174
aS'the'
p175
aS'green'
p176
aS'room'
p177
ag10
aS'go'
p178
aS'back'
p179
aS'to'
p180
aS'the'
p181
aS'red'
p182
aS'room'
p183
ag10
aS'go'
p184
aS'to'
p185
aS'the'
p186
aS'blue'
p187
aS'room'
p188
aS'agentInRegion  roomIsBlue blockInRegion  roomIsGreen'
p189
tp190
a((lp191
S'bring'
p192
aS'the'
p193
aS'chair'
p194
aS'in'
p195
aS'the'
p196
aS'red'
p197
aS'room'
p198
aS'back'
p199
aS'to'
p200
aS'the'
p201
aS'purple'
p202
aS'room'
p203
aS'blockInRegion  roomIsBlue'
p204
tp205
a((lp206
S'go'
p207
aS'to'
p208
aS'the'
p209
aS'red'
p210
aS'room'
p211
ag10
aS'push'
p212
aS'the'
p213
aS'object'
p214
aS'into'
p215
aS'green'
p216
aS'room'
p217
ag10
aS'go'
p218
aS'back'
p219
aS'to'
p220
aS'red'
p221
aS'room'
p222
ag10
aS'then'
p223
aS're'
p224
aS'enter'
p225
aS'blue'
p226
aS'room'
p227
aS'agentInRegion  roomIsBlue blockInRegion  roomIsGreen'
p228
tp229
a((lp230
S'move'
p231
aS'to'
p232
aS'the'
p233
aS'red'
p234
aS'room'
p235
aS'agentInRegion  roomIsRed'
p236
tp237
a((lp238
S'go'
p239
aS'into'
p240
aS'the'
p241
aS'red'
p242
aS'room'
p243
aS'push'
p244
aS'the'
p245
aS'chair'
p246
aS'into'
p247
aS'the'
p248
aS'purple'
p249
aS'room'
p250
aS'then'
p251
aS'go'
p252
aS'back'
p253
aS'through'
p254
aS'the'
p255
aS'red'
p256
aS'room'
p257
aS'into'
p258
aS'the'
p259
aS'green'
p260
aS'room'
p261
aS'agentInRegion  roomIsGreen blockInRegion  roomIsBlue'
p262
tp263
a((lp264
S'go'
p265
aS'from'
p266
aS'the'
p267
aS'blue'
p268
aS'room'
p269
aS'to'
p270
aS'the'
p271
aS'green'
p272
aS'room'
p273
aS'agentInRegion  roomIsGreen'
p274
tp275
a((lp276
S'go'
p277
aS'to'
p278
aS'the'
p279
aS'red'
p280
aS'room'
p281
ag10
aS'push'
p282
aS'the'
p283
aS'object'
p284
aS'to'
p285
aS'the'
p286
aS'blue'
p287
aS'room'
p288
aS'blockInRegion  roomIsBlue'
p289
tp290
a((lp291
S'go'
p292
aS'from'
p293
aS'the'
p294
aS'blue'
p295
aS'room'
p296
aS'to'
p297
aS'the'
p298
aS'pink'
p299
aS'room'
p300
aS'agentInRegion  roomIsRed'
p301
tp302
a((lp303
S'go'
p304
aS'to'
p305
aS'the'
p306
aS'red'
p307
aS'room'
p308
aS'and'
p309
aS'take'
p310
aS'the'
p311
aS'chair'
p312
aS'to'
p313
aS'the'
p314
aS'blue'
p315
aS'room'
p316
ag144
aS'from'
p317
aS'the'
p318
aS'red'
p319
aS'room'
p320
aS'door'
p321
ag10
aS'go'
p322
aS'to'
p323
aS'the'
p324
aS'green'
p325
aS'room'
p326
aS'agentInRegion  roomIsGreen blockInRegion  roomIsBlue'
p327
tp328
a((lp329
S'go'
p330
aS'to'
p331
aS'red'
p332
aS'room'
p333
ag10
aS'go'
p334
aS'to'
p335
aS'green'
p336
aS'room'
p337
aS'agentInRegion  roomIsGreen'
p338
tp339
a((lp340
S'go'
p341
aS'to'
p342
aS'the'
p343
aS'pink'
p344
aS'room'
p345
aS'and'
p346
aS'retrieve'
p347
aS'the'
p348
aS'chair'
p349
aS'and'
p350
aS'push'
p351
aS'the'
p352
aS'chair'
p353
aS'back'
p354
aS'into'
p355
aS'the'
p356
aS'purple'
p357
aS'room'
p358
aS'blockInRegion  roomIsBlue'
p359
tp360
a((lp361
S'go'
p362
aS'push'
p363
aS'door'
p364
aS'up'
p365
aS'to'
p366
aS'blue'
p367
aS'room'
p368
aS'blockInRegion  roomIsBlue'
p369
tp370
a((lp371
S'go'
p372
aS'to'
p373
aS'the'
p374
aS'red'
p375
aS'room'
p376
ag10
aS'take'
p377
aS'the'
p378
aS'yellow'
p379
aS'thing'
p380
aS'to'
p381
aS'the'
p382
aS'green'
p383
aS'room'
p384
ag10
aS'and'
p385
aS'then'
p386
aS'go'
p387
aS'to'
p388
aS'back'
p389
aS'into'
p390
aS'the'
p391
aS'red'
p392
aS'room'
p393
ag10
aS'then'
p394
aS'go'
p395
aS'back'
p396
aS'to'
p397
aS'the'
p398
aS'blue'
p399
aS'room'
p400
aS'agentInRegion  roomIsBlue blockInRegion  roomIsGreen'
p401
tp402
a((lp403
S'go'
p404
aS'to'
p405
aS'the'
p406
aS'red'
p407
aS'room'
p408
aS'agentInRegion  roomIsRed'
p409
tp410
a((lp411
S'go'
p412
aS'to'
p413
aS'red'
p414
aS'room'
p415
ag10
aS'go'
p416
aS'to'
p417
aS'green'
p418
aS'room'
p419
aS'agentInRegion  roomIsGreen'
p420
tp421
a((lp422
S'move'
p423
aS'to'
p424
aS'the'
p425
aS'red'
p426
aS'room'
p427
ag10
aS'bring'
p428
aS'the'
p429
aS'chair'
p430
aS'back'
p431
aS'to'
p432
aS'the'
p433
aS'blue'
p434
aS'room'
p435
ag10
aS'then'
p436
aS'move'
p437
aS'to'
p438
aS'the'
p439
aS'green'
p440
aS'room'
p441
aS'agentInRegion  roomIsGreen blockInRegion  roomIsBlue'
p442
tp443
a((lp444
S'enter'
p445
aS'red'
p446
aS'room'
p447
aS'down'
p448
aS'two'
p449
aS'left'
p450
aS'five'
p451
aS'up'
p452
aS'one'
p453
aS'right'
p454
aS'four'
p455
aS'down'
p456
aS'one'
p457
aS'right'
p458
aS'one'
p459
aS'up'
p460
aS'three'
p461
aS'go'
p462
aS'to'
p463
aS'green'
p464
aS'room'
p465
aS'agentInRegion  roomIsGreen blockInRegion  roomIsBlue'
p466
tp467
a((lp468
S'go'
p469
aS'to'
p470
aS'the'
p471
aS'pink'
p472
aS'room'
p473
aS'and'
p474
aS'move'
p475
aS'the'
p476
aS'chair'
p477
aS'into'
p478
aS'the'
p479
aS'purple'
p480
aS'room'
p481
aS'and'
p482
aS'then'
p483
aS'go'
p484
aS'into'
p485
aS'the'
p486
aS'green'
p487
aS'room'
p488
aS'agentInRegion  roomIsGreen blockInRegion  roomIsBlue'
p489
tp490
a((lp491
S'move'
p492
aS'to'
p493
aS'the'
p494
aS'orange'
p495
aS'room'
p496
aS'agentInRegion  roomIsRed'
p497
tp498
a((lp499
S'go'
p500
aS'to'
p501
aS'the'
p502
aS'other'
p503
aS'room'
p504
aS'and'
p505
aS'push'
p506
aS'the'
p507
aS'chair'
p508
aS'into'
p509
aS'the'
p510
aS'blue'
p511
aS'room'
p512
aS'agentInRegion  roomIsGreen blockInRegion  roomIsBlue'
p513
tp514
a((lp515
S'go'
p516
aS'to'
p517
aS'the'
p518
aS'pink'
p519
aS'room'
p520
ag10
aS'go'
p521
aS'to'
p522
aS'the'
p523
aS'chair'
p524
ag10
aS'go'
p525
aS'back'
p526
aS'to'
p527
aS'the'
p528
aS'blue'
p529
aS'room'
p530
aS'blockInRegion  roomIsBlue'
p531
tp532
a((lp533
S'go'
p534
aS'to'
p535
aS'the'
p536
aS'red'
p537
aS'room'
p538
aS'agentInRegion  roomIsRed'
p539
tp540
a((lp541
S'move'
p542
aS'to'
p543
aS'the'
p544
aS'red'
p545
aS'room'
p546
aS'agentInRegion  roomIsRed'
p547
tp548
a((lp549
S'move'
p550
aS'to'
p551
aS'the'
p552
aS'red'
p553
aS'room'
p554
ag10
aS'push'
p555
aS'the'
p556
aS'chair'
p557
aS'through'
p558
aS'the'
p559
aS'door'
p560
aS'of'
p561
aS'the'
p562
aS'blue'
p563
aS'room'
p564
ag10
aS'go'
p565
aS'to'
p566
aS'the'
p567
aS'green'
p568
aS'room'
p569
aS'agentInRegion  roomIsGreen blockInRegion  roomIsBlue'
p570
tp571
a((lp572
S'move'
p573
aS'to'
p574
aS'the'
p575
aS'green'
p576
aS'room'
p577
aS'agentInRegion  roomIsRed'
p578
tp579
a((lp580
S'go'
p581
aS'into'
p582
aS'the'
p583
aS'red'
p584
aS'room'
p585
aS'find'
p586
aS'the'
p587
aS'chair'
p588
aS'and'
p589
aS'bring'
p590
aS'it'
p591
aS'back'
p592
aS'into'
p593
aS'the'
p594
aS'purple'
p595
aS'room'
p596
aS'blockInRegion  roomIsBlue'
p597
tp598
a((lp599
S'move'
p600
aS'to'
p601
aS'the'
p602
aS'pink'
p603
aS'room'
p604
aS'and'
p605
aS'get'
p606
aS'the'
p607
aS'chair'
p608
aS'and'
p609
aS'go'
p610
aS'to'
p611
aS'the'
p612
aS'purple'
p613
aS'room'
p614
ag10
aS'then'
p615
aS'go'
p616
aS'to'
p617
aS'the'
p618
aS'pink'
p619
aS'room'
p620
aS'and'
p621
aS'finally'
p622
aS'the'
p623
aS'green'
p624
aS'room'
p625
aS'agentInRegion  roomIsGreen blockInRegion  roomIsBlue'
p626
tp627
a((lp628
S'go'
p629
aS'to'
p630
aS'the'
p631
aS'pink'
p632
aS'room'
p633
aS'bring'
p634
aS'chair'
p635
aS'back'
p636
aS'to'
p637
aS'the'
p638
aS'blue'
p639
aS'room'
p640
aS'then'
p641
aS'back'
p642
aS'to'
p643
aS'the'
p644
aS'pink'
p645
aS'room'
p646
aS'and'
p647
aS'through'
p648
aS'the'
p649
aS'pink'
p650
aS'room'
p651
aS'door'
p652
aS'and'
p653
aS'into'
p654
aS'the'
p655
aS'green'
p656
aS'room'
p657
aS'door'
p658
aS'agentInRegion  roomIsGreen blockInRegion  roomIsBlue'
p659
tp660
a((lp661
S'go'
p662
aS'to'
p663
aS'the'
p664
aS'green'
p665
aS'room'
p666
aS'agentInRegion  roomIsGreen'
p667
tp668
a((lp669
S'go'
p670
aS'to'
p671
aS'the'
p672
aS'red'
p673
aS'room'
p674
aS'to'
p675
aS'the'
p676
aS'red'
p677
aS'chair'
p678
aS'agentInRegion  roomIsRed'
p679
tp680
a((lp681
S'go'
p682
aS'to'
p683
aS'the'
p684
aS'red'
p685
aS'room'
p686
aS'and'
p687
aS'push'
p688
aS'the'
p689
aS'red'
p690
aS'chair'
p691
aS'to'
p692
aS'the'
p693
aS'purple'
p694
aS'room'
p695
aS'blockInRegion  roomIsBlue'
p696
tp697
a((lp698
S'go'
p699
aS'to'
p700
aS'the'
p701
aS'red'
p702
aS'room'
p703
ag10
aS'push'
p704
aS'chair'
p705
aS'to'
p706
aS'blue'
p707
aS'room'
p708
ag10
aS'go'
p709
aS'back'
p710
aS'to'
p711
aS'red'
p712
aS'room'
p713
ag10
aS'go'
p714
aS'to'
p715
aS'green'
p716
aS'room'
p717
aS'agentInRegion  roomIsGreen blockInRegion  roomIsBlue'
p718
tp719
a((lp720
S'move'
p721
aS'to'
p722
aS'the'
p723
aS'red'
p724
aS'room'
p725
ag10
aS'move'
p726
aS'the'
p727
aS'chair'
p728
aS'to'
p729
aS'the'
p730
aS'blue'
p731
aS'room'
p732
aS'blockInRegion  roomIsBlue'
p733
tp734
a((lp735
S'go'
p736
aS'to'
p737
aS'the'
p738
aS'green'
p739
aS'room'
p740
aS'agentInRegion  roomIsGreen'
p741
tp742
a((lp743
S'move'
p744
aS'to'
p745
aS'the'
p746
aS'red'
p747
aS'room'
p748
aS'and'
p749
aS'push'
p750
aS'the'
p751
aS'chair'
p752
aS'into'
p753
aS'the'
p754
aS'blue'
p755
aS'room'
p756
aS'then'
p757
aS'go'
p758
aS'to'
p759
aS'the'
p760
aS'green'
p761
aS'room'
p762
aS'agentInRegion  roomIsGreen blockInRegion  roomIsBlue'
p763
tp764
a((lp765
S'go'
p766
aS'to'
p767
aS'the'
p768
aS'pink'
p769
aS'room'
p770
aS'and'
p771
aS'push'
p772
aS'the'
p773
aS'chair'
p774
aS'to'
p775
aS'the'
p776
aS'blue'
p777
aS'room'
p778
aS'blockInRegion  roomIsBlue'
p779
tp780
a((lp781
S'take'
p782
aS'the'
p783
aS'chair'
p784
aS'from'
p785
aS'the'
p786
aS'red'
p787
aS'room'
p788
aS'to'
p789
aS'the'
p790
aS'purple'
p791
aS'room'
p792
aS'then'
p793
aS'go'
p794
aS'to'
p795
aS'the'
p796
aS'green'
p797
aS'room'
p798
aS'agentInRegion  roomIsGreen blockInRegion  roomIsBlue'
p799
tp800
a((lp801
S'move'
p802
aS'to'
p803
aS'the'
p804
aS'red'
p805
aS'room'
p806
aS'agentInRegion  roomIsRed'
p807
tp808
a((lp809
S'move'
p810
aS'to'
p811
aS'red'
p812
aS'room'
p813
ag10
aS'then'
p814
aS'move'
p815
aS'west'
p816
aS'and'
p817
aS'down'
p818
aS'and'
p819
aS'west'
p820
aS'and'
p821
aS'down'
p822
aS'to'
p823
aS'object'
p824
aS'and'
p825
aS'move'
p826
aS'to'
p827
aS'green'
p828
aS'room'
p829
ag10
aS'then'
p830
aS'move'
p831
aS'back'
p832
aS'to'
p833
aS'red'
p834
aS'room'
p835
aS'and'
p836
aS'then'
p837
aS'to'
p838
aS'blue'
p839
aS'room'
p840
aS'agentInRegion  roomIsBlue blockInRegion  roomIsGreen'
p841
tp842
a((lp843
S'go'
p844
aS'to'
p845
aS'the'
p846
aS'red'
p847
aS'room'
p848
aS'and'
p849
aS'then'
p850
aS'go'
p851
aS'into'
p852
aS'the'
p853
aS'green'
p854
aS'room'
p855
aS'agentInRegion  roomIsGreen'
p856
tp857
a((lp858
S'go'
p859
aS'to'
p860
aS'the'
p861
aS'green'
p862
aS'room'
p863
aS'agentInRegion  roomIsGreen'
p864
tp865
a((lp866
S'move'
p867
aS'to'
p868
aS'the'
p869
aS'red'
p870
aS'room'
p871
ag10
aS'move'
p872
aS'to'
p873
aS'the'
p874
aS'green'
p875
aS'room'
p876
aS'agentInRegion  roomIsGreen'
p877
tp878
a((lp879
S'go'
p880
aS'to'
p881
aS'the'
p882
aS'blue'
p883
aS'room'
p884
aS'blockInRegion  roomIsBlue'
p885
tp886
a((lp887
S'go'
p888
aS'to'
p889
aS'red'
p890
aS'room'
p891
aS'agentInRegion  roomIsRed'
p892
tp893
a((lp894
S'go'
p895
aS'to'
p896
aS'the'
p897
aS'red'
p898
aS'room'
p899
aS'and'
p900
aS'then'
p901
aS'go'
p902
aS'to'
p903
aS'the'
p904
aS'blue'
p905
aS'room'
p906
aS'agentInRegion  roomIsGreen'
p907
tp908
a((lp909
S'exit'
p910
aS'blue'
p911
aS'room'
p912
aS'and'
p913
aS'turn'
p914
aS'right'
p915
aS'three'
p916
aS'times'
p917
aS'in'
p918
aS'pink'
p919
aS'room'
p920
aS'push'
p921
aS'chair'
p922
aS'then'
p923
aS'turn'
p924
aS'right'
p925
aS'and'
p926
aS'left'
p927
aS'and'
p928
aS'push'
p929
aS'chair'
p930
aS'into'
p931
aS'blue'
p932
aS'room'
p933
aS'blockInRegion  roomIsBlue'
p934
tp935
a((lp936
S'go'
p937
aS'to'
p938
aS'pink'
p939
aS'room'
p940
aS'take'
p941
aS'chair'
p942
aS'to'
p943
aS'blue'
p944
aS'room'
p945
aS'go'
p946
aS'to'
p947
aS'green'
p948
aS'room'
p949
aS'agentInRegion  roomIsGreen blockInRegion  roomIsBlue'
p950
tp951
a((lp952
S'go'
p953
aS'to'
p954
aS'the'
p955
aS'pink'
p956
aS'room'
p957
aS'and'
p958
aS'move'
p959
aS'the'
p960
aS'chair'
p961
aS'to'
p962
aS'the'
p963
aS'blue'
p964
aS'room'
p965
aS'and'
p966
aS'then'
p967
aS'go'
p968
aS'back'
p969
aS'to'
p970
aS'the'
p971
aS'pink'
p972
aS'room'
p973
aS'and'
p974
aS'then'
p975
aS'go'
p976
aS'into'
p977
aS'the'
p978
aS'green'
p979
aS'room'
p980
aS'agentInRegion  roomIsGreen blockInRegion  roomIsBlue'
p981
tp982
a((lp983
S'push'
p984
aS'the'
p985
aS'bag'
p986
aS'into'
p987
aS'the'
p988
aS'green'
p989
aS'room'
p990
ag10
aS'then'
p991
aS'return'
p992
aS'to'
p993
aS'the'
p994
aS'blue'
p995
aS'room'
p996
aS'agentInRegion  roomIsBlue blockInRegion  roomIsGreen'
p997
tp998
a((lp999
S'go'
p1000
aS'to'
p1001
aS'red'
p1002
aS'room'
p1003
ag10
aS'go'
p1004
aS'to'
p1005
aS'far'
p1006
aS'wall'
p1007
ag10
aS'go'
p1008
aS'to'
p1009
aS'chair'
p1010
ag10
aS'push'
p1011
aS'chair'
p1012
aS'to'
p1013
aS'blue'
p1014
aS'room'
p1015
aS'blockInRegion  roomIsBlue'
p1016
tp1017
a((lp1018
S'move'
p1019
aS'to'
p1020
aS'the'
p1021
aS'red'
p1022
aS'room'
p1023
aS'grab'
p1024
aS'the'
p1025
aS'chair'
p1026
aS'go'
p1027
aS'to'
p1028
aS'the'
p1029
aS'blue'
p1030
aS'room'
p1031
aS'go'
p1032
aS'to'
p1033
aS'the'
p1034
aS'red'
p1035
aS'room'
p1036
aS'go'
p1037
aS'to'
p1038
aS'the'
p1039
aS'blue'
p1040
aS'room'
p1041
aS'agentInRegion  roomIsGreen blockInRegion  roomIsBlue'
p1042
tp1043
a((lp1044
S'move'
p1045
aS'from'
p1046
aS'the'
p1047
aS'blue'
p1048
aS'room'
p1049
aS'into'
p1050
aS'the'
p1051
aS'red'
p1052
aS'room'
p1053
aS'push'
p1054
aS'the'
p1055
aS'chair'
p1056
aS'back'
p1057
aS'to'
p1058
aS'the'
p1059
aS'blue'
p1060
aS'room'
p1061
aS'then'
p1062
aS'go'
p1063
aS'through'
p1064
aS'the'
p1065
aS'red'
p1066
aS'room'
p1067
aS'into'
p1068
aS'the'
p1069
aS'green'
p1070
aS'room'
p1071
aS'agentInRegion  roomIsGreen blockInRegion  roomIsBlue'
p1072
tp1073
a((lp1074
S'move'
p1075
aS'out'
p1076
aS'of'
p1077
aS'this'
p1078
aS'room'
p1079
aS'push'
p1080
aS'chair'
p1081
aS'and'
p1082
aS'move'
p1083
aS'into'
p1084
aS'the'
p1085
aS'room'
p1086
aS'blockInRegion  roomIsBlue'
p1087
tp1088
a((lp1089
S'go'
p1090
aS'to'
p1091
aS'the'
p1092
aS'red'
p1093
aS'room'
p1094
aS'agentInRegion  roomIsRed'
p1095
tp1096
a((lp1097
S'move'
p1098
aS'to'
p1099
aS'the'
p1100
aS'blue'
p1101
aS'room'
p1102
aS'agentInRegion  roomIsGreen blockInRegion  roomIsBlue'
p1103
tp1104
a((lp1105
S'move'
p1106
aS'the'
p1107
aS'chair'
p1108
aS'to'
p1109
aS'the'
p1110
aS'blue'
p1111
aS'room'
p1112
aS'blockInRegion  roomIsBlue'
p1113
tp1114
a((lp1115
S'go'
p1116
aS'to'
p1117
aS'the'
p1118
aS'pink'
p1119
aS'room'
p1120
aS'get'
p1121
aS'the'
p1122
aS'red'
p1123
aS'dog'
p1124
aS'and'
p1125
aS'bring'
p1126
aS'it'
p1127
aS'back'
p1128
aS'to'
p1129
aS'the'
p1130
aS'blue'
p1131
aS'room'
p1132
aS'blockInRegion  roomIsBlue'
p1133
tp1134
a((lp1135
S'leave'
p1136
aS'the'
p1137
aS'blue'
p1138
aS'room'
p1139
aS'and'
p1140
aS'go'
p1141
aS'to'
p1142
aS'the'
p1143
aS'red'
p1144
aS'room'
p1145
aS'and'
p1146
aS'then'
p1147
aS'go'
p1148
aS'to'
p1149
aS'the'
p1150
aS'green'
p1151
aS'room'
p1152
aS'agentInRegion  roomIsGreen'
p1153
tp1154
a((lp1155
S'bring'
p1156
aS'red'
p1157
aS'chair'
p1158
aS'in'
p1159
aS'the'
p1160
aS'pink'
p1161
aS'room'
p1162
aS'to'
p1163
aS'the'
p1164
aS'blue'
p1165
aS'room'
p1166
aS'then'
p1167
aS'go'
p1168
aS'to'
p1169
aS'the'
p1170
aS'green'
p1171
aS'room'
p1172
aS'agentInRegion  roomIsGreen blockInRegion  roomIsBlue'
p1173
tp1174
a((lp1175
S'go'
p1176
aS'to'
p1177
aS'the'
p1178
aS'red'
p1179
aS'room'
p1180
aS'get'
p1181
aS'the'
p1182
aS'chair'
p1183
aS'bring'
p1184
aS'it'
p1185
aS'to'
p1186
aS'the'
p1187
aS'blue'
p1188
aS'room'
p1189
aS'then'
p1190
aS'go'
p1191
aS'to'
p1192
aS'the'
p1193
aS'green'
p1194
aS'room'
p1195
aS'agentInRegion  roomIsGreen blockInRegion  roomIsBlue'
p1196
tp1197
a((lp1198
S'move'
p1199
aS'to'
p1200
aS'the'
p1201
aS'red'
p1202
aS'room'
p1203
aS'and'
p1204
aS'push'
p1205
aS'the'
p1206
aS'chair'
p1207
aS'into'
p1208
aS'the'
p1209
aS'blue'
p1210
aS'room'
p1211
aS'blockInRegion  roomIsBlue'
p1212
tp1213
a((lp1214
S'go'
p1215
aS'to'
p1216
aS'red'
p1217
aS'room'
p1218
ag10
aS'push'
p1219
aS'yellow'
p1220
aS'thing'
p1221
aS'into'
p1222
aS'green'
p1223
aS'room'
p1224
ag10
aS'return'
p1225
aS'to'
p1226
aS'red'
p1227
aS'room'
p1228
ag10
aS'return'
p1229
aS'to'
p1230
aS'blue'
p1231
aS'room'
p1232
aS'agentInRegion  roomIsBlue blockInRegion  roomIsGreen'
p1233
tp1234
a((lp1235
S'move'
p1236
aS'to'
p1237
aS'green'
p1238
aS'room'
p1239
aS'agentInRegion  roomIsGreen'
p1240
tp1241
a((lp1242
S'go'
p1243
aS'to'
p1244
aS'the'
p1245
aS'red'
p1246
aS'room'
p1247
ag10
aS'push'
p1248
aS'the'
p1249
aS'red'
p1250
aS'chair'
p1251
aS'to'
p1252
aS'the'
p1253
aS'green'
p1254
aS'room'
p1255
ag10
aS'go'
p1256
aS'to'
p1257
aS'the'
p1258
aS'red'
p1259
aS'room'
p1260
ag10
aS'go'
p1261
aS'to'
p1262
aS'the'
p1263
aS'blue'
p1264
aS'room'
p1265
aS'agentInRegion  roomIsGreen blockInRegion  roomIsBlue'
p1266
tp1267
a((lp1268
S'go'
p1269
aS'to'
p1270
aS'the'
p1271
aS'green'
p1272
aS'room'
p1273
aS'agentInRegion  roomIsGreen'
p1274
tp1275
a((lp1276
S'go'
p1277
aS'to'
p1278
aS'the'
p1279
aS'green'
p1280
aS'room'
p1281
aS'agentInRegion  roomIsGreen'
p1282
tp1283
a((lp1284
S'go'
p1285
aS'to'
p1286
aS'the'
p1287
aS'red'
p1288
aS'room'
p1289
ag10
aS'move'
p1290
aS'the'
p1291
aS'yellow'
p1292
aS'thing'
p1293
aS'into'
p1294
aS'the'
p1295
aS'green'
p1296
aS'room'
p1297
ag10
aS'go'
p1298
aS'to'
p1299
aS'the'
p1300
aS'red'
p1301
aS'room'
p1302
ag10
aS'go'
p1303
aS'to'
p1304
aS'the'
p1305
aS'blue'
p1306
aS'room'
p1307
aS'agentInRegion  roomIsBlue blockInRegion  roomIsGreen'
p1308
tp1309
a((lp1310
S'move'
p1311
aS'to'
p1312
aS'the'
p1313
aS'red'
p1314
aS'room'
p1315
aS'move'
p1316
aS'the'
p1317
aS'chair'
p1318
aS'to'
p1319
aS'the'
p1320
aS'blue'
p1321
aS'room'
p1322
aS'move'
p1323
aS'to'
p1324
aS'the'
p1325
aS'green'
p1326
aS'room'
p1327
aS'agentInRegion  roomIsGreen blockInRegion  roomIsBlue'
p1328
tp1329
a((lp1330
S'go'
p1331
aS'to'
p1332
aS'pink'
p1333
aS'room'
p1334
aS'push'
p1335
aS'chair'
p1336
aS'to'
p1337
aS'blue'
p1338
aS'room'
p1339
aS'agentInRegion  roomIsGreen blockInRegion  roomIsBlue'
p1340
tp1341
a((lp1342
S'go'
p1343
aS'to'
p1344
aS'the'
p1345
aS'red'
p1346
aS'room'
p1347
aS'agentInRegion  roomIsRed'
p1348
tp1349
a((lp1350
S'go'
p1351
aS'to'
p1352
aS'the'
p1353
aS'red'
p1354
aS'room'
p1355
aS'and'
p1356
aS'grab'
p1357
aS'the'
p1358
aS'chair'
p1359
aS'come'
p1360
aS'back'
p1361
aS'to'
p1362
aS'the'
p1363
aS'green'
p1364
aS'room'
p1365
aS'blockInRegion  roomIsBlue'
p1366
tp1367
a((lp1368
S'go'
p1369
aS'from'
p1370
aS'the'
p1371
aS'blue'
p1372
aS'room'
p1373
aS'to'
p1374
aS'the'
p1375
aS'red'
p1376
aS'room'
p1377
aS'then'
p1378
aS'push'
p1379
aS'the'
p1380
aS'chair'
p1381
aS'back'
p1382
aS'into'
p1383
aS'the'
p1384
aS'blue'
p1385
aS'room'
p1386
aS'blockInRegion  roomIsBlue'
p1387
tp1388
a((lp1389
S'bring'
p1390
aS'the'
p1391
aS'chair'
p1392
aS'to'
p1393
aS'the'
p1394
aS'blue'
p1395
aS'room'
p1396
aS'blockInRegion  roomIsBlue'
p1397
tp1398
a((lp1399
S'go'
p1400
aS'the'
p1401
aS'the'
p1402
aS'red'
p1403
aS'room'
p1404
aS'go'
p1405
aS'to'
p1406
aS'the'
p1407
aS'left'
p1408
aS'side'
p1409
aS'of'
p1410
aS'the'
p1411
aS'chair'
p1412
aS'go'
p1413
aS'to'
p1414
aS'the'
p1415
aS'right'
p1416
aS'side'
p1417
aS'of'
p1418
aS'the'
p1419
aS'room'
p1420
aS'go'
p1421
aS'to'
p1422
aS'the'
p1423
aS'bottom'
p1424
aS'of'
p1425
aS'the'
p1426
aS'room'
p1427
aS'next'
p1428
aS'to'
p1429
aS'the'
p1430
aS'chair'
p1431
aS'go'
p1432
aS'to'
p1433
aS'the'
p1434
aS'blue'
p1435
aS'room'
p1436
aS'go'
p1437
aS'to'
p1438
aS'the'
p1439
aS'green'
p1440
aS'room'
p1441
aS'agentInRegion  roomIsGreen blockInRegion  roomIsBlue'
p1442
tp1443
a((lp1444
S'gget'
p1445
aS'the'
p1446
aS'chair'
p1447
aS'and'
p1448
aS'return'
p1449
aS'to'
p1450
aS'this'
p1451
aS'room'
p1452
aS'blockInRegion  roomIsBlue'
p1453
tp1454
a((lp1455
S'go'
p1456
aS'to'
p1457
aS'the'
p1458
aS'red'
p1459
aS'room'
p1460
aS'and'
p1461
aS'move'
p1462
aS'the'
p1463
aS'chair'
p1464
aS'to'
p1465
aS'the'
p1466
aS'blue'
p1467
aS'room'
p1468
aS'blockInRegion  roomIsBlue'
p1469
tp1470
a((lp1471
S'move'
p1472
aS'to'
p1473
aS'the'
p1474
aS'red'
p1475
aS'room'
p1476
aS'agentInRegion  roomIsRed'
p1477
tp1478
a((lp1479
S'go'
p1480
aS'to'
p1481
aS'the'
p1482
aS'red'
p1483
aS'room'
p1484
aS'move'
p1485
aS'the'
p1486
aS'object'
p1487
aS'to'
p1488
aS'the'
p1489
aS'green'
p1490
aS'room'
p1491
aS'return'
p1492
aS'to'
p1493
aS'the'
p1494
aS'blue'
p1495
aS'room'
p1496
aS'agentInRegion  roomIsBlue blockInRegion  roomIsGreen'
p1497
tp1498
a((lp1499
S'go'
p1500
aS'into'
p1501
aS'the'
p1502
aS'red'
p1503
aS'room'
p1504
aS'and'
p1505
aS'bring'
p1506
aS'the'
p1507
aS'chair'
p1508
aS'back'
p1509
aS'to'
p1510
aS'the'
p1511
aS'purple'
p1512
aS'room'
p1513
aS'blockInRegion  roomIsBlue'
p1514
tp1515
a((lp1516
S'move'
p1517
aS'to'
p1518
aS'the'
p1519
aS'red'
p1520
aS'room'
p1521
aS'agentInRegion  roomIsRed'
p1522
tp1523
a((lp1524
S'go'
p1525
aS'to'
p1526
aS'the'
p1527
aS'red'
p1528
aS'room'
p1529
aS'agentInRegion  roomIsRed'
p1530
tp1531
a((lp1532
S'go'
p1533
aS'to'
p1534
aS'the'
p1535
aS'red'
p1536
aS'room'
p1537
ag10
aS'push'
p1538
aS'the'
p1539
aS'chair'
p1540
aS'back'
p1541
aS'up'
p1542
aS'to'
p1543
aS'the'
p1544
aS'green'
p1545
aS'room'
p1546
aS'blockInRegion  roomIsBlue'
p1547
tp1548
a((lp1549
S'move'
p1550
aS'the'
p1551
aS'chair'
p1552
aS'from'
p1553
aS'the'
p1554
aS'red'
p1555
aS'room'
p1556
aS'to'
p1557
aS'the'
p1558
aS'blue'
p1559
aS'room'
p1560
aS'and'
p1561
aS'then'
p1562
aS'go'
p1563
aS'into'
p1564
aS'the'
p1565
aS'green'
p1566
aS'room'
p1567
aS'agentInRegion  roomIsGreen blockInRegion  roomIsBlue'
p1568
tp1569
a((lp1570
S'go'
p1571
aS'to'
p1572
aS'the'
p1573
aS'red'
p1574
aS'room'
p1575
aS'and'
p1576
aS'push'
p1577
aS'the'
p1578
aS'chair'
p1579
aS'in'
p1580
aS'front'
p1581
aS'of'
p1582
aS'the'
p1583
aS'blue'
p1584
aS'room'
p1585
aS'blockInRegion  roomIsBlue'
p1586
tp1587
a((lp1588
S'go'
p1589
aS'into'
p1590
aS'the'
p1591
aS'red'
p1592
aS'room'
p1593
aS'and'
p1594
aS'get'
p1595
aS'the'
p1596
aS'chair'
p1597
aS'then'
p1598
aS'push'
p1599
aS'it'
p1600
aS'into'
p1601
aS'the'
p1602
aS'purple'
p1603
aS'room'
p1604
aS'then'
p1605
aS'come'
p1606
aS'out'
p1607
aS'of'
p1608
aS'the'
p1609
aS'purple'
p1610
aS'room'
p1611
aS'into'
p1612
aS'the'
p1613
aS'red'
p1614
aS'room'
p1615
aS'and'
p1616
aS'go'
p1617
aS'into'
p1618
aS'the'
p1619
aS'green'
p1620
aS'room'
p1621
aS'agentInRegion  roomIsGreen blockInRegion  roomIsBlue'
p1622
tp1623
a((lp1624
S'leave'
p1625
aS'the'
p1626
aS'blue'
p1627
aS'room'
p1628
aS'and'
p1629
aS'go'
p1630
aS'to'
p1631
aS'the'
p1632
aS'pink'
p1633
aS'room'
p1634
aS'agentInRegion  roomIsRed'
p1635
tp1636
a((lp1637
S'go'
p1638
aS'to'
p1639
aS'the'
p1640
aS'red'
p1641
aS'room'
p1642
aS'then'
p1643
aS'to'
p1644
aS'the'
p1645
aS'green'
p1646
aS'room'
p1647
aS'agentInRegion  roomIsGreen'
p1648
tp1649
a((lp1650
S'leave'
p1651
aS'the'
p1652
aS'blue'
p1653
aS'room'
p1654
aS'and'
p1655
aS'go'
p1656
aS'to'
p1657
aS'the'
p1658
aS'red'
p1659
aS'room'
p1660
aS'and'
p1661
aS'go'
p1662
aS'behind'
p1663
aS'the'
p1664
aS'object'
p1665
aS'and'
p1666
aS'push'
p1667
aS'it'
p1668
aS'to'
p1669
aS'the'
p1670
aS'green'
p1671
aS'room'
p1672
aS'and'
p1673
aS'leave'
p1674
aS'it'
p1675
aS'there'
p1676
aS'and'
p1677
aS'go'
p1678
aS'to'
p1679
aS'the'
p1680
aS'red'
p1681
aS'room'
p1682
aS'and'
p1683
aS'then'
p1684
aS'go'
p1685
aS'to'
p1686
aS'the'
p1687
aS'blue'
p1688
aS'room'
p1689
aS'agentInRegion  roomIsBlue blockInRegion  roomIsGreen'
p1690
tp1691
a((lp1692
S'move'
p1693
aS'to'
p1694
aS'the'
p1695
aS'green'
p1696
aS'room'
p1697
aS'agentInRegion  roomIsGreen'
p1698
tp1699
a((lp1700
S'move'
p1701
aS'to'
p1702
aS'the'
p1703
aS'pink'
p1704
aS'room'
p1705
aS'move'
p1706
aS'to'
p1707
aS'the'
p1708
aS'left'
p1709
aS'of'
p1710
aS'the'
p1711
aS'chair'
p1712
aS'right'
p1713
aS'right'
p1714
aS'right'
p1715
aS'down'
p1716
aS'right'
p1717
aS'move'
p1718
aS'to'
p1719
aS'the'
p1720
aS'blue'
p1721
aS'room'
p1722
aS'move'
p1723
aS'to'
p1724
aS'the'
p1725
aS'pink'
p1726
aS'room'
p1727
aS'move'
p1728
aS'to'
p1729
aS'the'
p1730
aS'green'
p1731
aS'room'
p1732
aS'agentInRegion  roomIsGreen blockInRegion  roomIsBlue'
p1733
tp1734
a((lp1735
S'go'
p1736
aS'the'
p1737
aS'green'
p1738
aS'room'
p1739
aS'grab'
p1740
aS'the'
p1741
aS'chair'
p1742
aS'bring'
p1743
aS'that'
p1744
aS'chair'
p1745
aS'back'
p1746
aS'to'
p1747
aS'the'
p1748
aS'red'
p1749
aS'room'
p1750
aS'agentInRegion  roomIsGreen blockInRegion  roomIsBlue'
p1751
tp1752
a((lp1753
S'move'
p1754
aS'to'
p1755
aS'pink'
p1756
aS'room'
p1757
aS'agentInRegion  roomIsRed'
p1758
tp1759
a((lp1760
S'go'
p1761
aS'to'
p1762
aS'red'
p1763
aS'room'
p1764
aS'push'
p1765
aS'chair'
p1766
aS'to'
p1767
aS'purple'
p1768
aS'go'
p1769
aS'to'
p1770
aS'green'
p1771
aS'room'
p1772
aS'agentInRegion  roomIsGreen blockInRegion  roomIsBlue'
p1773
tp1774
a((lp1775
S'take'
p1776
aS'three'
p1777
aS'steps'
p1778
aS'to'
p1779
aS'go'
p1780
aS'to'
p1781
aS'the'
p1782
aS'red'
p1783
aS'room'
p1784
aS'agentInRegion  roomIsRed'
p1785
tp1786
a((lp1787
S'move'
p1788
aS'to'
p1789
aS'the'
p1790
aS'pink'
p1791
aS'room'
p1792
aS'agentInRegion  roomIsRed'
p1793
tp1794
a((lp1795
S'go'
p1796
aS'into'
p1797
aS'the'
p1798
aS'pink'
p1799
aS'room'
p1800
aS'get'
p1801
aS'the'
p1802
aS'chair'
p1803
aS'and'
p1804
aS'bring'
p1805
aS'it'
p1806
aS'back'
p1807
aS'to'
p1808
aS'the'
p1809
aS'blue'
p1810
aS'room'
p1811
aS'blockInRegion  roomIsBlue'
p1812
tp1813
a((lp1814
S'move'
p1815
aS'to'
p1816
aS'the'
p1817
aS'red'
p1818
aS'room'
p1819
aS'agentInRegion  roomIsRed'
p1820
tp1821
a((lp1822
S'move'
p1823
aS'to'
p1824
aS'the'
p1825
aS'red'
p1826
aS'room'
p1827
aS'and'
p1828
aS'then'
p1829
aS'move'
p1830
aS'to'
p1831
aS'the'
p1832
aS'green'
p1833
aS'room'
p1834
aS'agentInRegion  roomIsGreen'
p1835
tp1836
a((lp1837
S'move'
p1838
aS'to'
p1839
aS'the'
p1840
aS'green'
p1841
aS'room'
p1842
aS'from'
p1843
aS'the'
p1844
aS'where'
p1845
aS'you'
p1846
aS'are'
p1847
aS'agentInRegion  roomIsRed'
p1848
tp1849
a((lp1850
S'move'
p1851
aS'to'
p1852
aS'the'
p1853
aS'green'
p1854
aS'room'
p1855
aS'agentInRegion  roomIsRed'
p1856
tp1857
a((lp1858
S'go'
p1859
aS'to'
p1860
aS'the'
p1861
aS'red'
p1862
aS'room'
p1863
aS'agentInRegion  roomIsRed'
p1864
tp1865
a((lp1866
S'go'
p1867
aS'to'
p1868
aS'red'
p1869
aS'room'
p1870
ag10
aS'get'
p1871
aS'chair'
p1872
ag10
aS'go'
p1873
aS'to'
p1874
aS'blue'
p1875
aS'room'
p1876
aS'blockInRegion  roomIsBlue'
p1877
tp1878
a((lp1879
S'move'
p1880
aS'to'
p1881
aS'red'
p1882
aS'room'
p1883
aS'and'
p1884
aS'push'
p1885
aS'the'
p1886
aS'chair'
p1887
aS'back'
p1888
aS'to'
p1889
aS'blue'
p1890
aS'room'
p1891
ag10
aS'then'
p1892
aS'move'
p1893
aS'to'
p1894
aS'red'
p1895
aS'room'
p1896
ag10
aS'then'
p1897
aS'move'
p1898
aS'to'
p1899
aS'green'
p1900
aS'room'
p1901
aS'agentInRegion  roomIsGreen blockInRegion  roomIsBlue'
p1902
tp1903
a((lp1904
S'move'
p1905
aS'to'
p1906
aS'the'
p1907
aS'red'
p1908
aS'room'
p1909
aS'and'
p1910
aS'pick'
p1911
aS'up'
p1912
aS'the'
p1913
aS'chair'
p1914
aS'then'
p1915
aS'move'
p1916
aS'the'
p1917
aS'chair'
p1918
aS'into'
p1919
aS'the'
p1920
aS'blue'
p1921
aS'room'
p1922
ag10
aS'leave'
p1923
aS'the'
p1924
aS'chair'
p1925
aS'and'
p1926
aS'move'
p1927
aS'to'
p1928
aS'the'
p1929
aS'red'
p1930
aS'room'
p1931
aS'and'
p1932
aS'then'
p1933
aS'move'
p1934
aS'to'
p1935
aS'the'
p1936
aS'green'
p1937
aS'room'
p1938
aS'agentInRegion  roomIsGreen blockInRegion  roomIsBlue'
p1939
tp1940
a((lp1941
S'go'
p1942
aS'in'
p1943
aS'the'
p1944
aS'red'
p1945
aS'room'
p1946
ag10
aS'bring'
p1947
aS'chair'
p1948
aS'back'
p1949
aS'to'
p1950
aS'blue'
p1951
aS'room'
p1952
ag10
aS'then'
p1953
aS'go'
p1954
aS'back'
p1955
aS'to'
p1956
aS'red'
p1957
aS'room'
p1958
ag10
aS'then'
p1959
aS'into'
p1960
aS'green'
p1961
aS'room'
p1962
aS'agentInRegion  roomIsGreen blockInRegion  roomIsBlue'
p1963
tp1964
a((lp1965
S'move'
p1966
aS'to'
p1967
aS'the'
p1968
aS'red'
p1969
aS'room'
p1970
ag10
aS'push'
p1971
aS'the'
p1972
aS'chair'
p1973
aS'into'
p1974
aS'the'
p1975
aS'blue'
p1976
aS'room'
p1977
ag10
aS'go'
p1978
aS'into'
p1979
aS'the'
p1980
aS'red'
p1981
aS'room'
p1982
aS'and'
p1983
aS'enter'
p1984
aS'the'
p1985
aS'green'
p1986
aS'room'
p1987
aS'agentInRegion  roomIsGreen blockInRegion  roomIsBlue'
p1988
tp1989
a((lp1990
S'move'
p1991
aS'the'
p1992
aS'chair'
p1993
aS'into'
p1994
aS'the'
p1995
aS'room'
p1996
aS'you'
p1997
aS'were'
p1998
aS'first'
p1999
aS'in'
p2000
aS'blockInRegion  roomIsBlue'
p2001
tp2002
a((lp2003
S'move'
p2004
aS'from'
p2005
aS'violet'
p2006
aS'room'
p2007
aS'to'
p2008
aS'red'
p2009
aS'room'
p2010
aS'agentInRegion  roomIsRed'
p2011
tp2012
a((lp2013
S'push'
p2014
aS'the'
p2015
aS'yellow'
p2016
aS'object'
p2017
aS'into'
p2018
aS'the'
p2019
aS'green'
p2020
aS'room'
p2021
aS'then'
p2022
aS'return'
p2023
aS'to'
p2024
aS'the'
p2025
aS'blue'
p2026
aS'room'
p2027
aS'agentInRegion  roomIsBlue blockInRegion  roomIsGreen'
p2028
tp2029
a((lp2030
S'go'
p2031
aS'from'
p2032
aS'the'
p2033
aS'blue'
p2034
aS'room'
p2035
aS'to'
p2036
aS'the'
p2037
aS'red'
p2038
aS'room'
p2039
ag10
aS'then'
p2040
aS'push'
p2041
aS'the'
p2042
aS'yellow'
p2043
aS'object'
p2044
aS'into'
p2045
aS'the'
p2046
aS'green'
p2047
aS'room'
p2048
ag10
aS'then'
p2049
aS'go'
p2050
aS'from'
p2051
aS'the'
p2052
aS'red'
p2053
aS'room'
p2054
aS'back'
p2055
aS'to'
p2056
aS'the'
p2057
aS'blue'
p2058
aS'room'
p2059
aS'agentInRegion  roomIsBlue blockInRegion  roomIsGreen'
p2060
tp2061
a((lp2062
S'go'
p2063
aS'to'
p2064
aS'the'
p2065
aS'green'
p2066
aS'room'
p2067
aS'agentInRegion  roomIsGreen'
p2068
tp2069
a((lp2070
S'go'
p2071
aS'to'
p2072
aS'pink'
p2073
aS'room'
p2074
aS'bring'
p2075
aS'chair'
p2076
aS'to'
p2077
aS'blue'
p2078
aS'room'
p2079
aS'go'
p2080
aS'to'
p2081
aS'pink'
p2082
aS'room'
p2083
aS'stop'
p2084
aS'in'
p2085
aS'green'
p2086
aS'room'
p2087
aS'agentInRegion  roomIsGreen blockInRegion  roomIsBlue'
p2088
tp2089
a((lp2090
S'move'
p2091
aS'until'
p2092
aS'you'
p2093
aS'are'
p2094
aS'one'
p2095
aS'square'
p2096
aS'into'
p2097
aS'the'
p2098
aS'green'
p2099
aS'room'
p2100
aS'agentInRegion  roomIsGreen'
p2101
tp2102
a((lp2103
S'i'
p2104
aS'want'
p2105
aS'you'
p2106
aS'to'
p2107
aS'go'
p2108
aS'into'
p2109
aS'the'
p2110
aS'red'
p2111
aS'room'
p2112
aS'agentInRegion  roomIsRed'
p2113
tp2114
a((lp2115
S'move'
p2116
aS'to'
p2117
aS'the'
p2118
aS'red'
p2119
aS'room'
p2120
ag10
aS'then'
p2121
aS'move'
p2122
aS'to'
p2123
aS'the'
p2124
aS'green'
p2125
aS'room'
p2126
aS'agentInRegion  roomIsGreen'
p2127
tp2128
a((lp2129
S'go'
p2130
aS'to'
p2131
aS'red'
p2132
aS'room'
p2133
ag10
aS'go'
p2134
aS'to'
p2135
aS'chair'
p2136
ag10
aS'push'
p2137
aS'chair'
p2138
aS'to'
p2139
aS'green'
p2140
aS'room'
p2141
ag10
aS'go'
p2142
aS'to'
p2143
aS'red'
p2144
aS'room'
p2145
ag10
aS'go'
p2146
aS'to'
p2147
aS'blue'
p2148
aS'room'
p2149
aS'agentInRegion  roomIsBlue blockInRegion  roomIsGreen'
p2150
tp2151
a((lp2152
S'get'
p2153
aS'red'
p2154
aS'chair'
p2155
aS'in'
p2156
aS'pink'
p2157
aS'room'
p2158
aS'and'
p2159
aS'bring'
p2160
aS'it'
p2161
aS'to'
p2162
aS'the'
p2163
aS'blue'
p2164
aS'room'
p2165
aS'blockInRegion  roomIsBlue'
p2166
tp2167
a((lp2168
S'push'
p2169
aS'the'
p2170
aS'chair'
p2171
aS'into'
p2172
aS'red'
p2173
aS'room'
p2174
aS'and'
p2175
aS'go'
p2176
aS'into'
p2177
aS'the'
p2178
aS'green'
p2179
aS'room'
p2180
aS'agentInRegion  roomIsGreen blockInRegion  roomIsBlue'
p2181
tp2182
a((lp2183
S'move'
p2184
aS'to'
p2185
aS'the'
p2186
aS'red'
p2187
aS'room'
p2188
aS'and'
p2189
aS'take'
p2190
aS'the'
p2191
aS'chair'
p2192
aS'and'
p2193
aS'go'
p2194
aS'to'
p2195
aS'violet'
p2196
aS'room'
p2197
aS'blockInRegion  roomIsBlue'
p2198
tp2199
a((lp2200
S'move'
p2201
aS'upward'
p2202
aS'chair'
p2203
aS'to'
p2204
aS'path'
p2205
aS'blockInRegion  roomIsBlue'
p2206
tp2207
a((lp2208
S'move'
p2209
aS'to'
p2210
aS'the'
p2211
aS'pink'
p2212
aS'room'
p2213
ag10
aS'get'
p2214
aS'behind'
p2215
aS'the'
p2216
aS'object'
p2217
ag10
aS'and'
p2218
aS'return'
p2219
aS'the'
p2220
aS'object'
p2221
aS'to'
p2222
aS'the'
p2223
aS'purple'
p2224
aS'room'
p2225
aS'blockInRegion  roomIsBlue'
p2226
tp2227
a((lp2228
S'move'
p2229
aS'three'
p2230
aS'steps'
p2231
aS'from'
p2232
aS'blue'
p2233
aS'room'
p2234
aS'to'
p2235
aS'red'
p2236
aS'room'
p2237
aS'and'
p2238
aS'move'
p2239
aS'four'
p2240
aS'steps'
p2241
aS'left'
p2242
aS'and'
p2243
aS'two'
p2244
aS'steps'
p2245
aS'up'
p2246
aS'to'
p2247
aS'green'
p2248
aS'room'
p2249
aS'agentInRegion  roomIsGreen'
p2250
tp2251
a((lp2252
S'go'
p2253
aS'to'
p2254
aS'the'
p2255
aS'red'
p2256
aS'room'
p2257
aS'agentInRegion  roomIsRed'
p2258
tp2259
a((lp2260
S'go'
p2261
aS'to'
p2262
aS'the'
p2263
aS'red'
p2264
aS'room'
p2265
aS'go'
p2266
aS'to'
p2267
aS'the'
p2268
aS'green'
p2269
aS'room'
p2270
aS'agentInRegion  roomIsGreen'
p2271
tp2272
a((lp2273
S'push'
p2274
aS'the'
p2275
aS'backpack'
p2276
aS'into'
p2277
aS'the'
p2278
aS'green'
p2279
aS'room'
p2280
aS'then'
p2281
aS'go'
p2282
aS'into'
p2283
aS'the'
p2284
aS'blue'
p2285
aS'room'
p2286
aS'agentInRegion  roomIsBlue blockInRegion  roomIsGreen'
p2287
tp2288
a((lp2289
S'move'
p2290
aS'to'
p2291
aS'the'
p2292
aS'pink'
p2293
aS'room'
p2294
aS'agentInRegion  roomIsRed'
p2295
tp2296
a((lp2297
S'move'
p2298
aS'into'
p2299
aS'the'
p2300
aS'red'
p2301
aS'room'
p2302
aS'and'
p2303
aS'then'
p2304
aS'push'
p2305
aS'the'
p2306
aS'chair'
p2307
aS'into'
p2308
aS'the'
p2309
aS'blue'
p2310
aS'room'
p2311
aS'blockInRegion  roomIsBlue'
p2312
tp2313
a((lp2314
S'bring'
p2315
aS'the'
p2316
aS'chair'
p2317
aS'back'
p2318
aS'to'
p2319
aS'the'
p2320
aS'blue'
p2321
aS'room'
p2322
aS'blockInRegion  roomIsBlue'
p2323
tp2324
a((lp2325
S'go'
p2326
aS'get'
p2327
aS'the'
p2328
aS'red'
p2329
aS'dog'
p2330
aS'push'
p2331
aS'it'
p2332
aS'to'
p2333
aS'the'
p2334
aS'blue'
p2335
aS'room'
p2336
aS'and'
p2337
aS'go'
p2338
aS'to'
p2339
aS'the'
p2340
aS'green'
p2341
aS'room'
p2342
aS'agentInRegion  roomIsGreen blockInRegion  roomIsBlue'
p2343
tp2344
a((lp2345
S'go'
p2346
aS'to'
p2347
aS'red'
p2348
aS'room'
p2349
ag10
aS'bring'
p2350
aS'chair'
p2351
aS'back'
p2352
aS'to'
p2353
aS'blue'
p2354
aS'room'
p2355
aS'blockInRegion  roomIsBlue'
p2356
tp2357
a((lp2358
S'turn'
p2359
aS'right'
p2360
aS'move'
p2361
aS'upward'
p2362
aS'agentInRegion  roomIsRed'
p2363
tp2364
a((lp2365
S'go'
p2366
aS'to'
p2367
aS'peach'
p2368
aS'room'
p2369
aS'go'
p2370
aS'to'
p2371
aS'green'
p2372
aS'room'
p2373
aS'agentInRegion  roomIsGreen'
p2374
tp2375
a((lp2376
S'move'
p2377
aS'to'
p2378
aS'pink'
p2379
aS'room'
p2380
aS'push'
p2381
aS'chair'
p2382
aS'to'
p2383
aS'purple'
p2384
aS'room'
p2385
aS'blockInRegion  roomIsBlue'
p2386
tp2387
a((lp2388
S'go'
p2389
aS'to'
p2390
aS'the'
p2391
aS'red'
p2392
aS'room'
p2393
aS'agentInRegion  roomIsRed'
p2394
tp2395
a((lp2396
S'move'
p2397
aS'to'
p2398
aS'pink'
p2399
aS'room'
p2400
aS'get'
p2401
aS'the'
p2402
aS'chair'
p2403
aS'move'
p2404
aS'it'
p2405
aS'to'
p2406
aS'blue'
p2407
aS'room'
p2408
aS'place'
p2409
aS'their'
p2410
aS'blockInRegion  roomIsBlue'
p2411
tp2412
a((lp2413
S'push'
p2414
aS'out'
p2415
aS'of'
p2416
aS'room'
p2417
aS'grab'
p2418
aS'the'
p2419
aS'chair'
p2420
aS'push'
p2421
aS'into'
p2422
aS'other'
p2423
aS'room'
p2424
aS'agentInRegion  roomIsGreen blockInRegion  roomIsBlue'
p2425
tp2426
a((lp2427
S'move'
p2428
aS'to'
p2429
aS'the'
p2430
aS'red'
p2431
aS'room'
p2432
ag10
aS'move'
p2433
aS'the'
p2434
aS'red'
p2435
aS'chair'
p2436
aS'to'
p2437
aS'the'
p2438
aS'blue'
p2439
aS'room'
p2440
ag10
aS'move'
p2441
aS'to'
p2442
aS'the'
p2443
aS'red'
p2444
aS'room'
p2445
aS'and'
p2446
aS'then'
p2447
aS'move'
p2448
aS'to'
p2449
aS'the'
p2450
aS'green'
p2451
aS'room'
p2452
aS'agentInRegion  roomIsGreen blockInRegion  roomIsBlue'
p2453
tp2454
a((lp2455
S'leave'
p2456
aS'this'
p2457
aS'room'
p2458
aS'and'
p2459
aS'go'
p2460
aS'into'
p2461
aS'the'
p2462
aS'green'
p2463
aS'room'
p2464
aS'agentInRegion  roomIsGreen'
p2465
tp2466
a((lp2467
S'go'
p2468
aS'to'
p2469
aS'the'
p2470
aS'red'
p2471
aS'room'
p2472
aS'agentInRegion  roomIsRed'
p2473
tp2474
a((lp2475
S'move'
p2476
aS'to'
p2477
aS'the'
p2478
aS'red'
p2479
aS'room'
p2480
aS'then'
p2481
aS'move'
p2482
aS'to'
p2483
aS'the'
p2484
aS'blue'
p2485
aS'room'
p2486
aS'agentInRegion  roomIsBlue blockInRegion  roomIsGreen'
p2487
tp2488
a((lp2489
S'go'
p2490
aS'to'
p2491
aS'red'
p2492
aS'room'
p2493
aS'agentInRegion  roomIsRed'
p2494
tp2495
a((lp2496
S'go'
p2497
aS'to'
p2498
aS'pink'
p2499
aS'room'
p2500
aS'agentInRegion  roomIsRed'
p2501
tp2502
a((lp2503
S'move'
p2504
aS'to'
p2505
aS'the'
p2506
aS'green'
p2507
aS'room'
p2508
aS'agentInRegion  roomIsGreen'
p2509
tp2510
a((lp2511
S'go'
p2512
aS'to'
p2513
aS'the'
p2514
aS'red'
p2515
aS'room'
p2516
aS'agentInRegion  roomIsRed'
p2517
tp2518
a((lp2519
S'go'
p2520
aS'to'
p2521
aS'the'
p2522
aS'red'
p2523
aS'door'
p2524
ag10
aS'go'
p2525
aS'to'
p2526
aS'the'
p2527
aS'green'
p2528
aS'door'
p2529
ag10
aS'go'
p2530
aS'to'
p2531
aS'the'
p2532
aS'red'
p2533
aS'door'
p2534
ag10
aS'go'
p2535
aS'to'
p2536
aS'the'
p2537
aS'blue'
p2538
aS'door'
p2539
aS'agentInRegion  roomIsBlue blockInRegion  roomIsGreen'
p2540
tp2541
a((lp2542
S'move'
p2543
aS'to'
p2544
aS'the'
p2545
aS'red'
p2546
aS'room'
p2547
aS'bring'
p2548
aS'chair'
p2549
aS'to'
p2550
aS'the'
p2551
aS'blue'
p2552
aS'room'
p2553
aS'blockInRegion  roomIsBlue'
p2554
tp2555
a((lp2556
S'go'
p2557
aS'to'
p2558
aS'red'
p2559
aS'room'
p2560
ag10
aS'go'
p2561
aS'to'
p2562
aS'chair'
p2563
ag10
aS'push'
p2564
aS'chair'
p2565
aS'to'
p2566
aS'blue'
p2567
aS'room'
p2568
ag10
aS'go'
p2569
aS'to'
p2570
aS'red'
p2571
aS'room'
p2572
ag10
aS'go'
p2573
aS'to'
p2574
aS'green'
p2575
aS'room'
p2576
aS'agentInRegion  roomIsGreen blockInRegion  roomIsBlue'
p2577
tp2578
a((lp2579
S'go'
p2580
aS'from'
p2581
aS'the'
p2582
aS'blue'
p2583
aS'room'
p2584
aS'to'
p2585
aS'the'
p2586
aS'red'
p2587
aS'room'
p2588
aS'agentInRegion  roomIsRed'
p2589
tp2590
a((lp2591
S'go'
p2592
aS'to'
p2593
aS'the'
p2594
aS'red'
p2595
aS'room'
p2596
ag10
aS'push'
p2597
aS'the'
p2598
aS'object'
p2599
aS'into'
p2600
aS'the'
p2601
aS'green'
p2602
aS'room'
p2603
ag10
aS'return'
p2604
aS'to'
p2605
aS'the'
p2606
aS'red'
p2607
aS'room'
p2608
ag10
aS'and'
p2609
aS'then'
p2610
aS'go'
p2611
aS'to'
p2612
aS'the'
p2613
aS'blue'
p2614
aS'room'
p2615
aS'agentInRegion  roomIsBlue blockInRegion  roomIsGreen'
p2616
tp2617
a((lp2618
S'go'
p2619
aS'to'
p2620
aS'the'
p2621
aS'red'
p2622
aS'room'
p2623
aS'and'
p2624
aS'push'
p2625
aS'the'
p2626
aS'chair'
p2627
aS'into'
p2628
aS'the'
p2629
aS'blue'
p2630
aS'room'
p2631
aS'blockInRegion  roomIsBlue'
p2632
tp2633
a((lp2634
S'go'
p2635
aS'to'
p2636
aS'the'
p2637
aS'red'
p2638
aS'room'
p2639
aS'grab'
p2640
aS'the'
p2641
aS'chair'
p2642
aS'come'
p2643
aS'back'
p2644
aS'to'
p2645
aS'the'
p2646
aS'blue'
p2647
aS'room'
p2648
aS'blockInRegion  roomIsBlue'
p2649
tp2650
a((lp2651
S'move'
p2652
aS'to'
p2653
aS'the'
p2654
aS'red'
p2655
aS'room'
p2656
aS'bring'
p2657
aS'the'
p2658
aS'chair'
p2659
aS'to'
p2660
aS'the'
p2661
aS'blue'
p2662
aS'room'
p2663
aS'then'
p2664
aS'go'
p2665
aS'to'
p2666
aS'the'
p2667
aS'green'
p2668
aS'room'
p2669
aS'agentInRegion  roomIsGreen blockInRegion  roomIsBlue'
p2670
tp2671
a((lp2672
S'move'
p2673
aS'to'
p2674
aS'chair'
p2675
aS'push'
p2676
aS'chair'
p2677
aS'to'
p2678
aS'purple'
p2679
aS'room'
p2680
aS'move'
p2681
aS'to'
p2682
aS'green'
p2683
aS'room'
p2684
aS'agentInRegion  roomIsGreen blockInRegion  roomIsBlue'
p2685
tp2686
a((lp2687
S'go'
p2688
aS'to'
p2689
aS'the'
p2690
aS'red'
p2691
aS'room'
p2692
aS'move'
p2693
aS'the'
p2694
aS'chair'
p2695
aS'to'
p2696
aS'the'
p2697
aS'blue'
p2698
aS'room'
p2699
aS'go'
p2700
aS'to'
p2701
aS'the'
p2702
aS'green'
p2703
aS'room'
p2704
aS'agentInRegion  roomIsGreen blockInRegion  roomIsBlue'
p2705
tp2706
a((lp2707
S'move'
p2708
aS'to'
p2709
aS'the'
p2710
aS'red'
p2711
aS'room'
p2712
aS'agentInRegion  roomIsRed'
p2713
tp2714
a((lp2715
S'go'
p2716
aS'to'
p2717
aS'the'
p2718
aS'chair'
p2719
aS'then'
p2720
aS'push'
p2721
aS'it'
p2722
aS'to'
p2723
aS'the'
p2724
aS'red'
p2725
aS'room'
p2726
aS'blockInRegion  roomIsBlue'
p2727
tp2728
a((lp2729
S'go'
p2730
aS'to'
p2731
aS'green'
p2732
aS'room'
p2733
aS'agentInRegion  roomIsGreen blockInRegion  roomIsBlue'
p2734
tp2735
a((lp2736
S'go'
p2737
aS'to'
p2738
aS'the'
p2739
aS'red'
p2740
aS'room'
p2741
aS'agentInRegion  roomIsRed'
p2742
tp2743
a((lp2744
S'go'
p2745
aS'to'
p2746
aS'the'
p2747
aS'pink'
p2748
aS'room'
p2749
aS'!'
p2750
aS'agentInRegion  roomIsRed'
p2751
tp2752
a((lp2753
S'go'
p2754
aS'from'
p2755
aS'the'
p2756
aS'blue'
p2757
aS'room'
p2758
aS'to'
p2759
aS'the'
p2760
aS'pink'
p2761
aS'room'
p2762
ag144
aS'go'
p2763
aS'from'
p2764
aS'the'
p2765
aS'pink'
p2766
aS'room'
p2767
aS'to'
p2768
aS'the'
p2769
aS'green'
p2770
aS'room'
p2771
aS'agentInRegion  roomIsGreen'
p2772
tp2773
a((lp2774
S'move'
p2775
aS'to'
p2776
aS'the'
p2777
aS'red'
p2778
aS'room'
p2779
aS'agentInRegion  roomIsRed'
p2780
tp2781
a((lp2782
S'go'
p2783
aS'to'
p2784
aS'the'
p2785
aS'green'
p2786
aS'room'
p2787
aS'agentInRegion  roomIsGreen'
p2788
tp2789
a((lp2790
S'go'
p2791
aS'to'
p2792
aS'the'
p2793
aS'pink'
p2794
aS'room'
p2795
aS'agentInRegion  roomIsRed'
p2796
tp2797
a((lp2798
S'go'
p2799
aS'from'
p2800
aS'the'
p2801
aS'blue'
p2802
aS'room'
p2803
aS'to'
p2804
aS'the'
p2805
aS'red'
p2806
aS'room'
p2807
aS'then'
p2808
aS'push'
p2809
aS'the'
p2810
aS'yellow'
p2811
aS'object'
p2812
aS'into'
p2813
aS'the'
p2814
aS'green'
p2815
aS'room'
p2816
aS'agentInRegion  roomIsBlue blockInRegion  roomIsGreen'
p2817
tp2818
a((lp2819
S'move'
p2820
aS'to'
p2821
aS'the'
p2822
aS'red'
p2823
aS'room'
p2824
aS'agentInRegion  roomIsRed'
p2825
tp2826
a((lp2827
S'go'
p2828
aS'down'
p2829
aS'go'
p2830
aS'west'
p2831
aS'enter'
p2832
aS'into'
p2833
aS'the'
p2834
aS'green'
p2835
aS'room'
p2836
aS'agentInRegion  roomIsGreen'
p2837
tp2838
a((lp2839
S'move'
p2840
aS'to'
p2841
aS'pink'
p2842
aS'room'
p2843
aS'agentInRegion  roomIsRed'
p2844
tp2845
a((lp2846
S'go'
p2847
aS'to'
p2848
aS'the'
p2849
aS'red'
p2850
aS'room'
p2851
aS'and'
p2852
aS'push'
p2853
aS'the'
p2854
aS'chair'
p2855
aS'to'
p2856
aS'the'
p2857
aS'blue'
p2858
aS'room'
p2859
aS'and'
p2860
aS'leave'
p2861
aS'it'
p2862
aS'there'
p2863
aS'and'
p2864
aS'go'
p2865
aS'back'
p2866
aS'to'
p2867
aS'the'
p2868
aS'red'
p2869
aS'room'
p2870
aS'and'
p2871
aS'go'
p2872
aS'to'
p2873
aS'the'
p2874
aS'green'
p2875
aS'room'
p2876
aS'agentInRegion  roomIsGreen blockInRegion  roomIsBlue'
p2877
tp2878
a((lp2879
S'move'
p2880
aS'to'
p2881
aS'the'
p2882
aS'red'
p2883
aS'room'
p2884
aS'agentInRegion  roomIsRed'
p2885
tp2886
a((lp2887
S'go'
p2888
aS'to'
p2889
aS'red'
p2890
aS'room'
p2891
aS'push'
p2892
aS'chair'
p2893
aS'to'
p2894
aS'purple'
p2895
aS'room'
p2896
aS'blockInRegion  roomIsBlue'
p2897
tp2898
a((lp2899
S'go'
p2900
aS'to'
p2901
aS'the'
p2902
aS'pink'
p2903
aS'room'
p2904
aS'move'
p2905
aS'towards'
p2906
aS'the'
p2907
aS'object'
p2908
aS'in'
p2909
aS'the'
p2910
aS'room'
p2911
aS'and'
p2912
aS'turn'
p2913
aS'to'
p2914
aS'the'
p2915
aS'green'
p2916
aS'room'
p2917
aS'agentInRegion  roomIsGreen'
p2918
tp2919
a((lp2920
S'go'
p2921
aS'to'
p2922
aS'the'
p2923
aS'green'
p2924
aS'room'
p2925
aS'blockInRegion  roomIsBlue'
p2926
tp2927
a((lp2928
S'go'
p2929
aS'into'
p2930
aS'the'
p2931
aS'red'
p2932
aS'room'
p2933
ag10
aS'go'
p2934
aS'to'
p2935
aS'the'
p2936
aS'object'
p2937
aS'in'
p2938
aS'the'
p2939
aS'red'
p2940
aS'room'
p2941
ag10
aS'push'
p2942
aS'the'
p2943
aS'object'
p2944
aS'into'
p2945
aS'the'
p2946
aS'green'
p2947
aS'room'
p2948
ag10
aS'go'
p2949
aS'back'
p2950
aS'to'
p2951
aS'red'
p2952
aS'room'
p2953
ag10
aS'then'
p2954
aS'go'
p2955
aS'to'
p2956
aS'blue'
p2957
aS'room'
p2958
aS'agentInRegion  roomIsBlue blockInRegion  roomIsGreen'
p2959
tp2960
a((lp2961
S'go'
p2962
aS'to'
p2963
aS'red'
p2964
aS'room'
p2965
ag10
aS'push'
p2966
aS'dog'
p2967
aS'into'
p2968
aS'green'
p2969
aS'room'
p2970
aS'and'
p2971
aS'return'
p2972
aS'to'
p2973
aS'blue'
p2974
aS'room'
p2975
aS'agentInRegion  roomIsBlue blockInRegion  roomIsGreen'
p2976
tp2977
a((lp2978
S'move'
p2979
aS'to'
p2980
aS'the'
p2981
aS'red'
p2982
aS'room'
p2983
ag10
aS'push'
p2984
aS'the'
p2985
aS'object'
p2986
aS'into'
p2987
aS'the'
p2988
aS'blue'
p2989
aS'room'
p2990
ag10
aS'move'
p2991
aS'through'
p2992
aS'the'
p2993
aS'red'
p2994
aS'room'
p2995
aS'and'
p2996
aS'enter'
p2997
aS'the'
p2998
aS'green'
p2999
aS'room'
p3000
aS'agentInRegion  roomIsGreen blockInRegion  roomIsBlue'
p3001
tp3002
a((lp3003
S'go'
p3004
aS'to'
p3005
aS'the'
p3006
aS'green'
p3007
aS'room'
p3008
aS'agentInRegion  roomIsGreen'
p3009
tp3010
a((lp3011
S'go'
p3012
aS'to'
p3013
aS'peach'
p3014
aS'room'
p3015
aS'south'
p3016
aS'three'
p3017
aS'west'
p3018
aS'four'
p3019
aS'go'
p3020
aS'to'
p3021
aS'green'
p3022
aS'room'
p3023
aS'north'
p3024
aS'one'
p3025
aS'south'
p3026
aS'one'
p3027
aS'east'
p3028
aS'four'
p3029
aS'go'
p3030
aS'to'
p3031
aS'purple'
p3032
aS'room'
p3033
aS'agentInRegion  roomIsBlue blockInRegion  roomIsGreen'
p3034
tp3035
a((lp3036
S'move'
p3037
aS'to'
p3038
aS'the'
p3039
aS'red'
p3040
aS'room'
p3041
aS'push'
p3042
aS'the'
p3043
aS'chair'
p3044
aS'to'
p3045
aS'the'
p3046
aS'blue'
p3047
aS'room'
p3048
aS'blockInRegion  roomIsBlue'
p3049
tp3050
a((lp3051
S'move'
p3052
aS'to'
p3053
aS'the'
p3054
aS'red'
p3055
aS'room'
p3056
aS'agentInRegion  roomIsRed'
p3057
tp3058
a((lp3059
S'go'
p3060
aS'into'
p3061
aS'the'
p3062
aS'red'
p3063
aS'room'
p3064
aS'agentInRegion  roomIsRed'
p3065
tp3066
a((lp3067
S'move'
p3068
aS'to'
p3069
aS'red'
p3070
aS'room'
p3071
aS'agentInRegion  roomIsRed'
p3072
tp3073
a((lp3074
S'move'
p3075
aS'to'
p3076
aS'red'
p3077
aS'room'
p3078
aS'push'
p3079
aS'chair'
p3080
aS'into'
p3081
aS'blue'
p3082
aS'room'
p3083
aS'go'
p3084
aS'back'
p3085
aS'to'
p3086
aS'red'
p3087
aS'room'
p3088
aS'and'
p3089
aS'enter'
p3090
aS'green'
p3091
aS'room'
p3092
aS'agentInRegion  roomIsGreen blockInRegion  roomIsBlue'
p3093
tp3094
a((lp3095
S'go'
p3096
aS'push'
p3097
aS'the'
p3098
aS'yellow'
p3099
aS'object'
p3100
aS'into'
p3101
aS'the'
p3102
aS'green'
p3103
aS'room'
p3104
aS'then'
p3105
aS'return'
p3106
aS'to'
p3107
aS'purple'
p3108
aS'room'
p3109
aS'agentInRegion  roomIsBlue blockInRegion  roomIsGreen'
p3110
tp3111
a((lp3112
S'go'
p3113
aS'to'
p3114
aS'the'
p3115
aS'pink'
p3116
aS'room'
p3117
aS'agentInRegion  roomIsRed'
p3118
tp3119
a((lp3120
S'go'
p3121
aS'in'
p3122
aS'to'
p3123
aS'the'
p3124
aS'pink'
p3125
aS'room'
p3126
aS'agentInRegion  roomIsRed'
p3127
tp3128
a((lp3129
S'go'
p3130
aS'to'
p3131
aS'the'
p3132
aS'pink'
p3133
aS'room'
p3134
aS'then'
p3135
aS'go'
p3136
aS'to'
p3137
aS'the'
p3138
aS'green'
p3139
aS'room'
p3140
aS'agentInRegion  roomIsGreen blockInRegion  roomIsBlue'
p3141
tp3142
a((lp3143
S'go'
p3144
aS'to'
p3145
aS'the'
p3146
aS'red'
p3147
aS'room'
p3148
aS'agentInRegion  roomIsRed'
p3149
tp3150
a((lp3151
S'go'
p3152
aS'to'
p3153
aS'the'
p3154
aS'red'
p3155
aS'room'
p3156
aS'agentInRegion  roomIsRed'
p3157
tp3158
a((lp3159
S'go'
p3160
aS'to'
p3161
aS'the'
p3162
aS'red'
p3163
aS'room'
p3164
aS'agentInRegion  roomIsRed'
p3165
tp3166
a((lp3167
S'move'
p3168
aS'to'
p3169
aS'pink'
p3170
aS'room'
p3171
aS'move'
p3172
aS'the'
p3173
aS'chair'
p3174
aS'to'
p3175
aS'blue'
p3176
aS'room'
p3177
aS'blockInRegion  roomIsBlue'
p3178
tp3179
a((lp3180
S'move'
p3181
aS'the'
p3182
aS'object'
p3183
aS'to'
p3184
aS'the'
p3185
aS'green'
p3186
aS'room'
p3187
aS'then'
p3188
aS'move'
p3189
aS'to'
p3190
aS'the'
p3191
aS'blue'
p3192
aS'room'
p3193
aS'agentInRegion  roomIsBlue blockInRegion  roomIsGreen'
p3194
tp3195
a((lp3196
S'go'
p3197
aS'to'
p3198
aS'the'
p3199
aS'red'
p3200
aS'agentInRegion  roomIsRed'
p3201
tp3202
a((lp3203
S'go'
p3204
aS'to'
p3205
aS'the'
p3206
aS'red'
p3207
aS'room'
p3208
ag10
aS'move'
p3209
aS'the'
p3210
aS'chair'
p3211
aS'into'
p3212
aS'the'
p3213
aS'blue'
p3214
aS'room'
p3215
ag10
aS'come'
p3216
aS'back'
p3217
aS'to'
p3218
aS'the'
p3219
aS'red'
p3220
aS'room'
p3221
aS'and'
p3222
aS'enter'
p3223
aS'the'
p3224
aS'green'
p3225
aS'room'
p3226
aS'agentInRegion  roomIsGreen blockInRegion  roomIsBlue'
p3227
tp3228
a((lp3229
S'go'
p3230
aS'into'
p3231
aS'the'
p3232
aS'red'
p3233
aS'room'
p3234
aS'agentInRegion  roomIsRed'
p3235
tp3236
a((lp3237
S'move'
p3238
aS'chair'
p3239
aS'to'
p3240
aS'blue'
p3241
aS'room'
p3242
aS'and'
p3243
aS'then'
p3244
aS'go'
p3245
aS'into'
p3246
aS'the'
p3247
aS'green'
p3248
aS'room'
p3249
aS'agentInRegion  roomIsGreen blockInRegion  roomIsBlue'
p3250
tp3251
a((lp3252
S'move'
p3253
aS'to'
p3254
aS'the'
p3255
aS'pink'
p3256
aS'room'
p3257
aS'and'
p3258
aS'grab'
p3259
aS'the'
p3260
aS'chair'
p3261
aS'blockInRegion  roomIsBlue'
p3262
tp3263
a((lp3264
S'go'
p3265
aS'to'
p3266
aS'red'
p3267
aS'room'
p3268
aS'and'
p3269
aS'push'
p3270
aS'the'
p3271
aS'chair'
p3272
aS'over'
p3273
aS'and'
p3274
aS'push'
p3275
aS'it'
p3276
aS'into'
p3277
aS'the'
p3278
aS'purple'
p3279
aS'room'
p3280
aS'blockInRegion  roomIsBlue'
p3281
tp3282
a((lp3283
S'move'
p3284
aS'from'
p3285
aS'the'
p3286
aS'purple'
p3287
aS'room'
p3288
aS'to'
p3289
aS'the'
p3290
aS'pink'
p3291
aS'room'
p3292
aS'agentInRegion  roomIsRed'
p3293
tp3294
a((lp3295
S'go'
p3296
aS'to'
p3297
aS'red'
p3298
aS'room'
p3299
ag10
aS'go'
p3300
aS'to'
p3301
aS'green'
p3302
aS'room'
p3303
aS'agentInRegion  roomIsGreen'
p3304
tp3305
a((lp3306
S'move'
p3307
aS'to'
p3308
aS'the'
p3309
aS'red'
p3310
aS'room'
p3311
ag10
aS'get'
p3312
aS'the'
p3313
aS'chair'
p3314
aS'and'
p3315
aS'go'
p3316
aS'back'
p3317
aS'to'
p3318
aS'the'
p3319
aS'blue'
p3320
aS'room'
p3321
ag10
aS'go'
p3322
aS'to'
p3323
aS'the'
p3324
aS'red'
p3325
aS'room'
p3326
aS'and'
p3327
aS'to'
p3328
aS'the'
p3329
aS'green'
p3330
aS'room'
p3331
aS'agentInRegion  roomIsGreen blockInRegion  roomIsBlue'
p3332
tp3333
a((lp3334
S'go'
p3335
aS'to'
p3336
aS'the'
p3337
aS'red'
p3338
aS'room'
p3339
aS'agentInRegion  roomIsRed'
p3340
tp3341
a((lp3342
S'move'
p3343
aS'to'
p3344
aS'the'
p3345
aS'red'
p3346
aS'room'
p3347
ag10
aS'move'
p3348
aS'to'
p3349
aS'the'
p3350
aS'object'
p3351
aS'in'
p3352
aS'the'
p3353
aS'red'
p3354
aS'room'
p3355
ag10
aS'move'
p3356
aS'the'
p3357
aS'object'
p3358
aS'to'
p3359
aS'the'
p3360
aS'green'
p3361
aS'room'
p3362
ag10
aS'move'
p3363
aS'back'
p3364
aS'to'
p3365
aS'the'
p3366
aS'red'
p3367
aS'room'
p3368
ag10
aS'move'
p3369
aS'to'
p3370
aS'the'
p3371
aS'blue'
p3372
aS'room'
p3373
aS'agentInRegion  roomIsBlue blockInRegion  roomIsGreen'
p3374
tp3375
a((lp3376
S'move'
p3377
aS'to'
p3378
aS'the'
p3379
aS'red'
p3380
aS'room'
p3381
aS'agentInRegion  roomIsRed'
p3382
tp3383
a((lp3384
S'go'
p3385
aS'to'
p3386
aS'the'
p3387
aS'red'
p3388
aS'room'
p3389
aS'and'
p3390
aS'push'
p3391
aS'the'
p3392
aS'chair'
p3393
aS'into'
p3394
aS'the'
p3395
aS'blue'
p3396
aS'room'
p3397
aS'blockInRegion  roomIsBlue'
p3398
tp3399
a((lp3400
S'move'
p3401
aS'to'
p3402
aS'the'
p3403
aS'red'
p3404
aS'room'
p3405
aS'agentInRegion  roomIsRed'
p3406
tp3407
a((lp3408
S'move'
p3409
aS'south'
p3410
aS'to'
p3411
aS'the'
p3412
aS'red'
p3413
aS'room'
p3414
aS'push'
p3415
aS'the'
p3416
aS'chair'
p3417
aS'back'
p3418
aS'to'
p3419
aS'the'
p3420
aS'blue'
p3421
aS'room'
p3422
aS'and'
p3423
aS'enter'
p3424
aS'the'
p3425
aS'green'
p3426
aS'room'
p3427
aS'agentInRegion  roomIsGreen blockInRegion  roomIsBlue'
p3428
tp3429
a((lp3430
S'move'
p3431
aS'to'
p3432
aS'red'
p3433
aS'room'
p3434
aS'and'
p3435
aS'take'
p3436
aS'the'
p3437
aS'chair'
p3438
aS'to'
p3439
aS'violet'
p3440
aS'and'
p3441
aS'move'
p3442
aS'to'
p3443
aS'red'
p3444
aS'room'
p3445
aS'and'
p3446
aS'go'
p3447
aS'to'
p3448
aS'green'
p3449
aS'room'
p3450
aS'agentInRegion  roomIsGreen blockInRegion  roomIsBlue'
p3451
tp3452
a((lp3453
S'go'
p3454
aS'to'
p3455
aS'the'
p3456
aS'pink'
p3457
aS'room'
p3458
ag144
aS'go'
p3459
aS'to'
p3460
aS'the'
p3461
aS'yellow'
p3462
aS'chair'
p3463
ag144
aS'push'
p3464
aS'the'
p3465
aS'yellow'
p3466
aS'chair'
p3467
aS'into'
p3468
aS'the'
p3469
aS'green'
p3470
aS'room'
p3471
ag144
aS'go'
p3472
aS'to'
p3473
aS'the'
p3474
aS'pink'
p3475
aS'room'
p3476
ag144
aS'go'
p3477
aS'to'
p3478
aS'the'
p3479
aS'blue'
p3480
aS'room'
p3481
aS'agentInRegion  roomIsBlue blockInRegion  roomIsGreen'
p3482
tp3483
a((lp3484
S'down'
p3485
aS'to'
p3486
aS'pink'
p3487
aS'room'
p3488
aS'right'
p3489
aS'to'
p3490
aS'green'
p3491
aS'door'
p3492
aS'and'
p3493
aS'then'
p3494
aS'up'
p3495
aS'agentInRegion  roomIsRed'
p3496
tp3497
a((lp3498
S'go'
p3499
aS'to'
p3500
aS'the'
p3501
aS'green'
p3502
aS'room'
p3503
aS'agentInRegion  roomIsGreen'
p3504
tp3505
a((lp3506
S'go'
p3507
aS'to'
p3508
aS'the'
p3509
aS'red'
p3510
aS'room'
p3511
ag10
aS'get'
p3512
aS'the'
p3513
aS'chair'
p3514
ag10
aS'then'
p3515
aS'go'
p3516
aS'to'
p3517
aS'the'
p3518
aS'blue'
p3519
aS'room'
p3520
aS'blockInRegion  roomIsBlue'
p3521
tp3522
a((lp3523
S'move'
p3524
aS'to'
p3525
aS'the'
p3526
aS'red'
p3527
aS'room'
p3528
aS'and'
p3529
aS'then'
p3530
aS'move'
p3531
aS'to'
p3532
aS'the'
p3533
aS'green'
p3534
aS'room'
p3535
aS'agentInRegion  roomIsGreen'
p3536
tp3537
a((lp3538
S'go'
p3539
aS'to'
p3540
aS'the'
p3541
aS'red'
p3542
aS'room'
p3543
aS'agentInRegion  roomIsRed'
p3544
tp3545
a((lp3546
S'walk'
p3547
aS'to'
p3548
aS'the'
p3549
aS'red'
p3550
aS'room'
p3551
aS'push'
p3552
aS'the'
p3553
aS'red'
p3554
aS'chair'
p3555
aS'to'
p3556
aS'the'
p3557
aS'purple'
p3558
aS'room'
p3559
aS'go'
p3560
aS'to'
p3561
aS'the'
p3562
aS'green'
p3563
aS'room'
p3564
aS'agentInRegion  roomIsGreen blockInRegion  roomIsBlue'
p3565
tp3566
a((lp3567
S'go'
p3568
aS'to'
p3569
aS'the'
p3570
aS'red'
p3571
aS'room'
p3572
aS'push'
p3573
aS'the'
p3574
aS'chair'
p3575
aS'into'
p3576
aS'the'
p3577
aS'original'
p3578
aS'room'
p3579
aS'then'
p3580
aS'go'
p3581
aS'to'
p3582
aS'the'
p3583
aS'green'
p3584
aS'room'
p3585
aS'agentInRegion  roomIsGreen blockInRegion  roomIsBlue'
p3586
tp3587
a((lp3588
S'go'
p3589
aS'from'
p3590
aS'the'
p3591
aS'purple'
p3592
aS'room'
p3593
aS'to'
p3594
aS'the'
p3595
aS'pink'
p3596
aS'room'
p3597
aS'and'
p3598
aS'then'
p3599
aS'to'
p3600
aS'the'
p3601
aS'green'
p3602
aS'room'
p3603
aS'agentInRegion  roomIsGreen'
p3604
tp3605
a((lp3606
S'go'
p3607
aS'out'
p3608
aS'bring'
p3609
aS'the'
p3610
aS'chair'
p3611
aS'in'
p3612
aS'the'
p3613
aS'room'
p3614
aS'blockInRegion  roomIsBlue'
p3615
tp3616
a((lp3617
S'bring'
p3618
aS'the'
p3619
aS'chair'
p3620
aS'to'
p3621
aS'the'
p3622
aS'blue'
p3623
aS'room'
p3624
aS'and'
p3625
aS'then'
p3626
aS'go'
p3627
aS'to'
p3628
aS'the'
p3629
aS'green'
p3630
aS'room'
p3631
aS'agentInRegion  roomIsGreen blockInRegion  roomIsBlue'
p3632
tp3633
a((lp3634
S'move'
p3635
aS'to'
p3636
aS'the'
p3637
aS'red'
p3638
aS'room'
p3639
aS'then'
p3640
aS'push'
p3641
aS'the'
p3642
aS'chair'
p3643
aS'to'
p3644
aS'the'
p3645
aS'blue'
p3646
aS'room'
p3647
aS'blockInRegion  roomIsBlue'
p3648
tp3649
a((lp3650
S'go'
p3651
aS'to'
p3652
aS'the'
p3653
aS'red'
p3654
aS'room'
p3655
aS'and'
p3656
aS'get'
p3657
aS'dog'
p3658
ag10
aS'take'
p3659
aS'it'
p3660
aS'back'
p3661
aS'to'
p3662
aS'blue'
p3663
aS'room'
p3664
ag10
aS'then'
p3665
aS'go'
p3666
aS'to'
p3667
aS'the'
p3668
aS'red'
p3669
aS'room'
p3670
aS'and'
p3671
aS'then'
p3672
aS'go'
p3673
aS'to'
p3674
aS'the'
p3675
aS'green'
p3676
aS'room'
p3677
aS'agentInRegion  roomIsGreen blockInRegion  roomIsBlue'
p3678
tp3679
a((lp3680
S'move'
p3681
aS'to'
p3682
aS'the'
p3683
aS'red'
p3684
aS'room'
p3685
ag10
aS'then'
p3686
aS'the'
p3687
aS'green'
p3688
aS'room'
p3689
aS'agentInRegion  roomIsRed'
p3690
tp3691
a((lp3692
S'move'
p3693
aS'to'
p3694
aS'the'
p3695
aS'red'
p3696
aS'room'
p3697
aS'and'
p3698
aS'pick'
p3699
aS'up'
p3700
aS'the'
p3701
aS'chair'
p3702
aS'then'
p3703
aS'move'
p3704
aS'the'
p3705
aS'chair'
p3706
aS'into'
p3707
aS'the'
p3708
aS'blue'
p3709
aS'room'
p3710
aS'blockInRegion  roomIsBlue'
p3711
tp3712
a((lp3713
S'go'
p3714
aS'to'
p3715
aS'red'
p3716
aS'room'
p3717
aS'and'
p3718
aS'then'
p3719
aS'green'
p3720
aS'room'
p3721
aS'agentInRegion  roomIsGreen'
p3722
tp3723
a((lp3724
S'go'
p3725
aS'to'
p3726
aS'the'
p3727
aS'red'
p3728
aS'room'
p3729
ag144
aS'go'
p3730
aS'to'
p3731
aS'the'
p3732
aS'chair'
p3733
ag144
aS'push'
p3734
aS'the'
p3735
aS'chair'
p3736
aS'to'
p3737
aS'the'
p3738
aS'blue'
p3739
aS'room'
p3740
ag144
aS'go'
p3741
aS'to'
p3742
aS'the'
p3743
aS'red'
p3744
aS'room'
p3745
ag144
aS'go'
p3746
aS'to'
p3747
aS'the'
p3748
aS'green'
p3749
aS'room'
p3750
aS'agentInRegion  roomIsGreen blockInRegion  roomIsBlue'
p3751
tp3752
a((lp3753
S'push'
p3754
aS'the'
p3755
aS'chair'
p3756
aS'from'
p3757
aS'the'
p3758
aS'red'
p3759
aS'room'
p3760
aS'into'
p3761
aS'the'
p3762
aS'blue'
p3763
aS'room'
p3764
aS'blockInRegion  roomIsBlue'
p3765
tp3766
a((lp3767
S'move'
p3768
aS'the'
p3769
aS'chair'
p3770
aS'in'
p3771
aS'the'
p3772
aS'pink'
p3773
aS'room'
p3774
aS'to'
p3775
aS'the'
p3776
aS'blue'
p3777
aS'room'
p3778
aS'and'
p3779
aS'leave'
p3780
aS'it'
p3781
aS'there'
p3782
aS'then'
p3783
aS'go'
p3784
aS'to'
p3785
aS'the'
p3786
aS'green'
p3787
aS'room'
p3788
aS'agentInRegion  roomIsGreen blockInRegion  roomIsBlue'
p3789
tp3790
a((lp3791
S'come'
p3792
aS'out'
p3793
aS'agentInRegion  roomIsRed'
p3794
tp3795
a((lp3796
S'move'
p3797
aS'to'
p3798
aS'the'
p3799
aS'red'
p3800
aS'room'
p3801
aS'agentInRegion  roomIsRed'
p3802
tp3803
a((lp3804
S'move'
p3805
aS'to'
p3806
aS'the'
p3807
aS'red'
p3808
aS'room'
p3809
aS'and'
p3810
aS'push'
p3811
aS'the'
p3812
aS'chair'
p3813
aS'to'
p3814
aS'the'
p3815
aS'blue'
p3816
aS'room'
p3817
aS'blockInRegion  roomIsBlue'
p3818
tp3819
a((lp3820
S'go'
p3821
aS'to'
p3822
aS'the'
p3823
aS'red'
p3824
aS'room'
p3825
ag10
aS'push'
p3826
aS'the'
p3827
aS'chair'
p3828
aS'into'
p3829
aS'the'
p3830
aS'blue'
p3831
aS'room'
p3832
ag10
aS'go'
p3833
aS'back'
p3834
aS'into'
p3835
aS'the'
p3836
aS'red'
p3837
aS'room'
p3838
ag10
aS'and'
p3839
aS'then'
p3840
aS'go'
p3841
aS'to'
p3842
aS'the'
p3843
aS'green'
p3844
aS'room'
p3845
aS'agentInRegion  roomIsGreen blockInRegion  roomIsBlue'
p3846
tp3847
a((lp3848
S'go'
p3849
aS'down'
p3850
aS'take'
p3851
aS'the'
p3852
aS'doll'
p3853
aS'go'
p3854
aS'to'
p3855
aS'green'
p3856
aS'room'
p3857
aS'go'
p3858
aS'down'
p3859
aS'go'
p3860
aS'right'
p3861
aS'enter'
p3862
aS'into'
p3863
aS'the'
p3864
aS'first'
p3865
aS'room'
p3866
aS'agentInRegion  roomIsBlue blockInRegion  roomIsGreen'
p3867
tp3868
a((lp3869
S'go'
p3870
aS'into'
p3871
aS'the'
p3872
aS'red'
p3873
aS'room'
p3874
ag10
aS'push'
p3875
aS'puppy'
p3876
aS'into'
p3877
aS'the'
p3878
aS'green'
p3879
aS'room'
p3880
ag10
aS'go'
p3881
aS'back'
p3882
aS'into'
p3883
aS'the'
p3884
aS'red'
p3885
aS'room'
p3886
ag10
aS'go'
p3887
aS'to'
p3888
aS'the'
p3889
aS'blue'
p3890
aS'room'
p3891
aS'agentInRegion  roomIsBlue blockInRegion  roomIsGreen'
p3892
tp3893
a((lp3894
S'go'
p3895
aS'to'
p3896
aS'the'
p3897
aS'pink'
p3898
aS'room'
p3899
aS'agentInRegion  roomIsRed'
p3900
tp3901
a((lp3902
S'go'
p3903
aS'to'
p3904
aS'the'
p3905
aS'red'
p3906
aS'room'
p3907
aS'agentInRegion  roomIsRed'
p3908
tp3909
a((lp3910
S'go'
p3911
aS'from'
p3912
aS'the'
p3913
aS'blue'
p3914
aS'room'
p3915
aS'to'
p3916
aS'the'
p3917
aS'red'
p3918
aS'room'
p3919
ag10
aS'then'
p3920
aS'push'
p3921
aS'the'
p3922
aS'chair'
p3923
aS'to'
p3924
aS'the'
p3925
aS'blue'
p3926
aS'room'
p3927
aS'blockInRegion  roomIsBlue'
p3928
tp3929
a((lp3930
S'go'
p3931
aS'to'
p3932
aS'the'
p3933
aS'pink'
p3934
aS'room'
p3935
aS'and'
p3936
aS'retrieve'
p3937
aS'the'
p3938
aS'chair'
p3939
aS'and'
p3940
aS'bring'
p3941
aS'it'
p3942
aS'back'
p3943
aS'to'
p3944
aS'the'
p3945
aS'starting'
p3946
aS'position'
p3947
aS'then'
p3948
aS'enter'
p3949
aS'the'
p3950
aS'green'
p3951
aS'room'
p3952
aS'agentInRegion  roomIsGreen blockInRegion  roomIsBlue'
p3953
tp3954
a((lp3955
S'push'
p3956
aS'the'
p3957
aS'chair'
p3958
aS'into'
p3959
aS'the'
p3960
aS'green'
p3961
aS'room'
p3962
aS'and'
p3963
aS'return'
p3964
aS'to'
p3965
aS'the'
p3966
aS'blue'
p3967
aS'room'
p3968
aS'agentInRegion  roomIsBlue blockInRegion  roomIsGreen'
p3969
tp3970
a((lp3971
S'go'
p3972
aS'from'
p3973
aS'the'
p3974
aS'purple'
p3975
aS'room'
p3976
aS'into'
p3977
aS'the'
p3978
aS'green'
p3979
aS'room'
p3980
aS'pick'
p3981
aS'up'
p3982
aS'the'
p3983
aS'dog'
p3984
aS'and'
p3985
aS'move'
p3986
aS'him'
p3987
aS'into'
p3988
aS'the'
p3989
aS'green'
p3990
aS'room'
p3991
aS'then'
p3992
aS'return'
p3993
aS'to'
p3994
aS'the'
p3995
aS'purple'
p3996
aS'room'
p3997
aS'agentInRegion  roomIsBlue blockInRegion  roomIsGreen'
p3998
tp3999
a((lp4000
S'take'
p4001
aS'the'
p4002
aS'shortest'
p4003
aS'available'
p4004
aS'path'
p4005
aS'from'
p4006
aS'the'
p4007
aS'purple'
p4008
aS'room'
p4009
aS'to'
p4010
aS'the'
p4011
aS'green'
p4012
aS'room'
p4013
aS'agentInRegion  roomIsGreen'
p4014
tp4015
a((lp4016
S'move'
p4017
aS'to'
p4018
aS'the'
p4019
aS'red'
p4020
aS'room'
p4021
ag10
aS'move'
p4022
aS'to'
p4023
aS'the'
p4024
aS'red'
p4025
aS'chair'
p4026
ag10
aS'move'
p4027
aS'the'
p4028
aS'red'
p4029
aS'chair'
p4030
aS'to'
p4031
aS'the'
p4032
aS'blue'
p4033
aS'room'
p4034
aS'blockInRegion  roomIsBlue'
p4035
tp4036
a((lp4037
S'move'
p4038
aS'to'
p4039
aS'the'
p4040
aS'red'
p4041
aS'room'
p4042
ag10
aS'move'
p4043
aS'to'
p4044
aS'the'
p4045
aS'red'
p4046
aS'chair'
p4047
ag10
aS'move'
p4048
aS'the'
p4049
aS'red'
p4050
aS'chair'
p4051
aS'to'
p4052
aS'the'
p4053
aS'blue'
p4054
aS'room'
p4055
ag10
aS'move'
p4056
aS'to'
p4057
aS'the'
p4058
aS'red'
p4059
aS'room'
p4060
ag10
aS'move'
p4061
aS'to'
p4062
aS'the'
p4063
aS'green'
p4064
aS'room'
p4065
aS'agentInRegion  roomIsGreen blockInRegion  roomIsBlue'
p4066
tp4067
a((lp4068
S'go'
p4069
aS'out'
p4070
aS'and'
p4071
aS'get'
p4072
aS'the'
p4073
aS'chair'
p4074
aS'and'
p4075
aS'move'
p4076
aS'it'
p4077
aS'back'
p4078
aS'into'
p4079
aS'the'
p4080
aS'current'
p4081
aS'room'
p4082
aS'blockInRegion  roomIsBlue'
p4083
tp4084
a((lp4085
S'go'
p4086
aS'to'
p4087
aS'red'
p4088
aS'room'
p4089
aS'move'
p4090
aS'left'
p4091
aS'move'
p4092
aS'up'
p4093
aS'move'
p4094
aS'right'
p4095
aS'move'
p4096
aS'to'
p4097
aS'blue'
p4098
aS'room'
p4099
aS'move'
p4100
aS'to'
p4101
aS'green'
p4102
aS'room'
p4103
aS'agentInRegion  roomIsGreen blockInRegion  roomIsBlue'
p4104
tp4105
a((lp4106
S'go'
p4107
aS'to'
p4108
aS'the'
p4109
aS'red'
p4110
aS'room'
p4111
aS'and'
p4112
aS'then'
p4113
aS'go'
p4114
aS'to'
p4115
aS'the'
p4116
aS'green'
p4117
aS'room'
p4118
aS'agentInRegion  roomIsGreen'
p4119
tp4120
a((lp4121
S'move'
p4122
aS'into'
p4123
aS'pink'
p4124
aS'room'
p4125
aS'agentInRegion  roomIsRed'
p4126
tp4127
a((lp4128
S'go'
p4129
aS'into'
p4130
aS'the'
p4131
aS'red'
p4132
aS'room'
p4133
ag10
aS'move'
p4134
aS'the'
p4135
aS'chair'
p4136
aS'into'
p4137
aS'the'
p4138
aS'blue'
p4139
aS'room'
p4140
ag10
aS'go'
p4141
aS'back'
p4142
aS'into'
p4143
aS'the'
p4144
aS'red'
p4145
aS'room'
p4146
aS'and'
p4147
aS'enter'
p4148
aS'the'
p4149
aS'green'
p4150
aS'room'
p4151
aS'agentInRegion  roomIsGreen blockInRegion  roomIsBlue'
p4152
tp4153
a((lp4154
S'go'
p4155
aS'to'
p4156
aS'the'
p4157
aS'green'
p4158
aS'room'
p4159
aS'agentInRegion  roomIsGreen'
p4160
tp4161
a((lp4162
S'go'
p4163
aS'into'
p4164
aS'the'
p4165
aS'red'
p4166
aS'room'
p4167
aS'and'
p4168
aS'push'
p4169
aS'the'
p4170
aS'chair'
p4171
aS'into'
p4172
aS'the'
p4173
aS'blue'
p4174
aS'room'
p4175
aS'blockInRegion  roomIsBlue'
p4176
tp4177
a((lp4178
S'go'
p4179
aS'to'
p4180
aS'the'
p4181
aS'red'
p4182
aS'room'
p4183
aS'get'
p4184
aS'the'
p4185
aS'chair'
p4186
aS'and'
p4187
aS'come'
p4188
aS'back'
p4189
aS'blockInRegion  roomIsBlue'
p4190
tp4191
a((lp4192
S'go'
p4193
aS'down'
p4194
aS'left'
p4195
aS'up'
p4196
aS'agentInRegion  roomIsGreen'
p4197
tp4198
a((lp4199
S'go'
p4200
aS'straight'
p4201
aS'into'
p4202
aS'the'
p4203
aS'red'
p4204
aS'room'
p4205
ag10
aS'take'
p4206
aS'dog'
p4207
aS'to'
p4208
aS'green'
p4209
aS'room'
p4210
ag10
aS'go'
p4211
aS'to'
p4212
aS'red'
p4213
aS'room'
p4214
ag10
aS'go'
p4215
aS'to'
p4216
aS'blue'
p4217
aS'rooom'
p4218
aS'agentInRegion  roomIsBlue blockInRegion  roomIsGreen'
p4219
tp4220
a((lp4221
S'go'
p4222
aS'to'
p4223
aS'red'
p4224
aS'room'
p4225
aS'down'
p4226
aS'two'
p4227
aS'left'
p4228
aS'five'
p4229
aS'up'
p4230
aS'one'
p4231
aS'right'
p4232
aS'four'
p4233
aS'down'
p4234
aS'one'
p4235
aS'right'
p4236
aS'one'
p4237
aS'up'
p4238
aS'three'
p4239
aS'blockInRegion  roomIsBlue'
p4240
tp4241
a((lp4242
S'go'
p4243
aS'to'
p4244
aS'the'
p4245
aS'red'
p4246
aS'room'
p4247
aS'find'
p4248
aS'the'
p4249
aS'chair'
p4250
aS'and'
p4251
aS'bring'
p4252
aS'it'
p4253
aS'back'
p4254
aS'to'
p4255
aS'the'
p4256
aS'purple'
p4257
aS'room'
p4258
aS'blockInRegion  roomIsBlue'
p4259
tp4260
a((lp4261
S'move'
p4262
aS'to'
p4263
aS'the'
p4264
aS'red'
p4265
aS'room'
p4266
ag10
aS'move'
p4267
aS'the'
p4268
aS'chair'
p4269
aS'to'
p4270
aS'the'
p4271
aS'blue'
p4272
aS'room'
p4273
ag10
aS'move'
p4274
aS'to'
p4275
aS'the'
p4276
aS'red'
p4277
aS'room'
p4278
ag10
aS'move'
p4279
aS'to'
p4280
aS'the'
p4281
aS'green'
p4282
aS'room'
p4283
aS'agentInRegion  roomIsGreen blockInRegion  roomIsBlue'
p4284
tp4285
a((lp4286
S'go'
p4287
aS'to'
p4288
aS'the'
p4289
aS'red'
p4290
aS'room'
p4291
aS'push'
p4292
aS'the'
p4293
aS'red'
p4294
aS'chair'
p4295
aS'across'
p4296
aS'the'
p4297
aS'room'
p4298
aS'agentInRegion  roomIsGreen blockInRegion  roomIsBlue'
p4299
tp4300
a((lp4301
S'move'
p4302
aS'to'
p4303
aS'the'
p4304
aS'red'
p4305
aS'room'
p4306
aS'retrieve'
p4307
aS'the'
p4308
aS'chair'
p4309
aS'and'
p4310
aS'push'
p4311
aS'it'
p4312
aS'back'
p4313
aS'to'
p4314
aS'the'
p4315
aS'the'
p4316
aS'blue'
p4317
aS'room'
p4318
aS'blockInRegion  roomIsBlue'
p4319
tp4320
a((lp4321
S'go'
p4322
aS'to'
p4323
aS'the'
p4324
aS'pink'
p4325
aS'room'
p4326
aS'collect'
p4327
aS'the'
p4328
aS'chair'
p4329
aS'and'
p4330
aS'return'
p4331
aS'to'
p4332
aS'the'
p4333
aS'purple'
p4334
aS'room'
p4335
aS'blockInRegion  roomIsBlue'
p4336
tp4337
a((lp4338
S'move'
p4339
aS'to'
p4340
aS'the'
p4341
aS'red'
p4342
aS'room'
p4343
ag10
aS'then'
p4344
aS'go'
p4345
aS'to'
p4346
aS'the'
p4347
aS'green'
p4348
aS'room'
p4349
aS'agentInRegion  roomIsGreen'
p4350
tp4351
a((lp4352
S'enter'
p4353
aS'the'
p4354
aS'red'
p4355
aS'room'
p4356
aS'and'
p4357
aS'bring'
p4358
aS'the'
p4359
aS'chair'
p4360
aS'back'
p4361
aS'to'
p4362
aS'the'
p4363
aS'blue'
p4364
aS'room'
p4365
aS'blockInRegion  roomIsBlue'
p4366
tp4367
a((lp4368
S'move'
p4369
aS'to'
p4370
aS'the'
p4371
aS'red'
p4372
aS'room'
p4373
aS'agentInRegion  roomIsRed'
p4374
tp4375
a((lp4376
S'move'
p4377
aS'to'
p4378
aS'the'
p4379
aS'red'
p4380
aS'room'
p4381
aS'agentInRegion  roomIsRed'
p4382
tp4383
a((lp4384
S'go'
p4385
aS'to'
p4386
aS'the'
p4387
aS'pink'
p4388
aS'room'
p4389
aS'go'
p4390
aS'to'
p4391
aS'the'
p4392
aS'chair'
p4393
aS'go'
p4394
aS'to'
p4395
aS'the'
p4396
aS'blue'
p4397
aS'room'
p4398
aS'blockInRegion  roomIsBlue'
p4399
tp4400
a((lp4401
S'move'
p4402
aS'to'
p4403
aS'the'
p4404
aS'orange'
p4405
aS'room'
p4406
aS'agentInRegion  roomIsRed'
p4407
tp4408
a((lp4409
S'go'
p4410
aS'to'
p4411
aS'the'
p4412
aS'pink'
p4413
aS'room'
p4414
aS'agentInRegion  roomIsRed'
p4415
tp4416
a((lp4417
S'go'
p4418
aS'into'
p4419
aS'the'
p4420
aS'red'
p4421
aS'room'
p4422
aS'take'
p4423
aS'the'
p4424
aS'chair'
p4425
aS'and'
p4426
aS'carry'
p4427
aS'it'
p4428
aS'back'
p4429
aS'to'
p4430
aS'the'
p4431
aS'blue'
p4432
aS'room'
p4433
aS'blockInRegion  roomIsBlue'
p4434
tp4435
a((lp4436
S'go'
p4437
aS'to'
p4438
aS'the'
p4439
aS'red'
p4440
aS'room'
p4441
aS'and'
p4442
aS'take'
p4443
aS'the'
p4444
aS'chair'
p4445
aS'to'
p4446
aS'the'
p4447
aS'blue'
p4448
aS'room'
p4449
aS'blockInRegion  roomIsBlue'
p4450
tp4451
a((lp4452
S'go'
p4453
aS'to'
p4454
aS'the'
p4455
aS'pink'
p4456
aS'room'
p4457
aS'and'
p4458
aS'return'
p4459
aS'with'
p4460
aS'chair'
p4461
aS'leave'
p4462
aS'chair'
p4463
aS'in'
p4464
aS'blue'
p4465
aS'room'
p4466
aS'go'
p4467
aS'to'
p4468
aS'green'
p4469
aS'room'
p4470
aS'agentInRegion  roomIsGreen blockInRegion  roomIsBlue'
p4471
tp4472
a((lp4473
S'go'
p4474
aS'to'
p4475
aS'red'
p4476
aS'room'
p4477
aS'move'
p4478
aS'chair'
p4479
aS'to'
p4480
aS'blue'
p4481
aS'room'
p4482
aS'come'
p4483
aS'back'
p4484
aS'to'
p4485
aS'blue'
p4486
aS'room'
p4487
aS'agentInRegion  roomIsBlue blockInRegion  roomIsGreen'
p4488
tp4489
a((lp4490
S'bring'
p4491
aS'the'
p4492
aS'red'
p4493
aS'chair'
p4494
aS'back'
p4495
aS'to'
p4496
aS'this'
p4497
aS'room'
p4498
aS'agentInRegion  roomIsGreen blockInRegion  roomIsBlue'
p4499
tp4500
a((lp4501
S'go'
p4502
aS'to'
p4503
aS'the'
p4504
aS'pink'
p4505
aS'room'
p4506
aS'push'
p4507
aS'the'
p4508
aS'chair'
p4509
aS'into'
p4510
aS'the'
p4511
aS'blue'
p4512
aS'room'
p4513
aS'then'
p4514
aS'go'
p4515
aS'to'
p4516
aS'the'
p4517
aS'green'
p4518
aS'room'
p4519
aS'agentInRegion  roomIsGreen blockInRegion  roomIsBlue'
p4520
tp4521
a((lp4522
S'go'
p4523
aS'to'
p4524
aS'the'
p4525
aS'red'
p4526
aS'room'
p4527
aS'and'
p4528
aS'bring'
p4529
aS'the'
p4530
aS'chair'
p4531
aS'from'
p4532
aS'there'
p4533
aS'back'
p4534
aS'to'
p4535
aS'the'
p4536
aS'purple'
p4537
aS'room'
p4538
aS'blockInRegion  roomIsBlue'
p4539
tp4540
a((lp4541
S'go'
p4542
aS'to'
p4543
aS'the'
p4544
aS'pink'
p4545
aS'room'
p4546
aS'push'
p4547
aS'the'
p4548
aS'chair'
p4549
aS'into'
p4550
aS'the'
p4551
aS'blue'
p4552
aS'room'
p4553
aS'go'
p4554
aS'to'
p4555
aS'the'
p4556
aS'green'
p4557
aS'room'
p4558
aS'agentInRegion  roomIsGreen blockInRegion  roomIsBlue'
p4559
tp4560
a((lp4561
S'go'
p4562
aS'to'
p4563
aS'the'
p4564
aS'red'
p4565
aS'room'
p4566
aS'push'
p4567
aS'the'
p4568
aS'chair'
p4569
aS'to'
p4570
aS'the'
p4571
aS'blue'
p4572
aS'room'
p4573
aS'then'
p4574
aS'go'
p4575
aS'in'
p4576
aS'the'
p4577
aS'green'
p4578
aS'room'
p4579
aS'agentInRegion  roomIsGreen blockInRegion  roomIsBlue'
p4580
tp4581
a((lp4582
S'go'
p4583
aS'to'
p4584
aS'the'
p4585
aS'red'
p4586
aS'room'
p4587
aS'agentInRegion  roomIsRed'
p4588
tp4589
a((lp4590
S'move'
p4591
aS'to'
p4592
aS'the'
p4593
aS'red'
p4594
aS'room'
p4595
ag10
aS'push'
p4596
aS'the'
p4597
aS'chair'
p4598
aS'into'
p4599
aS'the'
p4600
aS'green'
p4601
aS'room'
p4602
ag10
aS'go'
p4603
aS'back'
p4604
aS'into'
p4605
aS'the'
p4606
aS'red'
p4607
aS'room'
p4608
aS'and'
p4609
aS'move'
p4610
aS'into'
p4611
aS'the'
p4612
aS'blue'
p4613
aS'room'
p4614
aS'agentInRegion  roomIsBlue blockInRegion  roomIsGreen'
p4615
tp4616
a((lp4617
S'move'
p4618
aS'to'
p4619
aS'the'
p4620
aS'pink'
p4621
aS'room'
p4622
aS'then'
p4623
aS'back'
p4624
aS'to'
p4625
aS'the'
p4626
aS'purple'
p4627
aS'room'
p4628
aS'then'
p4629
aS'into'
p4630
aS'the'
p4631
aS'green'
p4632
aS'room'
p4633
aS'agentInRegion  roomIsGreen blockInRegion  roomIsBlue'
p4634
tp4635
a((lp4636
S'move'
p4637
aS'to'
p4638
aS'red'
p4639
aS'room'
p4640
ag10
aS'go'
p4641
aS'to'
p4642
aS'chair'
p4643
ag10
aS'move'
p4644
aS'chair'
p4645
aS'to'
p4646
aS'blue'
p4647
aS'room'
p4648
ag10
aS'move'
p4649
aS'to'
p4650
aS'red'
p4651
aS'room'
p4652
ag10
aS'move'
p4653
aS'to'
p4654
aS'green'
p4655
aS'room'
p4656
aS'agentInRegion  roomIsGreen blockInRegion  roomIsBlue'
p4657
tp4658
a((lp4659
S'put'
p4660
aS'chiir'
p4661
aS'in'
p4662
aS'red'
p4663
aS'room'
p4664
aS'return'
p4665
aS'to'
p4666
aS'green'
p4667
aS'room'
p4668
aS'agentInRegion  roomIsGreen blockInRegion  roomIsBlue'
p4669
tp4670
a((lp4671
S'go'
p4672
aS'to'
p4673
aS'the'
p4674
aS'pink'
p4675
aS'room'
p4676
aS'and'
p4677
aS'push'
p4678
aS'the'
p4679
aS'chair'
p4680
aS'into'
p4681
aS'the'
p4682
aS'purple'
p4683
aS'room'
p4684
aS'blockInRegion  roomIsBlue'
p4685
tp4686
a((lp4687
S'go'
p4688
aS'south'
p4689
aS'into'
p4690
aS'the'
p4691
aS'pink'
p4692
aS'room'
p4693
aS'push'
p4694
aS'the'
p4695
aS'chair'
p4696
aS'east'
p4697
aS'and'
p4698
aS'north'
p4699
aS'into'
p4700
aS'the'
p4701
aS'blue'
p4702
aS'room'
p4703
aS'then'
p4704
aS'back'
p4705
aS'to'
p4706
aS'the'
p4707
aS'pink'
p4708
aS'room'
p4709
aS'and'
p4710
aS'into'
p4711
aS'the'
p4712
aS'green'
p4713
aS'room'
p4714
aS'agentInRegion  roomIsGreen blockInRegion  roomIsBlue'
p4715
tp4716
a((lp4717
S'bring'
p4718
aS'the'
p4719
aS'chair'
p4720
aS'to'
p4721
aS'the'
p4722
aS'blue'
p4723
aS'room'
p4724
aS'then'
p4725
aS'go'
p4726
aS'to'
p4727
aS'the'
p4728
aS'green'
p4729
aS'room'
p4730
aS'agentInRegion  roomIsGreen blockInRegion  roomIsBlue'
p4731
tp4732
a((lp4733
S'go'
p4734
aS'to'
p4735
aS'red'
p4736
aS'room'
p4737
ag10
aS'move'
p4738
aS'item'
p4739
aS'to'
p4740
aS'green'
p4741
aS'room'
p4742
ag10
aS'go'
p4743
aS'to'
p4744
aS'red'
p4745
aS'room'
p4746
ag10
aS'go'
p4747
aS'to'
p4748
aS'blue'
p4749
aS'room'
p4750
aS'agentInRegion  roomIsBlue blockInRegion  roomIsGreen'
p4751
tp4752
a((lp4753
S'go'
p4754
aS'to'
p4755
aS'the'
p4756
aS'pink'
p4757
aS'room'
p4758
aS'then'
p4759
aS'move'
p4760
aS'south'
p4761
aS'two'
p4762
aS'steps'
p4763
aS'then'
p4764
aS'move'
p4765
aS'west'
p4766
aS'five'
p4767
aS'steps'
p4768
aS'them'
p4769
aS'move'
p4770
aS'north'
p4771
aS'one'
p4772
aS'step'
p4773
aS'then'
p4774
aS'move'
p4775
aS'east'
p4776
aS'four'
p4777
aS'steps'
p4778
aS'then'
p4779
aS'move'
p4780
aS'south'
p4781
aS'one'
p4782
aS'step'
p4783
aS'move'
p4784
aS'east'
p4785
aS'one'
p4786
aS'step'
p4787
aS'then'
p4788
aS'move'
p4789
aS'north'
p4790
aS'three'
p4791
aS'steps'
p4792
aS'then'
p4793
aS'go'
p4794
aS'to'
p4795
aS'the'
p4796
aS'green'
p4797
aS'room'
p4798
aS'agentInRegion  roomIsGreen blockInRegion  roomIsBlue'
p4799
tp4800
a((lp4801
S'move'
p4802
aS'into'
p4803
aS'the'
p4804
aS'red'
p4805
aS'room'
p4806
aS'agentInRegion  roomIsRed'
p4807
tp4808
a((lp4809
S'go'
p4810
aS'to'
p4811
aS'the'
p4812
aS'orange'
p4813
aS'room'
p4814
aS'and'
p4815
aS'push'
p4816
aS'the'
p4817
aS'chair'
p4818
aS'from'
p4819
aS'the'
p4820
aS'orange'
p4821
aS'room'
p4822
aS'into'
p4823
aS'the'
p4824
aS'green'
p4825
aS'room'
p4826
ag10
aS'then'
p4827
aS'go'
p4828
aS'back'
p4829
aS'into'
p4830
aS'the'
p4831
aS'orange'
p4832
aS'room'
p4833
ag10
aS'then'
p4834
aS'go'
p4835
aS'back'
p4836
aS'to'
p4837
aS'the'
p4838
aS'purple'
p4839
aS'room'
p4840
aS'agentInRegion  roomIsBlue blockInRegion  roomIsGreen'
p4841
tp4842
a((lp4843
S'move'
p4844
aS'to'
p4845
aS'the'
p4846
aS'green'
p4847
aS'room'
p4848
aS'agentInRegion  roomIsGreen'
p4849
tp4850
a((lp4851
S'push'
p4852
aS'chair'
p4853
aS'to'
p4854
aS'green'
p4855
aS'room'
p4856
aS'then'
p4857
aS'return'
p4858
aS'to'
p4859
aS'blue'
p4860
aS'room'
p4861
aS'agentInRegion  roomIsBlue blockInRegion  roomIsGreen'
p4862
tp4863
a((lp4864
S'go'
p4865
aS'to'
p4866
aS'the'
p4867
aS'pink'
p4868
aS'room'
p4869
aS'agentInRegion  roomIsRed'
p4870
tp4871
a((lp4872
S'go'
p4873
aS'to'
p4874
aS'red'
p4875
aS'room'
p4876
aS'push'
p4877
aS'chair'
p4878
aS'to'
p4879
aS'blue'
p4880
aS'room'
p4881
aS'blockInRegion  roomIsBlue'
p4882
tp4883
a((lp4884
S'go'
p4885
aS'to'
p4886
aS'the'
p4887
aS'red'
p4888
aS'room'
p4889
aS'pick'
p4890
aS'up'
p4891
aS'the'
p4892
aS'chair'
p4893
aS'and'
p4894
aS'go'
p4895
aS'backto'
p4896
aS'the'
p4897
aS'blue'
p4898
aS'room'
p4899
aS'blockInRegion  roomIsBlue'
p4900
tp4901
a((lp4902
S'go'
p4903
aS'into'
p4904
aS'the'
p4905
aS'pink'
p4906
aS'room'
p4907
aS'push'
p4908
aS'the'
p4909
aS'chair'
p4910
aS'into'
p4911
aS'the'
p4912
aS'blue'
p4913
aS'room'
p4914
aS'blockInRegion  roomIsBlue'
p4915
tp4916
a((lp4917
S'move'
p4918
aS'to'
p4919
aS'pink'
p4920
aS'room'
p4921
aS'get'
p4922
aS'the'
p4923
aS'chair'
p4924
aS'move'
p4925
aS'to'
p4926
aS'purple'
p4927
aS'room'
p4928
aS'blockInRegion  roomIsBlue'
p4929
tp4930
a((lp4931
S'move'
p4932
aS'to'
p4933
aS'the'
p4934
aS'green'
p4935
aS'room'
p4936
aS'from'
p4937
aS'the'
p4938
aS'purple'
p4939
aS'one'
p4940
aS'agentInRegion  roomIsRed'
p4941
tp4942
a((lp4943
S'go'
p4944
aS'to'
p4945
aS'red'
p4946
aS'room'
p4947
aS'push'
p4948
aS'chair'
p4949
aS'to'
p4950
aS'green'
p4951
aS'room'
p4952
aS'blockInRegion  roomIsBlue'
p4953
tp4954
a((lp4955
S'robot'
p4956
aS'c'
p4957
ag10
aS'move'
p4958
aS'to'
p4959
aS'the'
p4960
aS'red'
p4961
aS'room'
p4962
aS'and'
p4963
aS'then'
p4964
aS'move'
p4965
aS'to'
p4966
aS'the'
p4967
aS'green'
p4968
aS'room'
p4969
aS'agentInRegion  roomIsGreen'
p4970
tp4971
a((lp4972
S'go'
p4973
aS'to'
p4974
aS'the'
p4975
aS'pink'
p4976
aS'room'
p4977
aS'and'
p4978
aS'get'
p4979
aS'behind'
p4980
aS'the'
p4981
aS'chair'
p4982
aS'before'
p4983
aS'pushing'
p4984
aS'the'
p4985
aS'chair'
p4986
aS'back'
p4987
aS'into'
p4988
aS'the'
p4989
aS'purple'
p4990
aS'room'
p4991
aS'blockInRegion  roomIsBlue'
p4992
tp4993
a((lp4994
S'go'
p4995
aS'to'
p4996
aS'the'
p4997
aS'pink'
p4998
aS'room'
p4999
aS'then'
p5000
aS'go'
p5001
aS'to'
p5002
aS'the'
p5003
aS'green'
p5004
aS'room'
p5005
aS'agentInRegion  roomIsGreen'
p5006
tp5007
a((lp5008
S'go'
p5009
aS'to'
p5010
aS'the'
p5011
aS'red'
p5012
aS'room'
p5013
aS'and'
p5014
aS'move'
p5015
aS'the'
p5016
aS'object'
p5017
aS'to'
p5018
aS'the'
p5019
aS'green'
p5020
aS'room'
p5021
aS'go'
p5022
aS'to'
p5023
aS'the'
p5024
aS'red'
p5025
aS'room'
p5026
aS'go'
p5027
aS'to'
p5028
aS'the'
p5029
aS'blue'
p5030
aS'room'
p5031
aS'agentInRegion  roomIsBlue blockInRegion  roomIsGreen'
p5032
tp5033
a((lp5034
S'go'
p5035
aS'to'
p5036
aS'the'
p5037
aS'red'
p5038
aS'room'
p5039
aS'move'
p5040
aS'the'
p5041
aS'red'
p5042
aS'chair'
p5043
aS'to'
p5044
aS'the'
p5045
aS'purple'
p5046
aS'room'
p5047
aS'blockInRegion  roomIsBlue'
p5048
tp5049
a((lp5050
S'go'
p5051
aS'to'
p5052
aS'the'
p5053
aS'green'
p5054
aS'room'
p5055
aS'agentInRegion  roomIsGreen'
p5056
tp5057
a((lp5058
S'go'
p5059
aS'to'
p5060
aS'the'
p5061
aS'pink'
p5062
aS'room'
p5063
aS'agentInRegion  roomIsRed'
p5064
tp5065
a((lp5066
S'move'
p5067
aS'to'
p5068
aS'the'
p5069
aS'red'
p5070
aS'room'
p5071
aS'agentInRegion  roomIsRed'
p5072
tp5073
a((lp5074
S'move'
p5075
aS'to'
p5076
aS'the'
p5077
aS'red'
p5078
aS'room'
p5079
aS'and'
p5080
aS'push'
p5081
aS'the'
p5082
aS'chair'
p5083
aS'into'
p5084
aS'the'
p5085
aS'blue'
p5086
aS'room'
p5087
aS'then'
p5088
aS'go'
p5089
aS'into'
p5090
aS'the'
p5091
aS'green'
p5092
aS'room'
p5093
aS'agentInRegion  roomIsGreen blockInRegion  roomIsBlue'
p5094
tp5095
a((lp5096
S'move'
p5097
aS'to'
p5098
aS'the'
p5099
aS'red'
p5100
aS'room'
p5101
aS'move'
p5102
aS'the'
p5103
aS'chair'
p5104
aS'to'
p5105
aS'the'
p5106
aS'purple'
p5107
aS'room'
p5108
aS'blockInRegion  roomIsBlue'
p5109
tp5110
a((lp5111
S'move'
p5112
aS'to'
p5113
aS'the'
p5114
aS'red'
p5115
aS'room'
p5116
aS'agentInRegion  roomIsRed'
p5117
tp5118
a((lp5119
S'go'
p5120
aS'to'
p5121
aS'the'
p5122
aS'pink'
p5123
aS'room'
p5124
aS'and'
p5125
aS'bring'
p5126
aS'the'
p5127
aS'chair'
p5128
aS'to'
p5129
aS'the'
p5130
aS'blue'
p5131
aS'room'
p5132
aS'then'
p5133
aS'go'
p5134
aS'to'
p5135
aS'the'
p5136
aS'green'
p5137
aS'room'
p5138
aS'agentInRegion  roomIsGreen blockInRegion  roomIsBlue'
p5139
tp5140
a((lp5141
S'take'
p5142
aS'the'
p5143
aS'shortest'
p5144
aS'path'
p5145
aS'so'
p5146
aS'that'
p5147
aS'you'
p5148
aS'are'
p5149
aS'underneath/below'
p5150
aS'the'
p5151
aS'backpack'
p5152
aS'then'
p5153
aS'push'
p5154
aS'the'
p5155
aS'backpack'
p5156
aS'into'
p5157
aS'the'
p5158
aS'green'
p5159
aS'room'
p5160
aS'then'
p5161
aS'take'
p5162
aS'the'
p5163
aS'shortest'
p5164
aS'route'
p5165
aS'back'
p5166
aS'to'
p5167
aS'the'
p5168
aS'initial'
p5169
aS'starting'
p5170
aS'point'
p5171
aS'in'
p5172
aS'the'
p5173
aS'blue'
p5174
aS'room'
p5175
aS'agentInRegion  roomIsBlue blockInRegion  roomIsGreen'
p5176
tp5177
a((lp5178
S'go'
p5179
aS'to'
p5180
aS'middle'
p5181
aS'of'
p5182
aS'red'
p5183
aS'room'
p5184
aS'go'
p5185
aS'below'
p5186
aS'yellow'
p5187
aS'object'
p5188
aS'go'
p5189
aS'to'
p5190
aS'green'
p5191
aS'door'
p5192
aS'go'
p5193
aS'to'
p5194
aS'blue'
p5195
aS'room'
p5196
aS'agentInRegion  roomIsBlue blockInRegion  roomIsGreen'
p5197
tp5198
a((lp5199
S'go'
p5200
aS'to'
p5201
aS'pink'
p5202
aS'room'
p5203
aS'push'
p5204
aS'chair'
p5205
aS'to'
p5206
aS'purp'
p5207
aS'room'
p5208
aS'go'
p5209
aS'to'
p5210
aS'green'
p5211
aS'room'
p5212
aS'agentInRegion  roomIsGreen blockInRegion  roomIsBlue'
p5213
tp5214
a((lp5215
S'go'
p5216
aS'to'
p5217
aS'the'
p5218
aS'chicken'
p5219
aS'go'
p5220
aS'to'
p5221
aS'the'
p5222
aS'green'
p5223
aS'room'
p5224
aS'go'
p5225
aS'to'
p5226
aS'the'
p5227
aS'blue'
p5228
aS'room'
p5229
aS'agentInRegion  roomIsBlue blockInRegion  roomIsGreen'
p5230
tp5231
a((lp5232
S'move'
p5233
aS'the'
p5234
aS'chair'
p5235
aS'in'
p5236
aS'the'
p5237
aS'red'
p5238
aS'room'
p5239
aS'to'
p5240
aS'the'
p5241
aS'blue'
p5242
aS'room'
p5243
aS'blockInRegion  roomIsBlue'
p5244
tp5245
a((lp5246
S'go'
p5247
aS'to'
p5248
aS'the'
p5249
aS'red'
p5250
aS'room'
p5251
aS'and'
p5252
aS'push'
p5253
aS'the'
p5254
aS'chair'
p5255
aS'back'
p5256
aS'to'
p5257
aS'the'
p5258
aS'blue'
p5259
aS'room'
p5260
aS'blockInRegion  roomIsBlue'
p5261
tp5262
a((lp5263
S'go'
p5264
aS'to'
p5265
aS'the'
p5266
aS'red'
p5267
aS'room'
p5268
aS'get'
p5269
aS'the'
p5270
aS'chair'
p5271
aS'then'
p5272
aS'go'
p5273
aS'to'
p5274
aS'the'
p5275
aS'blue'
p5276
aS'room'
p5277
aS'blockInRegion  roomIsBlue'
p5278
tp5279
a((lp5280
S'move'
p5281
aS'to'
p5282
aS'the'
p5283
aS'green'
p5284
aS'room'
p5285
aS'agentInRegion  roomIsGreen'
p5286
tp5287
a((lp5288
S'move'
p5289
aS'to'
p5290
aS'the'
p5291
aS'red'
p5292
aS'room'
p5293
aS'agentInRegion  roomIsRed'
p5294
tp5295
a((lp5296
S'move'
p5297
aS'to'
p5298
aS'the'
p5299
aS'red'
p5300
aS'room'
p5301
ag10
aS'stand'
p5302
aS'on'
p5303
aS'the'
p5304
aS'west'
p5305
aS'side'
p5306
aS'of'
p5307
aS'the'
p5308
aS'chair'
p5309
aS'and'
p5310
aS'push'
p5311
aS'it'
p5312
aS'to'
p5313
aS'line'
p5314
aS'up'
p5315
aS'with'
p5316
aS'the'
p5317
aS'blue'
p5318
aS'door'
p5319
ag10
aS'push'
p5320
aS'the'
p5321
aS'chair'
p5322
aS'into'
p5323
aS'the'
p5324
aS'blue'
p5325
aS'room'
p5326
ag10
aS'and'
p5327
aS'then'
p5328
aS'enter'
p5329
aS'the'
p5330
aS'green'
p5331
aS'room'
p5332
aS'agentInRegion  roomIsGreen blockInRegion  roomIsBlue'
p5333
tp5334
a((lp5335
S'go'
p5336
aS'to'
p5337
aS'red'
p5338
aS'room'
p5339
ag10
aS'bring'
p5340
aS'chair'
p5341
aS'to'
p5342
aS'green'
p5343
aS'room'
p5344
ag10
aS'go'
p5345
aS'back'
p5346
aS'to'
p5347
aS'red'
p5348
aS'room'
p5349
ag10
aS'go'
p5350
aS'back'
p5351
aS'to'
p5352
aS'purple'
p5353
aS'room'
p5354
aS'agentInRegion  roomIsBlue blockInRegion  roomIsGreen'
p5355
tp5356
a((lp5357
S'go'
p5358
aS'to'
p5359
aS'pink'
p5360
aS'room'
p5361
aS'and'
p5362
aS'move'
p5363
aS'chair'
p5364
aS'to'
p5365
aS'blue'
p5366
aS'room'
p5367
aS'agentInRegion  roomIsGreen blockInRegion  roomIsBlue'
p5368
tp5369
a((lp5370
S'go'
p5371
aS'to'
p5372
aS'the'
p5373
aS'red'
p5374
aS'room'
p5375
aS'and'
p5376
aS'then'
p5377
aS'go'
p5378
aS'to'
p5379
aS'the'
p5380
aS'green'
p5381
aS'room'
p5382
aS'agentInRegion  roomIsGreen'
p5383
tp5384
a((lp5385
S'go'
p5386
aS'the'
p5387
aS'red'
p5388
aS'room'
p5389
ag10
aS'get'
p5390
aS'dog'
p5391
aS'and'
p5392
aS'go'
p5393
aS'back'
p5394
aS'to'
p5395
aS'blue'
p5396
aS'room'
p5397
aS'blockInRegion  roomIsBlue'
p5398
tp5399
a((lp5400
S'go'
p5401
aS'to'
p5402
aS'the'
p5403
aS'red'
p5404
aS'room'
p5405
aS'get'
p5406
aS'the'
p5407
aS'chair'
p5408
aS'return'
p5409
aS'to'
p5410
aS'the'
p5411
aS'blue'
p5412
aS'room'
p5413
aS'blockInRegion  roomIsBlue'
p5414
tp5415
a((lp5416
S'go'
p5417
aS'to'
p5418
aS'the'
p5419
aS'green'
p5420
aS'room'
p5421
aS'agentInRegion  roomIsGreen'
p5422
tp5423
a((lp5424
S'go'
p5425
aS'to'
p5426
aS'red'
p5427
aS'room'
p5428
aS'agentInRegion  roomIsRed'
p5429
tp5430
a((lp5431
S'take'
p5432
aS'the'
p5433
aS'chair'
p5434
aS'in'
p5435
aS'the'
p5436
aS'red'
p5437
aS'room'
p5438
aS'to'
p5439
aS'the'
p5440
aS'purple'
p5441
aS'room'
p5442
aS'then'
p5443
aS'go'
p5444
aS'to'
p5445
aS'the'
p5446
aS'green'
p5447
aS'room'
p5448
aS'agentInRegion  roomIsGreen blockInRegion  roomIsBlue'
p5449
tp5450
a((lp5451
S'go'
p5452
aS'to'
p5453
aS'the'
p5454
aS'red'
p5455
aS'room'
p5456
aS'agentInRegion  roomIsRed'
p5457
tp5458
a((lp5459
S'move'
p5460
aS'to'
p5461
aS'the'
p5462
aS'pink'
p5463
aS'room'
p5464
aS'agentInRegion  roomIsRed'
p5465
tp5466
a((lp5467
S'go'
p5468
aS'into'
p5469
aS'the'
p5470
aS'green'
p5471
aS'room'
p5472
aS'agentInRegion  roomIsGreen'
p5473
tp5474
a((lp5475
S'move'
p5476
aS'to'
p5477
aS'the'
p5478
aS'pink'
p5479
aS'room'
p5480
aS'go'
p5481
aS'to'
p5482
aS'the'
p5483
aS'west'
p5484
aS'wall'
p5485
aS'push'
p5486
aS'the'
p5487
aS'chair'
p5488
aS'to'
p5489
aS'the'
p5490
aS'door'
p5491
aS'and'
p5492
aS'then'
p5493
aS'go'
p5494
aS'to'
p5495
aS'the'
p5496
aS'green'
p5497
aS'room'
p5498
aS'agentInRegion  roomIsGreen blockInRegion  roomIsBlue'
p5499
tp5500
a((lp5501
S'push'
p5502
aS'the'
p5503
aS'object'
p5504
aS'from'
p5505
aS'the'
p5506
aS'red'
p5507
aS'room'
p5508
aS'into'
p5509
aS'the'
p5510
aS'green'
p5511
aS'room'
p5512
aS'and'
p5513
aS'then'
p5514
aS'return'
p5515
aS'to'
p5516
aS'the'
p5517
aS'blue'
p5518
aS'room'
p5519
aS'agentInRegion  roomIsBlue blockInRegion  roomIsGreen'
p5520
tp5521
a((lp5522
S'move'
p5523
aS'to'
p5524
aS'the'
p5525
aS'red'
p5526
aS'room'
p5527
aS'and'
p5528
aS'push'
p5529
aS'the'
p5530
aS'chair'
p5531
aS'back'
p5532
aS'into'
p5533
aS'the'
p5534
aS'blue'
p5535
aS'room'
p5536
aS'blockInRegion  roomIsBlue'
p5537
tp5538
a((lp5539
S'go'
p5540
aS'into'
p5541
aS'the'
p5542
aS'red'
p5543
aS'room'
p5544
aS'grab'
p5545
aS'the'
p5546
aS'chair'
p5547
aS'and'
p5548
aS'take'
p5549
aS'it'
p5550
aS'to'
p5551
aS'the'
p5552
aS'blue'
p5553
aS'room'
p5554
aS';'
p5555
aS'then'
p5556
aS'go'
p5557
aS'to'
p5558
aS'the'
p5559
aS'green'
p5560
aS'room'
p5561
aS'agentInRegion  roomIsGreen blockInRegion  roomIsBlue'
p5562
tp5563
a((lp5564
S'move'
p5565
aS'to'
p5566
aS'green'
p5567
aS'room'
p5568
aS'agentInRegion  roomIsGreen'
p5569
tp5570
a((lp5571
S'move'
p5572
aS'to'
p5573
aS'the'
p5574
aS'red'
p5575
aS'room'
p5576
aS'and'
p5577
aS'push'
p5578
aS'the'
p5579
aS'chair'
p5580
aS'into'
p5581
aS'the'
p5582
aS'purple'
p5583
aS'room'
p5584
aS'exit'
p5585
aS'the'
p5586
aS'purple'
p5587
aS'room'
p5588
aS'and'
p5589
aS'enter'
p5590
aS'the'
p5591
aS'green'
p5592
aS'room'
p5593
aS'agentInRegion  roomIsGreen blockInRegion  roomIsBlue'
p5594
tp5595
a((lp5596
S'push'
p5597
aS'the'
p5598
aS'object'
p5599
aS'in'
p5600
aS'the'
p5601
aS'red'
p5602
aS'room'
p5603
aS'into'
p5604
aS'the'
p5605
aS'green'
p5606
aS'room'
p5607
aS'then'
p5608
aS'return'
p5609
aS'to'
p5610
aS'the'
p5611
aS'blue'
p5612
aS'room'
p5613
aS'agentInRegion  roomIsBlue blockInRegion  roomIsGreen'
p5614
tp5615
a((lp5616
S'go'
p5617
aS'to'
p5618
aS'the'
p5619
aS'green'
p5620
aS'room'
p5621
aS'agentInRegion  roomIsGreen'
p5622
tp5623
a((lp5624
S'go'
p5625
aS'to'
p5626
aS'the'
p5627
aS'red'
p5628
aS'rooma'
p5629
aS'nd'
p5630
aS'push'
p5631
aS'the'
p5632
aS'object'
p5633
aS'into'
p5634
aS'the'
p5635
aS'green'
p5636
aS'room'
p5637
aS'agentInRegion  roomIsGreen'
p5638
tp5639
a((lp5640
S'go'
p5641
aS'to'
p5642
aS'the'
p5643
aS'red'
p5644
aS'room'
p5645
aS'and'
p5646
aS'push'
p5647
aS'the'
p5648
aS'red'
p5649
aS'chair'
p5650
aS'into'
p5651
aS'the'
p5652
aS'purple'
p5653
aS'room'
p5654
aS'and'
p5655
aS'then'
p5656
aS'go'
p5657
aS'to'
p5658
aS'the'
p5659
aS'green'
p5660
aS'room'
p5661
aS'agentInRegion  roomIsGreen blockInRegion  roomIsBlue'
p5662
tp5663
a((lp5664
S'please'
p5665
aS'take'
p5666
aS'the'
p5667
aS'chair'
p5668
aS'and'
p5669
aS'go'
p5670
aS'to'
p5671
aS'green'
p5672
aS'room'
p5673
aS'agentInRegion  roomIsRed'
p5674
tp5675
a((lp5676
S'go'
p5677
aS'into'
p5678
aS'the'
p5679
aS'pink'
p5680
aS'room'
p5681
aS'push'
p5682
aS'the'
p5683
aS'chair'
p5684
aS'into'
p5685
aS'the'
p5686
aS'blue'
p5687
aS'room'
p5688
aS'go'
p5689
aS'through'
p5690
aS'the'
p5691
aS'pink'
p5692
aS'room'
p5693
aS'and'
p5694
aS'into'
p5695
aS'the'
p5696
aS'green'
p5697
aS'room'
p5698
aS'agentInRegion  roomIsGreen blockInRegion  roomIsBlue'
p5699
tp5700
a((lp5701
S'go'
p5702
aS'to'
p5703
aS'the'
p5704
aS'red'
p5705
aS'room'
p5706
aS'push'
p5707
aS'the'
p5708
aS'red'
p5709
aS'chair'
p5710
aS'to'
p5711
aS'the'
p5712
aS'other'
p5713
aS'side'
p5714
aS'of'
p5715
aS'the'
p5716
aS'room'
p5717
aS'blockInRegion  roomIsBlue'
p5718
tp5719
a((lp5720
S'go'
p5721
aS'to'
p5722
aS'the'
p5723
aS'pink'
p5724
aS'room'
p5725
aS'move'
p5726
aS'the'
p5727
aS'chair'
p5728
aS'to'
p5729
aS'the'
p5730
aS'purple'
p5731
aS'room'
p5732
aS'then'
p5733
aS'move'
p5734
aS'to'
p5735
aS'the'
p5736
aS'green'
p5737
aS'room'
p5738
aS'agentInRegion  roomIsGreen blockInRegion  roomIsBlue'
p5739
tp5740
a((lp5741
S'move'
p5742
aS'to'
p5743
aS'the'
p5744
aS'red'
p5745
aS'room'
p5746
ag10
aS'push'
p5747
aS'the'
p5748
aS'chair'
p5749
aS'into'
p5750
aS'the'
p5751
aS'blue'
p5752
aS'room'
p5753
aS'blockInRegion  roomIsBlue'
p5754
tp5755
a((lp5756
S'move'
p5757
aS'to'
p5758
aS'the'
p5759
aS'pink'
p5760
aS'room'
p5761
aS'and'
p5762
aS'stop'
p5763
aS'after'
p5764
aS'entering'
p5765
aS'agentInRegion  roomIsRed'
p5766
tp5767
a((lp5768
S'go'
p5769
aS'to'
p5770
aS'the'
p5771
aS'red'
p5772
aS'room'
p5773
aS'move'
p5774
aS'the'
p5775
aS'chair'
p5776
aS'to'
p5777
aS'the'
p5778
aS'blue'
p5779
aS'room'
p5780
aS'then'
p5781
aS'go'
p5782
aS'to'
p5783
aS'the'
p5784
aS'green'
p5785
aS'room'
p5786
aS'agentInRegion  roomIsGreen blockInRegion  roomIsBlue'
p5787
tp5788
a((lp5789
S'push'
p5790
aS'the'
p5791
aS'chair'
p5792
aS'to'
p5793
aS'the'
p5794
aS'blue'
p5795
aS'room'
p5796
aS'and'
p5797
aS'you'
p5798
aS'go'
p5799
aS'to'
p5800
aS'the'
p5801
aS'green'
p5802
aS'room'
p5803
aS'agentInRegion  roomIsGreen blockInRegion  roomIsBlue'
p5804
tp5805
a((lp5806
S'move'
p5807
aS'to'
p5808
aS'the'
p5809
aS'green'
p5810
aS'room'
p5811
aS'agentInRegion  roomIsGreen'
p5812
tp5813
a((lp5814
S'move'
p5815
aS'to'
p5816
aS'red'
p5817
aS'room'
p5818
aS'go'
p5819
aS'down'
p5820
aS'down'
p5821
aS'down'
p5822
aS'left'
p5823
aS'left'
p5824
aS'left'
p5825
aS'left'
p5826
aS'up'
p5827
aS'right'
p5828
aS'right'
p5829
aS'right'
p5830
aS'right'
p5831
aS'down'
p5832
aS'right'
p5833
aS'up'
p5834
aS'up'
p5835
aS'up'
p5836
aS'go'
p5837
aS'to'
p5838
aS'green'
p5839
aS'room'
p5840
aS'agentInRegion  roomIsGreen blockInRegion  roomIsBlue'
p5841
tp5842
a((lp5843
S'go'
p5844
aS'to'
p5845
aS'the'
p5846
aS'red'
p5847
aS'room'
p5848
aS'agentInRegion  roomIsRed'
p5849
tp5850
a((lp5851
S'go'
p5852
aS'to'
p5853
aS'the'
p5854
aS'red'
p5855
aS'room'
p5856
ag10
aS'then'
p5857
aS'the'
p5858
aS'green'
p5859
aS'room'
p5860
aS'and'
p5861
aS'back'
p5862
aS'to'
p5863
aS'the'
p5864
aS'red'
p5865
aS'room'
p5866
ag10
aS'then'
p5867
aS'the'
p5868
aS'blue'
p5869
aS'room'
p5870
aS'agentInRegion  roomIsBlue blockInRegion  roomIsGreen'
p5871
tp5872
a((lp5873
S'go'
p5874
aS'to'
p5875
aS'the'
p5876
aS'red'
p5877
aS'room'
p5878
aS'then'
p5879
aS'go'
p5880
aS'to'
p5881
aS'the'
p5882
aS'green'
p5883
aS'room'
p5884
aS'agentInRegion  roomIsGreen'
p5885
tp5886
a((lp5887
S'move'
p5888
aS'from'
p5889
aS'blue'
p5890
aS'room'
p5891
aS'to'
p5892
aS'red'
p5893
aS'room'
p5894
aS'then'
p5895
aS'move'
p5896
aS'to'
p5897
aS'green'
p5898
aS'room'
p5899
aS'agentInRegion  roomIsGreen'
p5900
tp5901
a((lp5902
S'go'
p5903
aS'to'
p5904
aS'pink'
p5905
aS'room'
p5906
aS'bring'
p5907
aS'chair'
p5908
aS'to'
p5909
aS'blue'
p5910
aS'room'
p5911
aS'blockInRegion  roomIsBlue'
p5912
tp5913
a((lp5914
S'go'
p5915
aS'to'
p5916
aS'the'
p5917
aS'pink'
p5918
aS'room'
p5919
aS'agentInRegion  roomIsRed'
p5920
tp5921
a((lp5922
S'move'
p5923
aS'to'
p5924
aS'the'
p5925
aS'red'
p5926
aS'room'
p5927
aS'move'
p5928
aS'the'
p5929
aS'chair'
p5930
aS'to'
p5931
aS'the'
p5932
aS'purple'
p5933
aS'room'
p5934
aS'move'
p5935
aS'to'
p5936
aS'the'
p5937
aS'green'
p5938
aS'room'
p5939
aS'agentInRegion  roomIsGreen blockInRegion  roomIsBlue'
p5940
tp5941
a((lp5942
S'push'
p5943
aS'the'
p5944
aS'chair'
p5945
aS'into'
p5946
aS'the'
p5947
aS'blue'
p5948
aS'room'
p5949
aS'and'
p5950
aS'you'
p5951
aS'go'
p5952
aS'to'
p5953
aS'the'
p5954
aS'green'
p5955
aS'room'
p5956
aS'agentInRegion  roomIsGreen blockInRegion  roomIsBlue'
p5957
tp5958
a((lp5959
S'move'
p5960
aS'to'
p5961
aS'the'
p5962
aS'red'
p5963
aS'room'
p5964
aS'agentInRegion  roomIsRed'
p5965
tp5966
a((lp5967
S'go'
p5968
aS'to'
p5969
aS'the'
p5970
aS'red'
p5971
aS'room'
p5972
aS'and'
p5973
aS'push'
p5974
aS'the'
p5975
aS'toy'
p5976
aS'into'
p5977
aS'the'
p5978
aS'green'
p5979
aS'room'
p5980
aS'go'
p5981
aS'back'
p5982
aS'to'
p5983
aS'the'
p5984
aS'purple'
p5985
aS'room'
p5986
aS'agentInRegion  roomIsBlue blockInRegion  roomIsGreen'
p5987
tp5988
a((lp5989
S'push'
p5990
aS'the'
p5991
aS'bag'
p5992
aS'into'
p5993
aS'the'
p5994
aS'green'
p5995
aS'room'
p5996
aS'and'
p5997
aS'return'
p5998
aS'to'
p5999
aS'the'
p6000
aS'blue'
p6001
aS'room'
p6002
aS'agentInRegion  roomIsBlue blockInRegion  roomIsGreen'
p6003
tp6004
a((lp6005
S'go'
p6006
aS'to'
p6007
aS'the'
p6008
aS'red'
p6009
aS'room'
p6010
aS'go'
p6011
aS'to'
p6012
aS'the'
p6013
aS'red'
p6014
aS'chair'
p6015
aS'agentInRegion  roomIsRed'
p6016
tp6017
a((lp6018
S'move'
p6019
aS'to'
p6020
aS'the'
p6021
aS'pink'
p6022
aS'room'
p6023
aS'agentInRegion  roomIsRed'
p6024
tp6025
a((lp6026
S'push'
p6027
aS'the'
p6028
aS'chair'
p6029
aS'into'
p6030
aS'the'
p6031
aS'blue'
p6032
aS'room'
p6033
aS'blockInRegion  roomIsBlue'
p6034
tp6035
a((lp6036
S'go'
p6037
aS'to'
p6038
aS'pink'
p6039
aS'room'
p6040
aS'agentInRegion  roomIsRed'
p6041
tp6042
a((lp6043
S'go'
p6044
aS'to'
p6045
aS'red'
p6046
aS'room'
p6047
aS'and'
p6048
aS'move'
p6049
aS'red'
p6050
aS'chair'
p6051
aS'to'
p6052
aS'blue'
p6053
aS'room'
p6054
aS'blockInRegion  roomIsBlue'
p6055
tp6056
a((lp6057
S'go'
p6058
aS'the'
p6059
aS'red'
p6060
aS'room'
p6061
aS'go'
p6062
aS'behind'
p6063
aS'the'
p6064
aS'yellow'
p6065
aS'object'
p6066
aS'go'
p6067
aS'to'
p6068
aS'the'
p6069
aS'green'
p6070
aS'room'
p6071
aS'go'
p6072
aS'to'
p6073
aS'the'
p6074
aS'blue'
p6075
aS'room'
p6076
aS'agentInRegion  roomIsBlue blockInRegion  roomIsGreen'
p6077
tp6078
a((lp6079
S'go'
p6080
aS'to'
p6081
aS'red'
p6082
aS'room'
p6083
ag10
aS'go'
p6084
aS'to'
p6085
aS'bottom'
p6086
aS'of'
p6087
aS'object'
p6088
ag10
aS'push'
p6089
aS'object'
p6090
aS'to'
p6091
aS'green'
p6092
aS'room'
p6093
ag10
aS'go'
p6094
aS'to'
p6095
aS'red'
p6096
aS'room'
p6097
ag10
aS'go'
p6098
aS'to'
p6099
aS'blue'
p6100
aS'room'
p6101
aS'agentInRegion  roomIsBlue blockInRegion  roomIsGreen'
p6102
tp6103
a((lp6104
S'move'
p6105
aS'to'
p6106
aS'the'
p6107
aS'red'
p6108
aS'room'
p6109
aS'move'
p6110
aS'to'
p6111
aS'the'
p6112
aS'chair'
p6113
aS'move'
p6114
aS'the'
p6115
aS'chair'
p6116
aS'into'
p6117
aS'the'
p6118
aS'blue'
p6119
aS'room'
p6120
aS'blockInRegion  roomIsBlue'
p6121
tp6122
a((lp6123
S'move'
p6124
aS'to'
p6125
aS'red'
p6126
aS'room'
p6127
aS'agentInRegion  roomIsRed'
p6128
tp6129
a((lp6130
S'go'
p6131
aS'to'
p6132
aS'the'
p6133
aS'green'
p6134
aS'room'
p6135
aS'agentInRegion  roomIsGreen'
p6136
tp6137
a((lp6138
S'move'
p6139
aS'to'
p6140
aS'the'
p6141
aS'red'
p6142
aS'room'
p6143
aS'agentInRegion  roomIsRed'
p6144
tp6145
a((lp6146
S'go'
p6147
aS'into'
p6148
aS'the'
p6149
aS'red'
p6150
aS'room'
p6151
aS'and'
p6152
aS'then'
p6153
aS'into'
p6154
aS'the'
p6155
aS'green'
p6156
aS'room'
p6157
aS'agentInRegion  roomIsGreen'
p6158
tp6159
a((lp6160
S'go'
p6161
aS'to'
p6162
aS'red'
p6163
aS'room'
p6164
ag10
aS'slide'
p6165
aS'chair'
p6166
aS'twordas'
p6167
aS'you'
p6168
aS'and'
p6169
aS'come'
p6170
aS'back'
p6171
aS'agentInRegion  roomIsGreen blockInRegion  roomIsBlue'
p6172
tp6173
a((lp6174
S'bring'
p6175
aS'the'
p6176
aS'chair'
p6177
aS'in'
p6178
aS'the'
p6179
aS'room'
p6180
aS'and'
p6181
aS'go'
p6182
aS'to'
p6183
aS'the'
p6184
aS'other'
p6185
aS'room'
p6186
aS'agentInRegion  roomIsGreen blockInRegion  roomIsBlue'
p6187
tp6188
a((lp6189
S'move'
p6190
aS'to'
p6191
aS'the'
p6192
aS'red'
p6193
aS'room'
p6194
aS'agentInRegion  roomIsRed'
p6195
tp6196
a((lp6197
S'go'
p6198
aS'to'
p6199
aS'the'
p6200
aS'red'
p6201
aS'room'
p6202
ag10
aS'push'
p6203
aS'the'
p6204
aS'chair'
p6205
aS'across'
p6206
aS'the'
p6207
aS'red'
p6208
aS'room'
p6209
aS'into'
p6210
aS'the'
p6211
aS'blue'
p6212
aS'room'
p6213
ag10
aS'go'
p6214
aS'back'
p6215
aS'to'
p6216
aS'the'
p6217
aS'red'
p6218
aS'room'
p6219
aS'then'
p6220
aS'enter'
p6221
aS'the'
p6222
aS'green'
p6223
aS'room'
p6224
aS'agentInRegion  roomIsGreen blockInRegion  roomIsBlue'
p6225
tp6226
a((lp6227
S'go'
p6228
aS'from'
p6229
aS'the'
p6230
aS'blue'
p6231
aS'room'
p6232
aS'to'
p6233
aS'the'
p6234
aS'red'
p6235
aS'room'
p6236
ag10
aS'and'
p6237
aS'then'
p6238
aS'go'
p6239
aS'from'
p6240
aS'the'
p6241
aS'red'
p6242
aS'room'
p6243
aS'to'
p6244
aS'the'
p6245
aS'green'
p6246
aS'room'
p6247
aS'agentInRegion  roomIsGreen'
p6248
tp6249
a((lp6250
S'move'
p6251
aS'to'
p6252
aS'red'
p6253
aS'room'
p6254
aS'agentInRegion  roomIsRed'
p6255
tp6256
a((lp6257
S'go'
p6258
aS'to'
p6259
aS'the'
p6260
aS'pink'
p6261
aS'room'
p6262
ag10
aS'go'
p6263
aS'to'
p6264
aS'the'
p6265
aS'chair'
p6266
ag10
aS'go'
p6267
aS'to'
p6268
aS'the'
p6269
aS'green'
p6270
aS'room'
p6271
ag10
aS'go'
p6272
aS'to'
p6273
aS'the'
p6274
aS'pink'
p6275
aS'room'
p6276
ag10
aS'go'
p6277
aS'to'
p6278
aS'the'
p6279
aS'blue'
p6280
aS'room'
p6281
aS'agentInRegion  roomIsBlue blockInRegion  roomIsGreen'
p6282
tp6283
a((lp6284
S'move'
p6285
aS'to'
p6286
aS'the'
p6287
aS'red'
p6288
aS'room'
p6289
aS'move'
p6290
aS'the'
p6291
aS'chair'
p6292
aS'to'
p6293
aS'the'
p6294
aS'blue'
p6295
aS'room'
p6296
aS'blockInRegion  roomIsBlue'
p6297
tp6298
a((lp6299
S'move'
p6300
aS'into'
p6301
aS'the'
p6302
aS'red'
p6303
aS'room'
p6304
aS'agentInRegion  roomIsRed'
p6305
tp6306
a((lp6307
S'go'
p6308
aS'to'
p6309
aS'the'
p6310
aS'red'
p6311
aS'room'
p6312
aS'then'
p6313
aS'push'
p6314
aS'the'
p6315
aS'chair'
p6316
aS'into'
p6317
aS'the'
p6318
aS'blue'
p6319
aS'room'
p6320
aS'leave'
p6321
aS'the'
p6322
aS'chair'
p6323
aS'and'
p6324
aS'go'
p6325
aS'to'
p6326
aS'the'
p6327
aS'red'
p6328
aS'room'
p6329
aS'then'
p6330
aS'go'
p6331
aS'to'
p6332
aS'the'
p6333
aS'green'
p6334
aS'room'
p6335
aS'agentInRegion  roomIsGreen blockInRegion  roomIsBlue'
p6336
tp6337
a((lp6338
S'go'
p6339
aS'to'
p6340
aS'the'
p6341
aS'pink'
p6342
aS'room'
p6343
ag10
aS'go'
p6344
aS'to'
p6345
aS'the'
p6346
aS'chair'
p6347
ag10
aS'go'
p6348
aS'back'
p6349
aS'to'
p6350
aS'the'
p6351
aS'blue'
p6352
aS'room'
p6353
aS'agentInRegion  roomIsGreen blockInRegion  roomIsBlue'
p6354
tp6355
a((lp6356
S'move'
p6357
aS'to'
p6358
aS'the'
p6359
aS'red'
p6360
aS'room'
p6361
aS'agentInRegion  roomIsRed'
p6362
tp6363
a((lp6364
S'go'
p6365
aS'to'
p6366
aS'the'
p6367
aS'pink'
p6368
aS'room'
p6369
aS'agentInRegion  roomIsRed'
p6370
tp6371
a((lp6372
S'go'
p6373
aS'down'
p6374
aS'to'
p6375
aS'the'
p6376
aS'other'
p6377
aS'room'
p6378
aS'and'
p6379
aS'bring'
p6380
aS'the'
p6381
aS'chair'
p6382
aS'to'
p6383
aS'this'
p6384
aS'room'
p6385
aS'blockInRegion  roomIsBlue'
p6386
tp6387
a((lp6388
S'go'
p6389
aS'to'
p6390
aS'the'
p6391
aS'pink'
p6392
aS'room'
p6393
ag10
aS'go'
p6394
aS'to'
p6395
aS'the'
p6396
aS'green'
p6397
aS'room'
p6398
aS'agentInRegion  roomIsGreen'
p6399
tp6400
a((lp6401
S'go'
p6402
aS'into'
p6403
aS'the'
p6404
aS'red'
p6405
aS'room'
p6406
aS'then'
p6407
aS'push'
p6408
aS'the'
p6409
aS'chair'
p6410
aS'into'
p6411
aS'the'
p6412
aS'blue'
p6413
aS'room'
p6414
aS'then'
p6415
aS'go'
p6416
aS'through'
p6417
aS'the'
p6418
aS'red'
p6419
aS'room'
p6420
aS'into'
p6421
aS'the'
p6422
aS'green'
p6423
aS'room'
p6424
aS'agentInRegion  roomIsGreen blockInRegion  roomIsBlue'
p6425
tp6426
a((lp6427
S'go'
p6428
aS'into'
p6429
aS'the'
p6430
aS'red'
p6431
aS'room'
p6432
aS'agentInRegion  roomIsRed'
p6433
tp6434
a((lp6435
S'move'
p6436
aS'to'
p6437
aS'the'
p6438
aS'red'
p6439
aS'room'
p6440
aS'and'
p6441
aS'push'
p6442
aS'the'
p6443
aS'object'
p6444
aS'to'
p6445
aS'the'
p6446
aS'green'
p6447
aS'room'
p6448
aS'agentInRegion  roomIsBlue blockInRegion  roomIsGreen'
p6449
tp6450
a((lp6451
S'go'
p6452
aS'into'
p6453
aS'the'
p6454
aS'red'
p6455
aS'room'
p6456
aS'and'
p6457
aS'move'
p6458
aS'the'
p6459
aS'chair'
p6460
aS'to'
p6461
aS'the'
p6462
aS'blue'
p6463
aS'room'
p6464
aS'blockInRegion  roomIsBlue'
p6465
tp6466
a((lp6467
S'move'
p6468
aS'to'
p6469
aS'pink'
p6470
aS'room'
p6471
aS'get'
p6472
aS'the'
p6473
aS'chair'
p6474
aS'move'
p6475
aS'to'
p6476
aS'purple'
p6477
aS'room'
p6478
aS'place'
p6479
aS'the'
p6480
aS'chair'
p6481
aS'and'
p6482
aS'go'
p6483
aS'to'
p6484
aS'green'
p6485
aS'room'
p6486
aS'agentInRegion  roomIsGreen blockInRegion  roomIsBlue'
p6487
tp6488
a((lp6489
S'move'
p6490
aS'to'
p6491
aS'red'
p6492
aS'room'
p6493
ag10
aS'move'
p6494
aS'to'
p6495
aS'green'
p6496
aS'room'
p6497
aS'agentInRegion  roomIsGreen'
p6498
tp6499
a((lp6500
S'leave'
p6501
aS'the'
p6502
aS'blue'
p6503
aS'room'
p6504
aS'and'
p6505
aS'go'
p6506
aS'to'
p6507
aS'the'
p6508
aS'pink'
p6509
aS'room'
p6510
aS'and'
p6511
aS'from'
p6512
aS'there'
p6513
aS'go'
p6514
aS'to'
p6515
aS'the'
p6516
aS'green'
p6517
aS'room'
p6518
aS'agentInRegion  roomIsGreen'
p6519
tp6520
a((lp6521
S'go'
p6522
aS'to'
p6523
aS'the'
p6524
aS'pink'
p6525
aS'room'
p6526
aS'and'
p6527
aS'bring'
p6528
aS'the'
p6529
aS'chair'
p6530
aS'to'
p6531
aS'the'
p6532
aS'blue'
p6533
aS'room'
p6534
aS'blockInRegion  roomIsBlue'
p6535
tp6536
a((lp6537
S'go'
p6538
aS'to'
p6539
aS'red'
p6540
aS'room'
p6541
ag10
aS'go'
p6542
aS'to'
p6543
aS'back'
p6544
aS'of'
p6545
aS'chair'
p6546
ag10
aS'go'
p6547
aS'towards'
p6548
aS'blue'
p6549
aS'room'
p6550
aS'but'
p6551
aS'stop'
p6552
aS'before'
p6553
aS'it'
p6554
ag10
aS'go'
p6555
aS'to'
p6556
aS'bottom'
p6557
aS'of'
p6558
aS'chair'
p6559
ag10
aS'go'
p6560
aS'to'
p6561
aS'blue'
p6562
aS'room'
p6563
aS'blockInRegion  roomIsBlue'
p6564
tp6565
a((lp6566
S'go'
p6567
aS'to'
p6568
aS'red'
p6569
aS'room'
p6570
ag10
aS'go'
p6571
aS'to'
p6572
aS'back'
p6573
aS'of'
p6574
aS'chair'
p6575
ag10
aS'go'
p6576
aS'towards'
p6577
aS'blue'
p6578
aS'room'
p6579
aS'but'
p6580
aS'stop'
p6581
aS'before'
p6582
aS'it'
p6583
ag10
aS'go'
p6584
aS'to'
p6585
aS'bottom'
p6586
aS'of'
p6587
aS'chair'
p6588
ag10
aS'go'
p6589
aS'to'
p6590
aS'blue'
p6591
aS'room'
p6592
ag10
aS'go'
p6593
aS'to'
p6594
aS'red'
p6595
aS'room'
p6596
ag10
aS'go'
p6597
aS'to'
p6598
aS'green'
p6599
aS'room'
p6600
aS'agentInRegion  roomIsGreen blockInRegion  roomIsBlue'
p6601
tp6602
a((lp6603
S'go'
p6604
aS'to'
p6605
aS'the'
p6606
aS'red'
p6607
aS'room'
p6608
aS'grab'
p6609
aS'the'
p6610
aS'chair'
p6611
aS'come'
p6612
aS'back'
p6613
aS'to'
p6614
aS'the'
p6615
aS'green'
p6616
aS'room'
p6617
aS'blockInRegion  roomIsBlue'
p6618
tp6619
a((lp6620
S'go'
p6621
aS'to'
p6622
aS'the'
p6623
aS'red'
p6624
aS'room'
p6625
aS'agentInRegion  roomIsRed'
p6626
tp6627
a((lp6628
S'move'
p6629
aS'to'
p6630
aS'the'
p6631
aS'red'
p6632
aS'room'
p6633
aS'push'
p6634
aS'the'
p6635
aS'chair'
p6636
aS'into'
p6637
aS'the'
p6638
aS'blue'
p6639
aS'room'
p6640
aS'move'
p6641
aS'to'
p6642
aS'the'
p6643
aS'green'
p6644
aS'room'
p6645
aS'agentInRegion  roomIsGreen blockInRegion  roomIsBlue'
p6646
tp6647
a((lp6648
S'go'
p6649
aS'to'
p6650
aS'red'
p6651
aS'room'
p6652
aS'push'
p6653
aS'item'
p6654
aS'to'
p6655
aS'green'
p6656
aS'room'
p6657
aS'go'
p6658
aS'to'
p6659
aS'blue'
p6660
aS'room'
p6661
aS'agentInRegion  roomIsBlue blockInRegion  roomIsGreen'
p6662
tp6663
a((lp6664
S'go'
p6665
aS'to'
p6666
aS'the'
p6667
aS'red'
p6668
aS'room'
p6669
aS'and'
p6670
aS'get'
p6671
aS'behind'
p6672
aS'the'
p6673
aS'chair'
p6674
aS'and'
p6675
aS'push'
p6676
aS'it'
p6677
aS'to'
p6678
aS'the'
p6679
aS'blue'
p6680
aS'room'
p6681
aS'blockInRegion  roomIsBlue'
p6682
tp6683
a((lp6684
S'go'
p6685
aS'into'
p6686
aS'red'
p6687
aS'room'
p6688
aS'get'
p6689
aS'chair'
p6690
aS'go'
p6691
aS'into'
p6692
aS'blue'
p6693
aS'room'
p6694
aS'blockInRegion  roomIsBlue'
p6695
tp6696
a((lp6697
S'go'
p6698
aS'down'
p6699
aS'three'
p6700
aS'steps'
p6701
aS'to'
p6702
aS'move'
p6703
aS'to'
p6704
aS'other'
p6705
aS'room'
p6706
aS'agentInRegion  roomIsRed'
p6707
tp6708
a((lp6709
S'go'
p6710
aS'to'
p6711
aS'the'
p6712
aS'green'
p6713
aS'room'
p6714
aS'agentInRegion  roomIsGreen'
p6715
tp6716
a((lp6717
S'go'
p6718
aS'inside'
p6719
aS'the'
p6720
aS'red'
p6721
aS'room'
p6722
ag144
aS'go'
p6723
aS'behind'
p6724
aS'the'
p6725
aS'chair'
p6726
ag144
aS'move'
p6727
aS'the'
p6728
aS'chair'
p6729
aS'right'
p6730
aS'until'
p6731
aS'it'
p6732
aS"'s"
p6733
aS'below'
p6734
aS'the'
p6735
aS'blue'
p6736
aS'door'
p6737
ag144
aS'go'
p6738
aS'below'
p6739
aS'the'
p6740
aS'chair'
p6741
ag144
aS'go'
p6742
aS'through'
p6743
aS'the'
p6744
aS'blue'
p6745
aS'door'
p6746
aS'blockInRegion  roomIsBlue'
p6747
tp6748
a((lp6749
S'go'
p6750
aS'to'
p6751
aS'the'
p6752
aS'red'
p6753
aS'room'
p6754
aS'agentInRegion  roomIsRed'
p6755
tp6756
a((lp6757
S'go'
p6758
aS'into'
p6759
aS'the'
p6760
aS'red'
p6761
aS'room'
p6762
ag10
aS'push'
p6763
aS'the'
p6764
aS'chair'
p6765
aS'into'
p6766
aS'the'
p6767
aS'green'
p6768
aS'room'
p6769
ag10
aS'go'
p6770
aS'back'
p6771
aS'into'
p6772
aS'the'
p6773
aS'red'
p6774
aS'room'
p6775
aS'and'
p6776
aS'enter'
p6777
aS'the'
p6778
aS'blue'
p6779
aS'room'
p6780
aS'agentInRegion  roomIsBlue blockInRegion  roomIsGreen'
p6781
tp6782
a((lp6783
S'move'
p6784
aS'to'
p6785
aS'the'
p6786
aS'red'
p6787
aS'room'
p6788
aS'agentInRegion  roomIsRed'
p6789
tp6790
a((lp6791
S'get'
p6792
aS'the'
p6793
aS'chair'
p6794
aS'and'
p6795
aS'bring'
p6796
aS'it'
p6797
aS'back'
p6798
aS'here'
p6799
aS'blockInRegion  roomIsBlue'
p6800
tp6801
a((lp6802
S'go'
p6803
aS'to'
p6804
aS'red'
p6805
aS'room'
p6806
aS'get'
p6807
aS'the'
p6808
aS'chair'
p6809
aS'go'
p6810
aS'back'
p6811
aS'to'
p6812
aS'purple'
p6813
aS'room'
p6814
aS'blockInRegion  roomIsBlue'
p6815
tp6816
a((lp6817
S'go'
p6818
aS'to'
p6819
aS'the'
p6820
aS'pink'
p6821
aS'room'
p6822
aS'and'
p6823
aS'get'
p6824
aS'the'
p6825
aS'chair'
p6826
aS'and'
p6827
aS'bring'
p6828
aS'the'
p6829
aS'chair'
p6830
aS'to'
p6831
aS'the'
p6832
aS'blue'
p6833
aS'room'
p6834
aS'blockInRegion  roomIsBlue'
p6835
tp6836
a((lp6837
S'go'
p6838
aS'into'
p6839
aS'the'
p6840
aS'red'
p6841
aS'room'
p6842
aS'and'
p6843
aS'push'
p6844
aS'the'
p6845
aS'chair'
p6846
aS'into'
p6847
aS'the'
p6848
aS'blue'
p6849
aS'room'
p6850
aS'then'
p6851
aS'go'
p6852
aS'into'
p6853
aS'the'
p6854
aS'green'
p6855
aS'room'
p6856
aS'agentInRegion  roomIsGreen blockInRegion  roomIsBlue'
p6857
tp6858
a((lp6859
S'go'
p6860
aS'to'
p6861
aS'the'
p6862
aS'pink'
p6863
aS'room'
p6864
aS'go'
p6865
aS'to'
p6866
aS'the'
p6867
aS'chair'
p6868
aS'go'
p6869
aS'to'
p6870
aS'the'
p6871
aS'blue'
p6872
aS'room'
p6873
aS'go'
p6874
aS'to'
p6875
aS'the'
p6876
aS'green'
p6877
aS'room'
p6878
aS'agentInRegion  roomIsGreen blockInRegion  roomIsBlue'
p6879
tp6880
a((lp6881
S'go'
p6882
aS'to'
p6883
aS'the'
p6884
aS'red'
p6885
aS'room'
p6886
ag10
aS'go'
p6887
aS'to'
p6888
aS'the'
p6889
aS'green'
p6890
aS'room'
p6891
aS'agentInRegion  roomIsGreen'
p6892
tp6893
a((lp6894
S'go'
p6895
aS'to'
p6896
aS'the'
p6897
aS'red'
p6898
aS'room'
p6899
aS'and'
p6900
aS'bring'
p6901
aS'the'
p6902
aS'chair'
p6903
aS'back'
p6904
aS'to'
p6905
aS'the'
p6906
aS'purple'
p6907
aS'room'
p6908
aS'then'
p6909
aS'make'
p6910
aS'your'
p6911
aS'way'
p6912
aS'to'
p6913
aS'the'
p6914
aS'green'
p6915
aS'room'
p6916
aS'agentInRegion  roomIsGreen blockInRegion  roomIsBlue'
p6917
tp6918
a((lp6919
S'go'
p6920
aS'from'
p6921
aS'the'
p6922
aS'blue'
p6923
aS'room'
p6924
aS'to'
p6925
aS'the'
p6926
aS'red'
p6927
aS'room'
p6928
ag10
aS'then'
p6929
aS'push'
p6930
aS'the'
p6931
aS'chair'
p6932
aS'into'
p6933
aS'the'
p6934
aS'blue'
p6935
aS'room'
p6936
ag10
aS'then'
p6937
aS'return'
p6938
aS'to'
p6939
aS'the'
p6940
aS'red'
p6941
aS'room'
p6942
aS'and'
p6943
aS'then'
p6944
aS'go'
p6945
aS'into'
p6946
aS'the'
p6947
aS'green'
p6948
aS'room'
p6949
aS'agentInRegion  roomIsGreen blockInRegion  roomIsBlue'
p6950
tp6951
a((lp6952
S'move'
p6953
aS'to'
p6954
aS'green'
p6955
aS'room'
p6956
aS'agentInRegion  roomIsGreen'
p6957
tp6958
a((lp6959
S'move'
p6960
aS'pink'
p6961
aS'move'
p6962
aS'purple'
p6963
aS'move'
p6964
aS'pink'
p6965
aS'move'
p6966
aS'green'
p6967
aS'agentInRegion  roomIsGreen blockInRegion  roomIsBlue'
p6968
tp6969
a((lp6970
S'go'
p6971
aS'into'
p6972
aS'the'
p6973
aS'red'
p6974
aS'room'
p6975
aS'bring'
p6976
aS'the'
p6977
aS'chair'
p6978
aS'into'
p6979
aS'the'
p6980
aS'blue'
p6981
aS'room'
p6982
aS'then'
p6983
aS'go'
p6984
aS'into'
p6985
aS'the'
p6986
aS'red'
p6987
aS'room'
p6988
aS'then'
p6989
aS'go'
p6990
aS'into'
p6991
aS'the'
p6992
aS'green'
p6993
aS'room'
p6994
aS'agentInRegion  roomIsGreen blockInRegion  roomIsBlue'
p6995
tp6996
a((lp6997
S'go'
p6998
aS'to'
p6999
aS'the'
p7000
aS'green'
p7001
aS'room'
p7002
aS'agentInRegion  roomIsGreen'
p7003
tp7004
a((lp7005
S'move'
p7006
aS'into'
p7007
aS'the'
p7008
aS'red'
p7009
aS'room'
p7010
aS'get'
p7011
aS'to'
p7012
aS'the'
p7013
aS'left'
p7014
aS'of'
p7015
aS'the'
p7016
aS'chair'
p7017
aS'and'
p7018
aS'push'
p7019
aS'the'
p7020
aS'chair'
p7021
aS'back'
p7022
aS'up'
p7023
aS'into'
p7024
aS'the'
p7025
aS'blue'
p7026
aS'room'
p7027
aS'blockInRegion  roomIsBlue'
p7028
tp7029
a((lp7030
S'leave'
p7031
aS'the'
p7032
aS'purple'
p7033
aS'room'
p7034
aS'and'
p7035
aS'go'
p7036
aS'to'
p7037
aS'the'
p7038
aS'green'
p7039
aS'room'
p7040
aS'agentInRegion  roomIsGreen'
p7041
tp7042
a((lp7043
S'go'
p7044
aS'to'
p7045
aS'red'
p7046
aS'room'
p7047
aS'get'
p7048
aS'chair'
p7049
aS'move'
p7050
aS'chair'
p7051
aS'to'
p7052
aS'purple'
p7053
aS'room'
p7054
aS'go'
p7055
aS'to'
p7056
aS'red'
p7057
aS'room'
p7058
aS'go'
p7059
aS'to'
p7060
aS'green'
p7061
aS'room'
p7062
aS'agentInRegion  roomIsGreen blockInRegion  roomIsBlue'
p7063
tp7064
a((lp7065
S'move'
p7066
aS'to'
p7067
aS'the'
p7068
aS'red'
p7069
aS'room'
p7070
ag10
aS'then'
p7071
aS'grasp'
p7072
aS'the'
p7073
aS'backpack'
p7074
ag10
aS'then'
p7075
aS'move'
p7076
aS'to'
p7077
aS'the'
p7078
aS'green'
p7079
aS'room'
p7080
ag10
aS'then'
p7081
aS'release'
p7082
aS'the'
p7083
aS'backpack'
p7084
ag10
aS'then'
p7085
aS'move'
p7086
aS'to'
p7087
aS'the'
p7088
aS'red'
p7089
aS'room'
p7090
ag10
aS'then'
p7091
aS'move'
p7092
aS'to'
p7093
aS'the'
p7094
aS'blue'
p7095
aS'room'
p7096
aS'agentInRegion  roomIsBlue blockInRegion  roomIsGreen'
p7097
tp7098
a((lp7099
S'move'
p7100
aS'to'
p7101
aS'the'
p7102
aS'pink'
p7103
aS'room'
p7104
aS'push'
p7105
aS'the'
p7106
aS'chair'
p7107
aS'to'
p7108
aS'the'
p7109
aS'purple'
p7110
aS'room'
p7111
aS'blockInRegion  roomIsBlue'
p7112
tp7113
a((lp7114
S'go'
p7115
aS'to'
p7116
aS'the'
p7117
aS'red'
p7118
aS'room'
p7119
aS'agentInRegion  roomIsRed'
p7120
tp7121
a((lp7122
S'go'
p7123
aS'in'
p7124
aS'door'
p7125
aS'ahead'
p7126
aS'agentInRegion  roomIsRed'
p7127
tp7128
a((lp7129
S'go'
p7130
aS'into'
p7131
aS'the'
p7132
aS'pink'
p7133
aS'room'
p7134
aS'agentInRegion  roomIsRed'
p7135
tp7136
a((lp7137
S'go'
p7138
aS'to'
p7139
aS'the'
p7140
aS'other'
p7141
aS'room'
p7142
aS'agentInRegion  roomIsGreen'
p7143
tp7144
a((lp7145
S'move'
p7146
aS'the'
p7147
aS'chair'
p7148
aS'into'
p7149
aS'the'
p7150
aS'room'
p7151
aS'agentInRegion  roomIsGreen blockInRegion  roomIsBlue'
p7152
tp7153
a((lp7154
S'go'
p7155
aS'to'
p7156
aS'the'
p7157
aS'green'
p7158
aS'room'
p7159
aS'agentInRegion  roomIsGreen'
p7160
tp7161
a((lp7162
S'go'
p7163
aS'the'
p7164
aS'the'
p7165
aS'red'
p7166
aS'room'
p7167
ag10
aS'go'
p7168
aS'to'
p7169
aS'the'
p7170
aS'left'
p7171
aS'of'
p7172
aS'the'
p7173
aS'chair'
p7174
ag10
aS'go'
p7175
aS'to'
p7176
aS'the'
p7177
aS'right'
p7178
aS'side'
p7179
aS'of'
p7180
aS'the'
p7181
aS'room'
p7182
ag10
aS'go'
p7183
aS'to'
p7184
aS'the'
p7185
aS'bottom'
p7186
aS'of'
p7187
aS'the'
p7188
aS'chair'
p7189
ag10
aS'go'
p7190
aS'to'
p7191
aS'the'
p7192
aS'blue'
p7193
aS'room'
p7194
ag10
aS'go'
p7195
aS'to'
p7196
aS'the'
p7197
aS'red'
p7198
aS'room'
p7199
ag10
aS'go'
p7200
aS'to'
p7201
aS'the'
p7202
aS'green'
p7203
aS'room'
p7204
aS'agentInRegion  roomIsGreen blockInRegion  roomIsBlue'
p7205
tp7206
a((lp7207
S'go'
p7208
aS'to'
p7209
aS'the'
p7210
aS'red'
p7211
aS'room'
p7212
aS'push'
p7213
aS'the'
p7214
aS'chair'
p7215
aS'into'
p7216
aS'the'
p7217
aS'blue'
p7218
aS'room'
p7219
aS'and'
p7220
aS'finally'
p7221
aS'go'
p7222
aS'into'
p7223
aS'the'
p7224
aS'green'
p7225
aS'room'
p7226
aS'agentInRegion  roomIsGreen blockInRegion  roomIsBlue'
p7227
tp7228
a((lp7229
S'go'
p7230
aS'into'
p7231
aS'the'
p7232
aS'red'
p7233
aS'room'
p7234
aS'and'
p7235
aS'push'
p7236
aS'the'
p7237
aS'yellow'
p7238
aS'chair'
p7239
aS'into'
p7240
aS'the'
p7241
aS'green'
p7242
aS'room'
p7243
ag10
aS'then'
p7244
aS'come'
p7245
aS'back'
p7246
aS'to'
p7247
aS'blue'
p7248
aS'room'
p7249
aS'agentInRegion  roomIsBlue blockInRegion  roomIsGreen'
p7250
tp7251
a((lp7252
S'go'
p7253
aS'to'
p7254
aS'the'
p7255
aS'pink'
p7256
aS'room'
p7257
aS'and'
p7258
aS'push'
p7259
aS'the'
p7260
aS'chair'
p7261
aS'back'
p7262
aS'to'
p7263
aS'the'
p7264
aS'purple'
p7265
aS'room'
p7266
aS'before'
p7267
aS'going'
p7268
aS'to'
p7269
aS'the'
p7270
aS'green'
p7271
aS'room'
p7272
aS'agentInRegion  roomIsGreen blockInRegion  roomIsBlue'
p7273
tp7274
a((lp7275
S'go'
p7276
aS'to'
p7277
aS'the'
p7278
aS'red'
p7279
aS'room'
p7280
aS'then'
p7281
aS'get'
p7282
aS'the'
p7283
aS'chair'
p7284
aS'then'
p7285
aS'go'
p7286
aS'back'
p7287
aS'to'
p7288
aS'the'
p7289
aS'blue'
p7290
aS'room'
p7291
aS'then'
p7292
aS'go'
p7293
aS'into'
p7294
aS'the'
p7295
aS'green'
p7296
aS'room'
p7297
aS'agentInRegion  roomIsGreen blockInRegion  roomIsBlue'
p7298
tp7299
a((lp7300
S'move'
p7301
aS'to'
p7302
aS'the'
p7303
aS'red'
p7304
aS'room'
p7305
aS'move'
p7306
aS'to'
p7307
aS'the'
p7308
aS'chair'
p7309
aS'move'
p7310
aS'the'
p7311
aS'chair'
p7312
aS'into'
p7313
aS'the'
p7314
aS'blue'
p7315
aS'room'
p7316
aS'move'
p7317
aS'to'
p7318
aS'the'
p7319
aS'green'
p7320
aS'room'
p7321
aS'agentInRegion  roomIsGreen blockInRegion  roomIsBlue'
p7322
tp7323
a((lp7324
S'put'
p7325
aS'object'
p7326
aS'into'
p7327
aS'green'
p7328
aS'room'
p7329
aS'and'
p7330
aS'then'
p7331
aS'go'
p7332
aS'back'
p7333
aS'to'
p7334
aS'blue'
p7335
aS'room'
p7336
aS'agentInRegion  roomIsBlue blockInRegion  roomIsGreen'
p7337
tp7338
a((lp7339
S'enter'
p7340
aS'the'
p7341
aS'pink'
p7342
aS'room'
p7343
aS'then'
p7344
aS'push'
p7345
aS'the'
p7346
aS'chair'
p7347
aS'into'
p7348
aS'the'
p7349
aS'blue'
p7350
aS'room'
p7351
aS'blockInRegion  roomIsBlue'
p7352
tp7353
a((lp7354
S'go'
p7355
aS'to'
p7356
aS'the'
p7357
aS'red'
p7358
aS'room'
p7359
aS'agentInRegion  roomIsRed'
p7360
tp7361
a((lp7362
S'go'
p7363
aS'to'
p7364
aS'the'
p7365
aS'red'
p7366
aS'room'
p7367
aS'take'
p7368
aS'the'
p7369
aS'object'
p7370
aS'there'
p7371
aS'come'
p7372
aS'back'
p7373
aS'to'
p7374
aS'the'
p7375
aS'previous'
p7376
aS'room'
p7377
aS'blockInRegion  roomIsBlue'
p7378
tp7379
a((lp7380
S'go'
p7381
aS'to'
p7382
aS'the'
p7383
aS'red'
p7384
aS'room'
p7385
ag10
aS'then'
p7386
aS'the'
p7387
aS'green'
p7388
aS'room'
p7389
aS'agentInRegion  roomIsGreen'
p7390
tp7391
a((lp7392
S'push'
p7393
aS'chair'
p7394
aS'to'
p7395
aS'blue'
p7396
aS'room'
p7397
aS'then'
p7398
aS'go'
p7399
aS'to'
p7400
aS'green'
p7401
aS'room'
p7402
aS'agentInRegion  roomIsGreen blockInRegion  roomIsBlue'
p7403
tp7404
a((lp7405
S'go'
p7406
aS'to'
p7407
aS'the'
p7408
aS'pink'
p7409
aS'room'
p7410
aS'agentInRegion  roomIsRed'
p7411
tp7412
a((lp7413
S'push'
p7414
aS'the'
p7415
aS'object'
p7416
aS'into'
p7417
aS'the'
p7418
aS'green'
p7419
aS'room'
p7420
aS'and'
p7421
aS'then'
p7422
aS'return'
p7423
aS'to'
p7424
aS'the'
p7425
aS'blue'
p7426
aS'room'
p7427
aS'agentInRegion  roomIsBlue blockInRegion  roomIsGreen'
p7428
tp7429
a((lp7430
S'go'
p7431
aS'to'
p7432
aS'the'
p7433
aS'red'
p7434
aS'room'
p7435
aS'agentInRegion  roomIsRed'
p7436
tp7437
a((lp7438
S'go'
p7439
aS'to'
p7440
aS'red'
p7441
aS'room'
p7442
aS'move'
p7443
aS'chair'
p7444
aS'to'
p7445
aS'blue'
p7446
aS'room'
p7447
aS'blockInRegion  roomIsBlue'
p7448
tp7449
a((lp7450
S'go'
p7451
aS'to'
p7452
aS'the'
p7453
aS'green'
p7454
aS'room'
p7455
aS'agentInRegion  roomIsBlue blockInRegion  roomIsGreen'
p7456
tp7457
a((lp7458
S'go'
p7459
aS'to'
p7460
aS'red'
p7461
aS'room'
p7462
aS'agentInRegion  roomIsRed'
p7463
tp7464
a((lp7465
S'go'
p7466
aS'to'
p7467
aS'the'
p7468
aS'orange'
p7469
aS'room'
p7470
aS'take'
p7471
aS'the'
p7472
aS'chair'
p7473
aS'and'
p7474
aS'push'
p7475
aS'it'
p7476
aS'back'
p7477
aS'into'
p7478
aS'the'
p7479
aS'purple'
p7480
aS'room'
p7481
aS'blockInRegion  roomIsBlue'
p7482
tp7483
a((lp7484
S'go'
p7485
aS'to'
p7486
aS'the'
p7487
aS'red'
p7488
aS'room'
p7489
aS'agentInRegion  roomIsRed'
p7490
tp7491
a((lp7492
S'move'
p7493
aS'to'
p7494
aS'the'
p7495
aS'red'
p7496
aS'room'
p7497
aS'then'
p7498
aS'move'
p7499
aS'to'
p7500
aS'the'
p7501
aS'green'
p7502
aS'room'
p7503
aS'agentInRegion  roomIsGreen'
p7504
tp7505
a((lp7506
S'move'
p7507
aS'to'
p7508
aS'the'
p7509
aS'red'
p7510
aS'room'
p7511
aS'agentInRegion  roomIsRed'
p7512
tp7513
a((lp7514
S'go'
p7515
aS'to'
p7516
aS'the'
p7517
aS'red'
p7518
aS'room'
p7519
aS'agentInRegion  roomIsRed'
p7520
tp7521
a((lp7522
S'go'
p7523
aS'to'
p7524
aS'the'
p7525
aS'red'
p7526
aS'room'
p7527
ag10
aS'push'
p7528
aS'the'
p7529
aS'red'
p7530
aS'chair'
p7531
aS'back'
p7532
aS'into'
p7533
aS'the'
p7534
aS'green'
p7535
aS'room'
p7536
aS'blockInRegion  roomIsBlue'
p7537
tp7538
a((lp7539
S'move'
p7540
aS'the'
p7541
aS'chair'
p7542
aS'from'
p7543
aS'the'
p7544
aS'red'
p7545
aS'room'
p7546
aS'to'
p7547
aS'the'
p7548
aS'blue'
p7549
aS'room'
p7550
aS'blockInRegion  roomIsBlue'
p7551
tp7552
a((lp7553
S'go'
p7554
aS'south'
p7555
aS'through'
p7556
aS'door'
p7557
aS'till'
p7558
aS'you'
p7559
aS'reach'
p7560
aS'a'
p7561
aS'wall'
p7562
aS'go'
p7563
aS'west'
p7564
aS'until'
p7565
aS'you'
p7566
aS'reach'
p7567
aS'another'
p7568
aS'wall'
p7569
aS'go'
p7570
aS'north'
p7571
aS'one'
p7572
aS'pace'
p7573
aS'and'
p7574
aS'then'
p7575
aS'east'
p7576
aS'four'
p7577
aS'paces'
p7578
aS'south'
p7579
aS'one'
p7580
aS'pace'
p7581
aS'east'
p7582
aS'one'
p7583
aS'pace'
p7584
aS'then'
p7585
aS'north'
p7586
aS'four'
p7587
aS'paces'
p7588
aS'through'
p7589
aS'door'
p7590
aS'south'
p7591
aS'one'
p7592
aS'pace'
p7593
aS'through'
p7594
aS'door'
p7595
aS'west'
p7596
aS'four'
p7597
aS'paces'
p7598
aS'and'
p7599
aS'north'
p7600
aS'two'
p7601
aS'paces'
p7602
aS'through'
p7603
aS'door'
p7604
aS'agentInRegion  roomIsGreen blockInRegion  roomIsBlue'
p7605
tp7606
a((lp7607
S'go'
p7608
aS'to'
p7609
aS'the'
p7610
aS'red'
p7611
aS'room'
p7612
aS'agentInRegion  roomIsRed'
p7613
tp7614
a((lp7615
S'move'
p7616
aS'to'
p7617
aS'the'
p7618
aS'red'
p7619
aS'room'
p7620
aS'then'
p7621
aS'move'
p7622
aS'the'
p7623
aS'chair'
p7624
aS'to'
p7625
aS'the'
p7626
aS'blue'
p7627
aS'room'
p7628
aS'blockInRegion  roomIsBlue'
p7629
tp7630
a((lp7631
S'move'
p7632
aS'to'
p7633
aS'the'
p7634
aS'pink'
p7635
aS'room'
p7636
aS'agentInRegion  roomIsRed'
p7637
tp7638
a((lp7639
S'go'
p7640
aS'to'
p7641
aS'the'
p7642
aS'red'
p7643
aS'room'
p7644
aS'and'
p7645
aS'then'
p7646
aS'the'
p7647
aS'green'
p7648
aS'room'
p7649
aS'agentInRegion  roomIsGreen'
p7650
tp7651
a((lp7652
S'put'
p7653
aS'backpack'
p7654
aS'in'
p7655
aS'green'
p7656
aS'room'
p7657
aS'and'
p7658
aS'return'
p7659
aS'to'
p7660
aS'blue'
p7661
aS'room'
p7662
aS'agentInRegion  roomIsBlue blockInRegion  roomIsGreen'
p7663
tp7664
a((lp7665
S'go'
p7666
aS'to'
p7667
aS'the'
p7668
aS'pink'
p7669
aS'room'
p7670
aS'agentInRegion  roomIsRed'
p7671
tp7672
a((lp7673
S'go'
p7674
aS'to'
p7675
aS'the'
p7676
aS'pink'
p7677
aS'room'
p7678
aS'and'
p7679
aS'push'
p7680
aS'the'
p7681
aS'chair'
p7682
aS'in'
p7683
aS'the'
p7684
aS'pink'
p7685
aS'room'
p7686
aS'into'
p7687
aS'the'
p7688
aS'purple'
p7689
aS'room'
p7690
aS'blockInRegion  roomIsBlue'
p7691
tp7692
a((lp7693
S'move'
p7694
aS'to'
p7695
aS'the'
p7696
aS'green'
p7697
aS'room'
p7698
aS'agentInRegion  roomIsGreen blockInRegion  roomIsBlue'
p7699
tp7700
a((lp7701
S'move'
p7702
aS'to'
p7703
aS'pink'
p7704
aS'room'
p7705
aS'agentInRegion  roomIsRed'
p7706
tp7707
a((lp7708
S'push'
p7709
aS'the'
p7710
aS'chair'
p7711
aS'into'
p7712
aS'the'
p7713
aS'blue'
p7714
aS'room'
p7715
aS'then'
p7716
aS'go'
p7717
aS'into'
p7718
aS'the'
p7719
aS'green'
p7720
aS'room'
p7721
aS'agentInRegion  roomIsGreen blockInRegion  roomIsBlue'
p7722
tp7723
a((lp7724
S'move'
p7725
aS'down'
p7726
aS'the'
p7727
aS'hall'
p7728
aS'into'
p7729
aS'the'
p7730
aS'red'
p7731
aS'room'
p7732
aS'agentInRegion  roomIsRed'
p7733
tp7734
a((lp7735
S'go'
p7736
aS'to'
p7737
aS'red'
p7738
aS'room'
p7739
ag10
aS'push'
p7740
aS'robot'
p7741
aS'to'
p7742
aS'green'
p7743
aS'room'
p7744
ag10
aS'go'
p7745
aS'back'
p7746
aS'to'
p7747
aS'blue'
p7748
aS'room'
p7749
aS'agentInRegion  roomIsBlue blockInRegion  roomIsGreen'
p7750
tp7751
a((lp7752
S'go'
p7753
aS'to'
p7754
aS'the'
p7755
aS'red'
p7756
aS'room'
p7757
aS'get'
p7758
aS'the'
p7759
aS'char'
p7760
aS'com'
p7761
aS'back'
p7762
aS'now'
p7763
aS'go'
p7764
aS'to'
p7765
aS'the'
p7766
aS'green'
p7767
aS'room'
p7768
aS'agentInRegion  roomIsGreen blockInRegion  roomIsBlue'
p7769
tp7770
a((lp7771
S'go'
p7772
aS'to'
p7773
aS'the'
p7774
aS'pink'
p7775
aS'room'
p7776
aS'and'
p7777
aS'push'
p7778
aS'the'
p7779
aS'chair'
p7780
aS'into'
p7781
aS'the'
p7782
aS'blue'
p7783
aS'room'
p7784
ag10
aS'then'
p7785
aS'go'
p7786
aS'back'
p7787
aS'to'
p7788
aS'the'
p7789
aS'pink'
p7790
aS'room'
p7791
aS'and'
p7792
aS'enter'
p7793
aS'the'
p7794
aS'green'
p7795
aS'room'
p7796
aS'agentInRegion  roomIsGreen blockInRegion  roomIsBlue'
p7797
tp7798
a((lp7799
S'go'
p7800
aS'from'
p7801
aS'the'
p7802
aS'blue'
p7803
aS'room'
p7804
aS'into'
p7805
aS'the'
p7806
aS'red'
p7807
aS'room'
p7808
aS'agentInRegion  roomIsRed'
p7809
tp7810
a((lp7811
S'go'
p7812
aS'to'
p7813
aS'the'
p7814
aS'red'
p7815
aS'room'
p7816
aS'agentInRegion  roomIsRed'
p7817
tp7818
a((lp7819
S'go'
p7820
aS'to'
p7821
aS'the'
p7822
aS'red'
p7823
aS'room'
p7824
aS'agentInRegion  roomIsRed'
p7825
tp7826
a((lp7827
S'move'
p7828
aS'into'
p7829
aS'the'
p7830
aS'red'
p7831
aS'room'
p7832
aS'agentInRegion  roomIsRed'
p7833
tp7834
a((lp7835
S'move'
p7836
aS'to'
p7837
aS'the'
p7838
aS'red'
p7839
aS'room'
p7840
ag10
aS'move'
p7841
aS'the'
p7842
aS'object'
p7843
aS'into'
p7844
aS'the'
p7845
aS'green'
p7846
aS'room'
p7847
ag10
aS'then'
p7848
aS'go'
p7849
aS'back'
p7850
aS'from'
p7851
aS'the'
p7852
aS'red'
p7853
aS'room'
p7854
aS'to'
p7855
aS'the'
p7856
aS'blue'
p7857
aS'room'
p7858
aS'agentInRegion  roomIsBlue blockInRegion  roomIsGreen'
p7859
tp7860
a((lp7861
S'enter'
p7862
aS'the'
p7863
aS'red'
p7864
aS'room'
p7865
ag10
aS'go'
p7866
aS'to'
p7867
aS'the'
p7868
aS'chair'
p7869
ag10
aS'push'
p7870
aS'the'
p7871
aS'chair'
p7872
aS'across'
p7873
aS'the'
p7874
aS'red'
p7875
aS'room'
p7876
ag10
aS'then'
p7877
aS'push'
p7878
aS'it'
p7879
aS'into'
p7880
aS'the'
p7881
aS'blue'
p7882
aS'room'
p7883
aS'blockInRegion  roomIsBlue'
p7884
tp7885
a((lp7886
S'move'
p7887
aS'to'
p7888
aS'red'
p7889
aS'room'
p7890
aS'then'
p7891
aS'move'
p7892
aS'to'
p7893
aS'green'
p7894
aS'room'
p7895
aS'agentInRegion  roomIsGreen'
p7896
tp7897
a((lp7898
S'go'
p7899
aS'to'
p7900
aS'the'
p7901
aS'green'
p7902
aS'room'
p7903
aS'agentInRegion  roomIsGreen'
p7904
tp7905
a((lp7906
S'go'
p7907
aS'to'
p7908
aS'pink'
p7909
aS'room'
p7910
aS'walk'
p7911
aS'go'
p7912
aS'to'
p7913
aS'green'
p7914
aS'room'
p7915
aS'agentInRegion  roomIsGreen'
p7916
tp7917
a((lp7918
S'move'
p7919
aS'to'
p7920
aS'the'
p7921
aS'red'
p7922
aS'room'
p7923
aS'and'
p7924
aS'push'
p7925
aS'the'
p7926
aS'chair'
p7927
aS'back'
p7928
aS'into'
p7929
aS'the'
p7930
aS'blue'
p7931
aS'room'
p7932
aS'blockInRegion  roomIsBlue'
p7933
tp7934
a((lp7935
S'go'
p7936
aS'to'
p7937
aS'the'
p7938
aS'red'
p7939
aS'room'
p7940
aS'then'
p7941
aS'push'
p7942
aS'the'
p7943
aS'chair'
p7944
aS'into'
p7945
aS'the'
p7946
aS'blue'
p7947
aS'room'
p7948
aS'blockInRegion  roomIsBlue'
p7949
tp7950
a((lp7951
S'go'
p7952
aS'into'
p7953
aS'the'
p7954
aS'red'
p7955
aS'room'
p7956
aS'and'
p7957
aS'move'
p7958
aS'the'
p7959
aS'chair'
p7960
aS'into'
p7961
aS'the'
p7962
aS'blue'
p7963
aS'room'
p7964
aS'blockInRegion  roomIsBlue'
p7965
tp7966
a((lp7967
S'move'
p7968
aS'the'
p7969
aS'chair'
p7970
aS'from'
p7971
aS'the'
p7972
aS'red'
p7973
aS'room'
p7974
aS'into'
p7975
aS'the'
p7976
aS'blue'
p7977
aS'room'
p7978
aS'blockInRegion  roomIsBlue'
p7979
tp7980
a((lp7981
S'go'
p7982
aS'to'
p7983
aS'the'
p7984
aS'pink'
p7985
aS'room'
p7986
aS'and'
p7987
aS'move'
p7988
aS'the'
p7989
aS'chair'
p7990
aS'to'
p7991
aS'the'
p7992
aS'blue'
p7993
aS'room'
p7994
aS'blockInRegion  roomIsBlue'
p7995
tp7996
a((lp7997
S'go'
p7998
aS'the'
p7999
aS'the'
p8000
aS'red'
p8001
aS'room'
p8002
ag10
aS'go'
p8003
aS'to'
p8004
aS'the'
p8005
aS'left'
p8006
aS'of'
p8007
aS'the'
p8008
aS'chair'
p8009
ag10
aS'go'
p8010
aS'to'
p8011
aS'the'
p8012
aS'right'
p8013
aS'side'
p8014
aS'of'
p8015
aS'the'
p8016
aS'room'
p8017
ag10
aS'go'
p8018
aS'to'
p8019
aS'the'
p8020
aS'bottom'
p8021
aS'of'
p8022
aS'the'
p8023
aS'chair'
p8024
ag10
aS'go'
p8025
aS'to'
p8026
aS'the'
p8027
aS'blue'
p8028
aS'room'
p8029
aS'blockInRegion  roomIsBlue'
p8030
tp8031
a((lp8032
S'go'
p8033
aS'into'
p8034
aS'the'
p8035
aS'red'
p8036
aS'room'
p8037
aS'and'
p8038
aS'push'
p8039
aS'the'
p8040
aS'chair'
p8041
aS'into'
p8042
aS'the'
p8043
aS'purple'
p8044
aS'room'
p8045
aS'blockInRegion  roomIsBlue'
p8046
tp8047
a((lp8048
S'go'
p8049
aS'to'
p8050
aS'the'
p8051
aS'red'
p8052
aS'room'
p8053
aS'then'
p8054
aS'push'
p8055
aS'the'
p8056
aS'chair'
p8057
aS'into'
p8058
aS'the'
p8059
aS'blue'
p8060
aS'room'
p8061
aS'blockInRegion  roomIsBlue'
p8062
tp8063
a((lp8064
S'grab'
p8065
aS'the'
p8066
aS'red'
p8067
aS'chair'
p8068
aS'come'
p8069
aS'back'
p8070
aS'to'
p8071
aS'the'
p8072
aS'blue'
p8073
aS'room'
p8074
aS'agentInRegion  roomIsGreen blockInRegion  roomIsBlue'
p8075
tp8076
a((lp8077
S'go'
p8078
aS'to'
p8079
aS'the'
p8080
aS'orange'
p8081
aS'room'
p8082
aS'push'
p8083
aS'the'
p8084
aS'red'
p8085
aS'chair'
p8086
aS'into'
p8087
aS'the'
p8088
aS'purple'
p8089
aS'room'
p8090
aS'then'
p8091
aS'go'
p8092
aS'back'
p8093
aS'to'
p8094
aS'the'
p8095
aS'orange'
p8096
aS'room'
p8097
aS'and'
p8098
aS'go'
p8099
aS'into'
p8100
aS'the'
p8101
aS'green'
p8102
aS'room'
p8103
aS'agentInRegion  roomIsGreen blockInRegion  roomIsBlue'
p8104
tp8105
a((lp8106
S'go'
p8107
aS'from'
p8108
aS'the'
p8109
aS'purple'
p8110
aS'room'
p8111
aS'to'
p8112
aS'the'
p8113
aS'pink'
p8114
aS'room'
p8115
aS'go'
p8116
aS'behind'
p8117
aS'the'
p8118
aS'chair'
p8119
aS'and'
p8120
aS'push'
p8121
aS'the'
p8122
aS'chair'
p8123
aS'from'
p8124
aS'the'
p8125
aS'pink'
p8126
aS'room'
p8127
aS'to'
p8128
aS'the'
p8129
aS'purple'
p8130
aS'room'
p8131
aS'leave'
p8132
aS'the'
p8133
aS'chair'
p8134
aS'in'
p8135
aS'the'
p8136
aS'purple'
p8137
aS'room'
p8138
aS'and'
p8139
aS'go'
p8140
aS'to'
p8141
aS'the'
p8142
aS'green'
p8143
aS'room'
p8144
aS'agentInRegion  roomIsGreen blockInRegion  roomIsBlue'
p8145
tp8146
a((lp8147
S'go'
p8148
aS'to'
p8149
aS'pink'
p8150
aS'room'
p8151
aS'pick'
p8152
aS'up'
p8153
aS'chair'
p8154
aS'go'
p8155
aS'back'
p8156
aS'to'
p8157
aS'blue'
p8158
aS'room'
p8159
aS'blockInRegion  roomIsBlue'
p8160
tp8161
a((lp8162
S'move'
p8163
aS'to'
p8164
aS'the'
p8165
aS'red'
p8166
aS'room'
p8167
ag10
aS'move'
p8168
aS'to'
p8169
aS'the'
p8170
aS'green'
p8171
aS'room'
p8172
aS'agentInRegion  roomIsGreen'
p8173
tp8174
a((lp8175
S'move'
p8176
aS'to'
p8177
aS'the'
p8178
aS'red'
p8179
aS'room'
p8180
aS'and'
p8181
aS'push'
p8182
aS'the'
p8183
aS'object'
p8184
aS'back'
p8185
aS'into'
p8186
aS'the'
p8187
aS'blue'
p8188
aS'room'
p8189
aS'blockInRegion  roomIsBlue'
p8190
tp8191
a((lp8192
S'go'
p8193
aS'to'
p8194
aS'the'
p8195
aS'red'
p8196
aS'room'
p8197
ag10
aS'get'
p8198
aS'the'
p8199
aS'chair'
p8200
ag10
aS'then'
p8201
aS'go'
p8202
aS'to'
p8203
aS'the'
p8204
aS'blue'
p8205
aS'room'
p8206
ag10
aS'go'
p8207
aS'back'
p8208
aS'into'
p8209
aS'the'
p8210
aS'red'
p8211
aS'room'
p8212
ag10
aS'then'
p8213
aS'go'
p8214
aS'to'
p8215
aS'the'
p8216
aS'green'
p8217
aS'room'
p8218
aS'agentInRegion  roomIsGreen blockInRegion  roomIsBlue'
p8219
tp8220
a((lp8221
S'go'
p8222
aS'to'
p8223
aS'the'
p8224
aS'green'
p8225
aS'room'
p8226
aS'agentInRegion  roomIsGreen'
p8227
tp8228
a((lp8229
S'go'
p8230
aS'into'
p8231
aS'the'
p8232
aS'red'
p8233
aS'room'
p8234
aS'and'
p8235
aS'push'
p8236
aS'the'
p8237
aS'chair'
p8238
aS'back'
p8239
aS'into'
p8240
aS'the'
p8241
aS'blue'
p8242
aS'room'
p8243
aS'blockInRegion  roomIsBlue'
p8244
tp8245
a((lp8246
S'push'
p8247
aS'the'
p8248
aS'chair'
p8249
aS'into'
p8250
aS'the'
p8251
aS'green'
p8252
aS'room'
p8253
aS'and'
p8254
aS'then'
p8255
aS'you'
p8256
aS'go'
p8257
aS'back'
p8258
aS'to'
p8259
aS'the'
p8260
aS'blue'
p8261
aS'room'
p8262
aS'agentInRegion  roomIsBlue blockInRegion  roomIsGreen'
p8263
tp8264
a((lp8265
S'go'
p8266
aS'to'
p8267
aS'pink'
p8268
aS'room'
p8269
aS'pick'
p8270
aS'up'
p8271
aS'yellow'
p8272
aS'thing'
p8273
aS'move'
p8274
aS'yellow'
p8275
aS'thing'
p8276
aS'to'
p8277
aS'green'
p8278
aS'room'
p8279
aS'drop'
p8280
aS'yellow'
p8281
aS'thing'
p8282
aS'in'
p8283
aS'green'
p8284
aS'room'
p8285
aS'move'
p8286
aS'to'
p8287
aS'pink'
p8288
aS'room'
p8289
aS'move'
p8290
aS'to'
p8291
aS'blue'
p8292
aS'room'
p8293
aS'agentInRegion  roomIsBlue blockInRegion  roomIsGreen'
p8294
tp8295
a((lp8296
S'push'
p8297
aS'the'
p8298
aS'chair'
p8299
aS'into'
p8300
aS'the'
p8301
aS'blue'
p8302
aS'room'
p8303
ag10
aS'then'
p8304
aS'go'
p8305
aS'into'
p8306
aS'the'
p8307
aS'green'
p8308
aS'room'
p8309
aS'agentInRegion  roomIsGreen blockInRegion  roomIsBlue'
p8310
tp8311
a((lp8312
S'go'
p8313
aS'to'
p8314
aS'the'
p8315
aS'orange'
p8316
aS'room'
p8317
ag10
aS'then'
p8318
aS'go'
p8319
aS'to'
p8320
aS'the'
p8321
aS'green'
p8322
aS'room'
p8323
aS'agentInRegion  roomIsGreen'
p8324
tp8325
a((lp8326
S'move'
p8327
aS'to'
p8328
aS'the'
p8329
aS'red'
p8330
aS'room'
p8331
aS'agentInRegion  roomIsRed'
p8332
tp8333
a((lp8334
S'take'
p8335
aS'the'
p8336
aS'chair'
p8337
aS'from'
p8338
aS'the'
p8339
aS'red'
p8340
aS'room'
p8341
aS'and'
p8342
aS'put'
p8343
aS'it'
p8344
aS'in'
p8345
aS'the'
p8346
aS'blue'
p8347
aS'room'
p8348
aS'then'
p8349
aS'go'
p8350
aS'to'
p8351
aS'the'
p8352
aS'green'
p8353
aS'room'
p8354
aS'agentInRegion  roomIsGreen blockInRegion  roomIsBlue'
p8355
tp8356
a((lp8357
S'go'
p8358
aS'to'
p8359
aS'pink'
p8360
aS'room'
p8361
ag10
aS'then'
p8362
aS'go'
p8363
aS'to'
p8364
aS'green'
p8365
aS'room'
p8366
aS'agentInRegion  roomIsGreen'
p8367
tp8368
a((lp8369
S'move'
p8370
aS'to'
p8371
aS'the'
p8372
aS'green'
p8373
aS'room'
p8374
aS'agentInRegion  roomIsGreen blockInRegion  roomIsBlue'
p8375
tp8376
a((lp8377
S'move'
p8378
aS'to'
p8379
aS'the'
p8380
aS'red'
p8381
aS'room'
p8382
aS'agentInRegion  roomIsRed'
p8383
tp8384
a((lp8385
S'move'
p8386
aS'to'
p8387
aS'the'
p8388
aS'red'
p8389
aS'room'
p8390
aS'get'
p8391
aS'the'
p8392
aS'chair'
p8393
aS'move'
p8394
aS'to'
p8395
aS'the'
p8396
aS'purple'
p8397
aS'room'
p8398
aS'move'
p8399
aS'to'
p8400
aS'the'
p8401
aS'red'
p8402
aS'room'
p8403
aS'move'
p8404
aS'to'
p8405
aS'the'
p8406
aS'green'
p8407
aS'room'
p8408
aS'agentInRegion  roomIsGreen blockInRegion  roomIsBlue'
p8409
tp8410
a((lp8411
S'go'
p8412
aS'to'
p8413
aS'red'
p8414
aS'room'
p8415
aS'and'
p8416
aS'take'
p8417
aS'the'
p8418
aS'toy'
p8419
aS'and'
p8420
aS'go'
p8421
aS'to'
p8422
aS'green'
p8423
aS'room'
p8424
aS'and'
p8425
aS'return'
p8426
aS'go'
p8427
aS'to'
p8428
aS'red'
p8429
aS'room'
p8430
aS'and'
p8431
aS'go'
p8432
aS'to'
p8433
aS'blue'
p8434
aS'room'
p8435
aS'agentInRegion  roomIsBlue blockInRegion  roomIsGreen'
p8436
tp8437
a((lp8438
S'move'
p8439
aS'into'
p8440
aS'the'
p8441
aS'red'
p8442
aS'room'
p8443
ag10
aS'then'
p8444
aS'move'
p8445
aS'into'
p8446
aS'the'
p8447
aS'green'
p8448
aS'room'
p8449
aS'agentInRegion  roomIsGreen'
p8450
tp8451
a((lp8452
S'go'
p8453
aS'to'
p8454
aS'the'
p8455
aS'red'
p8456
aS'room'
p8457
aS'agentInRegion  roomIsRed'
p8458
tp8459
a((lp8460
S'move'
p8461
aS'to'
p8462
aS'the'
p8463
aS'green'
p8464
aS'room'
p8465
aS'agentInRegion  roomIsGreen'
p8466
tp8467
a((lp8468
S'go'
p8469
aS'to'
p8470
aS'the'
p8471
aS'pink'
p8472
aS'room'
p8473
aS'and'
p8474
aS'push'
p8475
aS'the'
p8476
aS'object'
p8477
aS'into'
p8478
aS'the'
p8479
aS'green'
p8480
aS'room'
p8481
aS'before'
p8482
aS'returning'
p8483
aS'to'
p8484
aS'the'
p8485
aS'purple'
p8486
aS'room'
p8487
aS'agentInRegion  roomIsBlue blockInRegion  roomIsGreen'
p8488
tp8489
a((lp8490
S'go'
p8491
aS'to'
p8492
aS'the'
p8493
aS'red'
p8494
aS'room'
p8495
aS'agentInRegion  roomIsRed'
p8496
tp8497
a((lp8498
S'move'
p8499
aS'to'
p8500
aS'the'
p8501
aS'red'
p8502
aS'room'
p8503
aS'agentInRegion  roomIsRed'
p8504
tp8505
a((lp8506
S'go'
p8507
aS'to'
p8508
aS'red'
p8509
aS'room'
p8510
aS'move'
p8511
aS'red'
p8512
aS'chair'
p8513
aS'to'
p8514
aS'blue'
p8515
aS'room'
p8516
aS'blockInRegion  roomIsBlue'
p8517
tp8518
a((lp8519
S'go'
p8520
aS'to'
p8521
aS'the'
p8522
aS'red'
p8523
aS'room'
p8524
aS'and'
p8525
aS'then'
p8526
aS'go'
p8527
aS'to'
p8528
aS'the'
p8529
aS'green'
p8530
aS'room'
p8531
aS'agentInRegion  roomIsGreen'
p8532
tp8533
a((lp8534
S'move'
p8535
aS'into'
p8536
aS'red'
p8537
aS'room'
p8538
aS'and'
p8539
aS'then'
p8540
aS'into'
p8541
aS'green'
p8542
aS'room'
p8543
aS'agentInRegion  roomIsBlue blockInRegion  roomIsGreen'
p8544
tp8545
a((lp8546
S'go'
p8547
aS'to'
p8548
aS'the'
p8549
aS'red'
p8550
aS'room'
p8551
ag10
aS'get'
p8552
aS'the'
p8553
aS'chair'
p8554
aS'and'
p8555
aS'take'
p8556
aS'it'
p8557
aS'to'
p8558
aS'the'
p8559
aS'blue'
p8560
aS'room'
p8561
aS'blockInRegion  roomIsBlue'
p8562
tp8563
a((lp8564
S'go'
p8565
aS'to'
p8566
aS'red'
p8567
aS'room'
p8568
aS'then'
p8569
aS'under'
p8570
aS'object'
p8571
ag10
aS'move'
p8572
aS'it'
p8573
aS'up'
p8574
aS'to'
p8575
aS'the'
p8576
aS'green'
p8577
aS'room'
p8578
aS'then'
p8579
aS'move'
p8580
aS'back'
p8581
aS'to'
p8582
aS'red'
p8583
aS'room'
p8584
aS'then'
p8585
aS'go'
p8586
aS'to'
p8587
aS'the'
p8588
aS'blue'
p8589
aS'room'
p8590
aS'agentInRegion  roomIsBlue blockInRegion  roomIsGreen'
p8591
tp8592
a((lp8593
S'move'
p8594
aS'to'
p8595
aS'the'
p8596
aS'red'
p8597
aS'room'
p8598
aS'agentInRegion  roomIsRed'
p8599
tp8600
a((lp8601
S'go'
p8602
aS'inside'
p8603
aS'the'
p8604
aS'red'
p8605
aS'room'
p8606
ag144
aS'go'
p8607
aS'behind'
p8608
aS'the'
p8609
aS'chair'
p8610
ag144
aS'move'
p8611
aS'the'
p8612
aS'chair'
p8613
aS'right'
p8614
aS'until'
p8615
aS'it'
p8616
aS"'s"
p8617
aS'below'
p8618
aS'the'
p8619
aS'blue'
p8620
aS'door'
p8621
ag144
aS'go'
p8622
aS'below'
p8623
aS'the'
p8624
aS'chair'
p8625
ag144
aS'move'
p8626
aS'the'
p8627
aS'chair'
p8628
aS'into'
p8629
aS'the'
p8630
aS'blue'
p8631
aS'room'
p8632
ag144
aS'go'
p8633
aS'to'
p8634
aS'the'
p8635
aS'red'
p8636
aS'room'
p8637
ag144
aS'go'
p8638
aS'to'
p8639
aS'the'
p8640
aS'green'
p8641
aS'room'
p8642
aS'agentInRegion  roomIsGreen blockInRegion  roomIsBlue'
p8643
tp8644
a((lp8645
S'move'
p8646
aS'into'
p8647
aS'the'
p8648
aS'red'
p8649
aS'room'
p8650
aS'and'
p8651
aS'push'
p8652
aS'the'
p8653
aS'chair'
p8654
aS'back'
p8655
aS'into'
p8656
aS'the'
p8657
aS'purple'
p8658
aS'room'
p8659
aS'blockInRegion  roomIsBlue'
p8660
tp8661
a((lp8662
S'push'
p8663
aS'the'
p8664
aS'chair'
p8665
aS'into'
p8666
aS'the'
p8667
aS'blue'
p8668
aS'room'
p8669
aS'blockInRegion  roomIsBlue'
p8670
tp8671
a((lp8672
S'go'
p8673
aS'to'
p8674
aS'the'
p8675
aS'red'
p8676
aS'room'
p8677
aS'then'
p8678
aS'the'
p8679
aS'green'
p8680
aS'room'
p8681
aS'agentInRegion  roomIsGreen'
p8682
tp8683
a((lp8684
S'go'
p8685
aS'to'
p8686
aS'red'
p8687
aS'room'
p8688
ag10
aS'bring'
p8689
aS'chair'
p8690
aS'back'
p8691
aS'to'
p8692
aS'blue'
p8693
aS'room'
p8694
ag10
aS'go'
p8695
aS'to'
p8696
aS'red'
p8697
aS'room'
p8698
ag10
aS'go'
p8699
aS'to'
p8700
aS'green'
p8701
aS'room'
p8702
aS'agentInRegion  roomIsGreen blockInRegion  roomIsBlue'
p8703
tp8704
a((lp8705
S'go'
p8706
aS'to'
p8707
aS'the'
p8708
aS'pink'
p8709
aS'room'
p8710
aS'get'
p8711
aS'behind'
p8712
aS'the'
p8713
aS'chair'
p8714
aS'return'
p8715
aS'to'
p8716
aS'the'
p8717
aS'original'
p8718
aS'room'
p8719
aS'blockInRegion  roomIsBlue'
p8720
tp8721
a((lp8722
S'move'
p8723
aS'to'
p8724
aS'red'
p8725
aS'room'
p8726
aS'and'
p8727
aS'bring'
p8728
aS'chair'
p8729
aS'back'
p8730
aS'blockInRegion  roomIsBlue'
p8731
tp8732
a((lp8733
S'go'
p8734
aS'to'
p8735
aS'the'
p8736
aS'red'
p8737
aS'room'
p8738
aS'move'
p8739
aS'the'
p8740
aS'chair'
p8741
aS'to'
p8742
aS'the'
p8743
aS'blue'
p8744
aS'room'
p8745
aS'then'
p8746
aS'go'
p8747
aS'to'
p8748
aS'the'
p8749
aS'green'
p8750
aS'room'
p8751
aS'agentInRegion  roomIsGreen blockInRegion  roomIsBlue'
p8752
tp8753
a((lp8754
S'go'
p8755
aS'to'
p8756
aS'the'
p8757
aS'pink'
p8758
aS'room'
p8759
aS'and'
p8760
aS'retrieve'
p8761
aS'the'
p8762
aS'object'
p8763
aS'before'
p8764
aS'pushing'
p8765
aS'it'
p8766
aS'back'
p8767
aS'into'
p8768
aS'the'
p8769
aS'purple'
p8770
aS'room'
p8771
aS'and'
p8772
aS'moving'
p8773
aS'back'
p8774
aS'to'
p8775
aS'the'
p8776
aS'pink'
p8777
aS'room'
p8778
aS'and'
p8779
aS'then'
p8780
aS'finally'
p8781
aS'the'
p8782
aS'green'
p8783
aS'room'
p8784
aS'agentInRegion  roomIsGreen blockInRegion  roomIsBlue'
p8785
tp8786
a((lp8787
S'move'
p8788
aS'to'
p8789
aS'the'
p8790
aS'red'
p8791
aS'room'
p8792
aS'agentInRegion  roomIsRed'
p8793
tp8794
a((lp8795
S'get'
p8796
aS'out'
p8797
aS'of'
p8798
aS'blue'
p8799
aS'room'
p8800
aS'and'
p8801
aS'pick'
p8802
aS'up'
p8803
aS'item'
p8804
aS'in'
p8805
aS'pink'
p8806
aS'room'
p8807
aS'and'
p8808
aS'take'
p8809
aS'it'
p8810
aS'to'
p8811
aS'green'
p8812
aS'room'
p8813
aS'then'
p8814
aS'leave'
p8815
aS'green'
p8816
aS'room'
p8817
aS'and'
p8818
aS'go'
p8819
aS'back'
p8820
aS'to'
p8821
aS'blue'
p8822
aS'room'
p8823
aS'agentInRegion  roomIsBlue blockInRegion  roomIsGreen'
p8824
tp8825
a((lp8826
S'go'
p8827
aS'in'
p8828
aS'and'
p8829
aS'then'
p8830
aS'go'
p8831
aS'into'
p8832
aS'the'
p8833
aS'green'
p8834
aS'room'
p8835
aS'agentInRegion  roomIsGreen'
p8836
tp8837
a((lp8838
S'move'
p8839
aS'to'
p8840
aS'red'
p8841
aS'room'
p8842
aS'go'
p8843
aS'down'
p8844
aS'down'
p8845
aS'down'
p8846
aS'left'
p8847
aS'left'
p8848
aS'left'
p8849
aS'left'
p8850
aS'up'
p8851
aS'right'
p8852
aS'right'
p8853
aS'right'
p8854
aS'right'
p8855
aS'down'
p8856
aS'right'
p8857
aS'up'
p8858
aS'up'
p8859
aS'up'
p8860
aS'blockInRegion  roomIsBlue'
p8861
tp8862
a((lp8863
S'move'
p8864
aS'to'
p8865
aS'the'
p8866
aS'red'
p8867
aS'room'
p8868
aS'and'
p8869
aS'push'
p8870
aS'the'
p8871
aS'chair'
p8872
aS'into'
p8873
aS'the'
p8874
aS'blue'
p8875
aS'room'
p8876
aS'blockInRegion  roomIsBlue'
p8877
tp8878
a((lp8879
S'go'
p8880
aS'to'
p8881
aS'the'
p8882
aS'pink'
p8883
aS'room'
p8884
aS'pick'
p8885
aS'up'
p8886
aS'the'
p8887
aS'chair'
p8888
aS'and'
p8889
aS'move'
p8890
aS'it'
p8891
aS'to'
p8892
aS'the'
p8893
aS'blue'
p8894
aS'room'
p8895
aS'blockInRegion  roomIsBlue'
p8896
tp8897
a((lp8898
S'first'
p8899
aS'go'
p8900
aS'to'
p8901
aS'red'
p8902
aS'room'
p8903
ag10
aS'then'
p8904
aS'go'
p8905
aS'to'
p8906
aS'green'
p8907
aS'room'
p8908
aS'agentInRegion  roomIsGreen'
p8909
tp8910
a((lp8911
S'go'
p8912
aS'from'
p8913
aS'the'
p8914
aS'blue'
p8915
aS'room'
p8916
aS'to'
p8917
aS'the'
p8918
aS'red'
p8919
aS'room'
p8920
aS'agentInRegion  roomIsRed'
p8921
tp8922
a((lp8923
S'get'
p8924
aS'the'
p8925
aS'chair'
p8926
aS'from'
p8927
aS'the'
p8928
aS'red'
p8929
aS'room'
p8930
aS'and'
p8931
aS'return'
p8932
aS'it'
p8933
aS'to'
p8934
aS'the'
p8935
aS'blue'
p8936
aS'room'
p8937
aS'blockInRegion  roomIsBlue'
p8938
tp8939
a((lp8940
S'go'
p8941
aS'to'
p8942
aS'red'
p8943
aS'room'
p8944
ag10
aS'go'
p8945
aS'to'
p8946
aS'chair'
p8947
ag10
aS'move'
p8948
aS'chair'
p8949
aS'to'
p8950
aS'blue'
p8951
aS'room'
p8952
aS'blockInRegion  roomIsBlue'
p8953
tp8954
a((lp8955
S'go'
p8956
aS'to'
p8957
aS'the'
p8958
aS'red'
p8959
aS'room'
p8960
aS'go'
p8961
aS'behind'
p8962
aS'the'
p8963
aS'chair'
p8964
aS'then'
p8965
aS'bring'
p8966
aS'the'
p8967
aS'chair'
p8968
aS'to'
p8969
aS'the'
p8970
aS'blue'
p8971
aS'room'
p8972
aS'blockInRegion  roomIsBlue'
p8973
tp8974
a((lp8975
S'go'
p8976
aS'to'
p8977
aS'the'
p8978
aS'red'
p8979
aS'room'
p8980
aS'agentInRegion  roomIsRed'
p8981
tp8982
a((lp8983
S'go'
p8984
aS'to'
p8985
aS'the'
p8986
aS'red'
p8987
aS'room'
p8988
aS'and'
p8989
aS'push'
p8990
aS'the'
p8991
aS'object'
p8992
aS'into'
p8993
aS'the'
p8994
aS'green'
p8995
aS'room'
p8996
ag10
aS'go'
p8997
aS'back'
p8998
aS'into'
p8999
aS'the'
p9000
aS'red'
p9001
aS'room'
p9002
aS'and'
p9003
aS'then'
p9004
aS'into'
p9005
aS'the'
p9006
aS'blue'
p9007
aS'room'
p9008
aS'agentInRegion  roomIsBlue blockInRegion  roomIsGreen'
p9009
tp9010
a((lp9011
S'go'
p9012
aS'to'
p9013
aS'the'
p9014
aS'red'
p9015
aS'room'
p9016
aS'and'
p9017
aS'push'
p9018
aS'the'
p9019
aS'chair'
p9020
aS'back'
p9021
aS'into'
p9022
aS'the'
p9023
aS'blue'
p9024
aS'room'
p9025
aS'blockInRegion  roomIsBlue'
p9026
tp9027
a((lp9028
S'go'
p9029
aS'to'
p9030
aS'red'
p9031
aS'room'
p9032
ag10
aS'get'
p9033
aS'chair'
p9034
ag10
aS'go'
p9035
aS'to'
p9036
aS'blue'
p9037
aS'room'
p9038
ag10
aS'leave'
p9039
aS'chair'
p9040
ag10
aS'go'
p9041
aS'to'
p9042
aS'red'
p9043
aS'room'
p9044
ag10
aS'go'
p9045
aS'to'
p9046
aS'green'
p9047
aS'room'
p9048
aS'agentInRegion  roomIsGreen blockInRegion  roomIsBlue'
p9049
tp9050
a((lp9051
S'push'
p9052
aS'the'
p9053
aS'chair'
p9054
aS'into'
p9055
aS'the'
p9056
aS'blue'
p9057
aS'room'
p9058
aS'and'
p9059
aS'go'
p9060
aS'to'
p9061
aS'the'
p9062
aS'green'
p9063
aS'room'
p9064
aS'agentInRegion  roomIsGreen blockInRegion  roomIsBlue'
p9065
tp9066
a((lp9067
S'move'
p9068
aS'to'
p9069
aS'the'
p9070
aS'red'
p9071
aS'room'
p9072
aS'get'
p9073
aS'the'
p9074
aS'chair'
p9075
aS'move'
p9076
aS'to'
p9077
aS'the'
p9078
aS'blue'
p9079
aS'room'
p9080
aS'blockInRegion  roomIsBlue'
p9081
tp9082
a((lp9083
S'go'
p9084
aS'to'
p9085
aS'the'
p9086
aS'pink'
p9087
aS'room'
p9088
aS'and'
p9089
aS'bring'
p9090
aS'the'
p9091
aS'chair'
p9092
aS'to'
p9093
aS'the'
p9094
aS'blue'
p9095
aS'room'
p9096
aS'and'
p9097
aS'then'
p9098
aS'go'
p9099
aS'to'
p9100
aS'the'
p9101
aS'green'
p9102
aS'room'
p9103
aS'agentInRegion  roomIsGreen blockInRegion  roomIsBlue'
p9104
tp9105
a((lp9106
S'move'
p9107
aS'to'
p9108
aS'the'
p9109
aS'pink'
p9110
aS'room'
p9111
aS'agentInRegion  roomIsRed'
p9112
tp9113
a((lp9114
S'go'
p9115
aS'to'
p9116
aS'pink'
p9117
aS'room'
p9118
ag10
aS'locate'
p9119
aS'yellow'
p9120
aS'object'
p9121
ag10
aS'push'
p9122
aS'to'
p9123
aS'the'
p9124
aS'green'
p9125
aS'room'
p9126
ag10
aS'return'
p9127
aS'to'
p9128
aS'pink'
p9129
aS'room'
p9130
aS'then'
p9131
aS'to'
p9132
aS'blue'
p9133
aS'room'
p9134
aS'agentInRegion  roomIsBlue blockInRegion  roomIsGreen'
p9135
tp9136
a((lp9137
S'move'
p9138
aS'out'
p9139
aS'of'
p9140
aS'the'
p9141
aS'green'
p9142
aS'room'
p9143
aS'agentInRegion  roomIsRed'
p9144
tp9145
a((lp9146
S'move'
p9147
aS'to'
p9148
aS'the'
p9149
aS'red'
p9150
aS'room'
p9151
aS'agentInRegion  roomIsRed'
p9152
tp9153
a((lp9154
S'move'
p9155
aS'to'
p9156
aS'the'
p9157
aS'red'
p9158
aS'room'
p9159
aS'get'
p9160
aS'the'
p9161
aS'chair'
p9162
aS'and'
p9163
aS'move'
p9164
aS'it'
p9165
aS'to'
p9166
aS'the'
p9167
aS'purple'
p9168
aS'room'
p9169
aS'then'
p9170
aS'move'
p9171
aS'to'
p9172
aS'the'
p9173
aS'green'
p9174
aS'room'
p9175
aS'agentInRegion  roomIsGreen blockInRegion  roomIsBlue'
p9176
tp9177
a((lp9178
S'move'
p9179
aS'to'
p9180
aS'pink'
p9181
aS'room'
p9182
aS'push'
p9183
aS'yellow'
p9184
aS'object'
p9185
aS'into'
p9186
aS'green'
p9187
aS'room'
p9188
aS'return'
p9189
aS'to'
p9190
aS'purple'
p9191
aS'room'
p9192
aS'agentInRegion  roomIsBlue blockInRegion  roomIsGreen'
p9193
tp9194
a((lp9195
S'go'
p9196
aS'to'
p9197
aS'red'
p9198
aS'room'
p9199
aS'get'
p9200
aS'chair'
p9201
aS'go'
p9202
aS'to'
p9203
aS'blue'
p9204
aS'room'
p9205
aS'go'
p9206
aS'to'
p9207
aS'red'
p9208
aS'room'
p9209
aS'go'
p9210
aS'to'
p9211
aS'green'
p9212
aS'room'
p9213
aS'agentInRegion  roomIsGreen blockInRegion  roomIsBlue'
p9214
tp9215
a((lp9216
S'move'
p9217
aS'from'
p9218
aS'the'
p9219
aS'blue'
p9220
aS'room'
p9221
aS'to'
p9222
aS'the'
p9223
aS'green'
p9224
aS'room'
p9225
ag10
aS'move'
p9226
aS'the'
p9227
aS'yellow'
p9228
aS'thing'
p9229
aS'to'
p9230
aS'the'
p9231
aS'green'
p9232
aS'room'
p9233
ag10
aS'move'
p9234
aS'to'
p9235
aS'the'
p9236
aS'red'
p9237
aS'room'
p9238
aS'and'
p9239
aS'move'
p9240
aS'to'
p9241
aS'the'
p9242
aS'blue'
p9243
aS'room'
p9244
aS'agentInRegion  roomIsBlue blockInRegion  roomIsGreen'
p9245
tp9246
a((lp9247
S'go'
p9248
aS'in'
p9249
aS'the'
p9250
aS'room'
p9251
aS'and'
p9252
aS'find'
p9253
aS'the'
p9254
aS'chair'
p9255
aS'push'
p9256
aS'it'
p9257
aS'into'
p9258
aS'blue'
p9259
aS'room'
p9260
aS'then'
p9261
aS'go'
p9262
aS'into'
p9263
aS'the'
p9264
aS'green'
p9265
aS'room'
p9266
aS'without'
p9267
aS'the'
p9268
aS'chair'
p9269
aS'agentInRegion  roomIsGreen blockInRegion  roomIsBlue'
p9270
tp9271
a((lp9272
S'move'
p9273
aS'to'
p9274
aS'the'
p9275
aS'red'
p9276
aS'room'
p9277
aS'push'
p9278
aS'the'
p9279
aS'chair'
p9280
aS'to'
p9281
aS'the'
p9282
aS'blue'
p9283
aS'room'
p9284
aS'go'
p9285
aS'to'
p9286
aS'the'
p9287
aS'red'
p9288
aS'room'
p9289
aS'then'
p9290
aS'go'
p9291
aS'to'
p9292
aS'the'
p9293
aS'green'
p9294
aS'room'
p9295
aS'agentInRegion  roomIsGreen blockInRegion  roomIsBlue'
p9296
tp9297
a((lp9298
S'go'
p9299
aS'into'
p9300
aS'the'
p9301
aS'red'
p9302
aS'room'
p9303
aS'find'
p9304
aS'the'
p9305
aS'chair'
p9306
aS'bring'
p9307
aS'it'
p9308
aS'into'
p9309
aS'the'
p9310
aS'purple'
p9311
aS'room'
p9312
aS'then'
p9313
aS'return'
p9314
aS'to'
p9315
aS'the'
p9316
aS'red'
p9317
aS'room'
p9318
aS'then'
p9319
aS'go'
p9320
aS'through'
p9321
aS'the'
p9322
aS'green'
p9323
aS'room'
p9324
aS'door'
p9325
aS'and'
p9326
aS'stop'
p9327
aS'agentInRegion  roomIsGreen blockInRegion  roomIsBlue'
p9328
tp9329
a((lp9330
S'go'
p9331
aS'to'
p9332
aS'red'
p9333
aS'room'
p9334
ag10
aS'go'
p9335
aS'to'
p9336
aS'green'
p9337
aS'room'
p9338
aS'agentInRegion  roomIsGreen'
p9339
tp9340
a((lp9341
S'please'
p9342
aS'bring'
p9343
aS'the'
p9344
aS'chair'
p9345
aS'to'
p9346
aS'the'
p9347
aS'blue'
p9348
aS'room'
p9349
aS'blockInRegion  roomIsBlue'
p9350
tp9351
a((lp9352
S'move'
p9353
aS'to'
p9354
aS'the'
p9355
aS'pink'
p9356
aS'room'
p9357
aS'move'
p9358
aS'to'
p9359
aS'the'
p9360
aS'left'
p9361
aS'of'
p9362
aS'the'
p9363
aS'chair'
p9364
aS'right'
p9365
aS'right'
p9366
aS'right'
p9367
aS'down'
p9368
aS'right'
p9369
aS'move'
p9370
aS'to'
p9371
aS'the'
p9372
aS'door'
p9373
aS'blockInRegion  roomIsBlue'
p9374
tp9375
a((lp9376
S'move'
p9377
aS'to'
p9378
aS'the'
p9379
aS'red'
p9380
aS'room'
p9381
aS'agentInRegion  roomIsRed'
p9382
tp9383
a((lp9384
S'get'
p9385
aS'red'
p9386
aS'chair'
p9387
aS'in'
p9388
aS'pink'
p9389
aS'room'
p9390
aS'and'
p9391
aS'move'
p9392
aS'it'
p9393
aS'to'
p9394
aS'blue'
p9395
aS'room'
p9396
aS'blockInRegion  roomIsBlue'
p9397
tp9398
a((lp9399
S'go'
p9400
aS'to'
p9401
aS'pink'
p9402
aS'room'
p9403
aS'agentInRegion  roomIsRed'
p9404
tp9405
a((lp9406
S'go'
p9407
aS'to'
p9408
aS'red'
p9409
aS'room'
p9410
ag10
aS'go'
p9411
aS'to'
p9412
aS'green'
p9413
aS'room'
p9414
aS'agentInRegion  roomIsGreen'
p9415
tp9416
a((lp9417
S'go'
p9418
aS'to'
p9419
aS'the'
p9420
aS'chair'
p9421
aS'in'
p9422
aS'the'
p9423
aS'red'
p9424
aS'room'
p9425
ag10
aS'and'
p9426
aS'then'
p9427
aS'push'
p9428
aS'the'
p9429
aS'chair'
p9430
aS'into'
p9431
aS'the'
p9432
aS'blue'
p9433
aS'room'
p9434
aS'blockInRegion  roomIsBlue'
p9435
tp9436
a((lp9437
S'go'
p9438
aS'to'
p9439
aS'the'
p9440
aS'green'
p9441
aS'room'
p9442
aS'agentInRegion  roomIsGreen'
p9443
tp9444
a((lp9445
S'go'
p9446
aS'to'
p9447
aS'the'
p9448
aS'pink'
p9449
aS'room'
p9450
aS'agentInRegion  roomIsRed'
p9451
tp9452
a((lp9453
S'move'
p9454
aS'from'
p9455
aS'the'
p9456
aS'blue'
p9457
aS'room'
p9458
aS'into'
p9459
aS'the'
p9460
aS'red'
p9461
aS'room'
p9462
aS'agentInRegion  roomIsRed'
p9463
tp9464
a((lp9465
S'go'
p9466
aS'to'
p9467
aS'the'
p9468
aS'pink'
p9469
aS'room'
p9470
aS'locate'
p9471
aS'chair'
p9472
aS'and'
p9473
aS'return'
p9474
aS'chair'
p9475
aS'to'
p9476
aS'blue'
p9477
aS'room'
p9478
ag10
aS'then'
p9479
aS'go'
p9480
aS'to'
p9481
aS'pink'
p9482
aS'room'
p9483
aS'and'
p9484
aS'then'
p9485
aS'green'
p9486
aS'room'
p9487
aS'agentInRegion  roomIsGreen blockInRegion  roomIsBlue'
p9488
tp9489
a((lp9490
S'go'
p9491
aS'to'
p9492
aS'the'
p9493
aS'red'
p9494
aS'room'
p9495
aS'and'
p9496
aS'then'
p9497
aS'to'
p9498
aS'green'
p9499
aS'room'
p9500
aS'agentInRegion  roomIsGreen'
p9501
tp9502
a((lp9503
S'go'
p9504
aS'push'
p9505
aS'the'
p9506
aS'chair'
p9507
aS'into'
p9508
aS'the'
p9509
aS'blue'
p9510
aS'room'
p9511
aS'then'
p9512
aS'go'
p9513
aS'into'
p9514
aS'the'
p9515
aS'red'
p9516
aS'room'
p9517
aS'agentInRegion  roomIsGreen blockInRegion  roomIsBlue'
p9518
tp9519
a((lp9520
S'go'
p9521
aS'to'
p9522
aS'the'
p9523
aS'red'
p9524
aS'room'
p9525
aS'agentInRegion  roomIsRed'
p9526
tp9527
a((lp9528
S'move'
p9529
aS'to'
p9530
aS'pink'
p9531
aS'room'
p9532
aS'pick'
p9533
aS'chair'
p9534
aS'move'
p9535
aS'to'
p9536
aS'blue'
p9537
aS'room'
p9538
aS'go'
p9539
aS'to'
p9540
aS'pink'
p9541
aS'room'
p9542
aS'go'
p9543
aS'to'
p9544
aS'green'
p9545
aS'room'
p9546
aS'agentInRegion  roomIsGreen blockInRegion  roomIsBlue'
p9547
tp9548
a((lp9549
S'go'
p9550
aS'to'
p9551
aS'pink'
p9552
aS'room'
p9553
aS'push'
p9554
aS'chair'
p9555
aS'to'
p9556
aS'blue'
p9557
aS'room'
p9558
aS'blockInRegion  roomIsBlue'
p9559
tp9560
a((lp9561
S'move'
p9562
aS'to'
p9563
aS'the'
p9564
aS'red'
p9565
aS'room'
p9566
ag10
aS'push'
p9567
aS'the'
p9568
aS'chair'
p9569
aS'into'
p9570
aS'the'
p9571
aS'blue'
p9572
aS'room'
p9573
aS'blockInRegion  roomIsBlue'
p9574
tp9575
a((lp9576
S'go'
p9577
aS'to'
p9578
aS'the'
p9579
aS'red'
p9580
aS'room'
p9581
ag10
aS'go'
p9582
aS'to'
p9583
aS'the'
p9584
aS'green'
p9585
aS'room'
p9586
ag10
aS'go'
p9587
aS'to'
p9588
aS'the'
p9589
aS'red'
p9590
aS'room'
p9591
aS'and'
p9592
aS'go'
p9593
aS'to'
p9594
aS'the'
p9595
aS'blue'
p9596
aS'room'
p9597
aS'agentInRegion  roomIsBlue blockInRegion  roomIsGreen'
p9598
tp9599
a((lp9600
S'go'
p9601
aS'get'
p9602
aS'the'
p9603
aS'chair'
p9604
aS'blockInRegion  roomIsBlue'
p9605
tp9606
a((lp9607
S'move'
p9608
aS'to'
p9609
aS'the'
p9610
aS'red'
p9611
aS'room'
p9612
aS'agentInRegion  roomIsRed'
p9613
tp9614
a((lp9615
S'go'
p9616
aS'to'
p9617
aS'the'
p9618
aS'red'
p9619
aS'room'
p9620
aS'agentInRegion  roomIsRed'
p9621
tp9622
a((lp9623
S'go'
p9624
aS'to'
p9625
aS'the'
p9626
aS'red'
p9627
aS'room'
p9628
aS'agentInRegion  roomIsRed'
p9629
tp9630
a((lp9631
S'go'
p9632
aS'to'
p9633
aS'red'
p9634
aS'room'
p9635
aS'push'
p9636
aS'chair'
p9637
aS'to'
p9638
aS'blue'
p9639
aS'room'
p9640
aS'go'
p9641
aS'to'
p9642
aS'red'
p9643
aS'room'
p9644
aS'go'
p9645
aS'to'
p9646
aS'green'
p9647
aS'room'
p9648
aS'agentInRegion  roomIsGreen blockInRegion  roomIsBlue'
p9649
tp9650
a((lp9651
S'bring'
p9652
aS'the'
p9653
aS'red'
p9654
aS'chair'
p9655
aS'in'
p9656
aS'the'
p9657
aS'pink'
p9658
aS'room'
p9659
aS'to'
p9660
aS'the'
p9661
aS'blue'
p9662
aS'room'
p9663
aS'then'
p9664
aS'go'
p9665
aS'to'
p9666
aS'the'
p9667
aS'green'
p9668
aS'room'
p9669
aS'agentInRegion  roomIsGreen blockInRegion  roomIsBlue'
p9670
tp9671
a((lp9672
S'go'
p9673
aS'to'
p9674
aS'the'
p9675
aS'pink'
p9676
aS'room'
p9677
aS'agentInRegion  roomIsRed'
p9678
tp9679
a((lp9680
S'move'
p9681
aS'to'
p9682
aS'the'
p9683
aS'pink'
p9684
aS'room'
p9685
aS'agentInRegion  roomIsRed'
p9686
tp9687
a((lp9688
S'go'
p9689
aS'into'
p9690
aS'the'
p9691
aS'room'
p9692
aS'and'
p9693
aS'find'
p9694
aS'the'
p9695
aS'chair'
p9696
aS'then'
p9697
aS'push'
p9698
aS'it'
p9699
aS'back'
p9700
aS'into'
p9701
aS'blue'
p9702
aS'room'
p9703
aS'blockInRegion  roomIsBlue'
p9704
tp9705
a((lp9706
S'go'
p9707
aS'into'
p9708
aS'the'
p9709
aS'red'
p9710
aS'room'
p9711
aS'and'
p9712
aS'then'
p9713
aS'go'
p9714
aS'into'
p9715
aS'the'
p9716
aS'green'
p9717
aS'room'
p9718
aS'agentInRegion  roomIsGreen'
p9719
tp9720
a((lp9721
S'go'
p9722
aS'to'
p9723
aS'the'
p9724
aS'red'
p9725
aS'room'
p9726
aS'agentInRegion  roomIsRed'
p9727
tp9728
a((lp9729
S'go'
p9730
aS'to'
p9731
aS'the'
p9732
aS'orange'
p9733
aS'room'
p9734
aS'go'
p9735
aS'to'
p9736
aS'the'
p9737
aS'chair'
p9738
aS'pick'
p9739
aS'up'
p9740
aS'the'
p9741
aS'chair'
p9742
aS'go'
p9743
aS'to'
p9744
aS'the'
p9745
aS'blue'
p9746
aS'room'
p9747
aS'blockInRegion  roomIsBlue'
p9748
tp9749
a((lp9750
S'go'
p9751
aS'into'
p9752
aS'the'
p9753
aS'red'
p9754
aS'room'
p9755
ag10
aS'and'
p9756
aS'enter'
p9757
aS'the'
p9758
aS'green'
p9759
aS'room'
p9760
aS'agentInRegion  roomIsGreen'
p9761
tp9762
a((lp9763
S'move'
p9764
aS'into'
p9765
aS'the'
p9766
aS'red'
p9767
aS'room'
p9768
aS'and'
p9769
aS'push'
p9770
aS'the'
p9771
aS'chair'
p9772
aS'to'
p9773
aS'the'
p9774
aS'blue'
p9775
aS'room'
p9776
aS'then'
p9777
aS'move'
p9778
aS'to'
p9779
aS'the'
p9780
aS'green'
p9781
aS'room'
p9782
aS'agentInRegion  roomIsGreen blockInRegion  roomIsBlue'
p9783
tp9784
a((lp9785
S'go'
p9786
aS'from'
p9787
aS'the'
p9788
aS'blue'
p9789
aS'room'
p9790
aS'to'
p9791
aS'the'
p9792
aS'red'
p9793
aS'room'
p9794
ag10
aS'then'
p9795
aS'to'
p9796
aS'the'
p9797
aS'green'
p9798
aS'room'
p9799
aS'agentInRegion  roomIsGreen'
p9800
tp9801
a((lp9802
S'go'
p9803
aS'to'
p9804
aS'red'
p9805
aS'room'
p9806
ag10
aS'pick'
p9807
aS'up'
p9808
aS'the'
p9809
aS'chair'
p9810
aS'and'
p9811
aS'come'
p9812
aS'back'
p9813
aS'blockInRegion  roomIsBlue'
p9814
tp9815
a((lp9816
S'go'
p9817
aS'to'
p9818
aS'red'
p9819
aS'room'
p9820
aS'agentInRegion  roomIsRed'
p9821
tp9822
a((lp9823
S'go'
p9824
aS'into'
p9825
aS'the'
p9826
aS'pink'
p9827
aS'room'
p9828
aS'and'
p9829
aS'over'
p9830
aS'to'
p9831
aS'the'
p9832
aS'robot'
p9833
ag10
aS'then'
p9834
aS'push'
p9835
aS'it'
p9836
aS'up'
p9837
aS'into'
p9838
aS'the'
p9839
aS'green'
p9840
aS'room'
p9841
aS'and'
p9842
aS'return'
p9843
aS'to'
p9844
aS'the'
p9845
aS'pink'
p9846
aS'room'
p9847
aS'and'
p9848
aS'end'
p9849
aS'up'
p9850
aS'in'
p9851
aS'the'
p9852
aS'purple'
p9853
aS'room'
p9854
aS'agentInRegion  roomIsBlue blockInRegion  roomIsGreen'
p9855
tp9856
a((lp9857
S'put'
p9858
aS'toy'
p9859
aS'in'
p9860
aS'green'
p9861
aS'room'
p9862
aS'and'
p9863
aS'return'
p9864
aS'to'
p9865
aS'purple'
p9866
aS'room'
p9867
aS'agentInRegion  roomIsBlue blockInRegion  roomIsGreen'
p9868
tp9869
a((lp9870
S'move'
p9871
aS'to'
p9872
aS'the'
p9873
aS'pink'
p9874
aS'room'
p9875
aS'and'
p9876
aS'push'
p9877
aS'the'
p9878
aS'chair'
p9879
aS'back'
p9880
aS'into'
p9881
aS'the'
p9882
aS'blue'
p9883
aS'room'
p9884
aS'blockInRegion  roomIsBlue'
p9885
tp9886
a((lp9887
S'go'
p9888
aS'to'
p9889
aS'red'
p9890
aS'room'
p9891
ag10
aS'push'
p9892
aS'object'
p9893
aS'to'
p9894
aS'green'
p9895
aS'room'
p9896
ag10
aS'go'
p9897
aS'to'
p9898
aS'blue'
p9899
aS'room'
p9900
aS'agentInRegion  roomIsBlue blockInRegion  roomIsGreen'
p9901
tp9902
a((lp9903
S'go'
p9904
aS'to'
p9905
aS'the'
p9906
aS'red'
p9907
aS'room'
p9908
ag10
aS'take'
p9909
aS'the'
p9910
aS'yellow'
p9911
aS'color'
p9912
aS'object'
p9913
aS'from'
p9914
aS'there'
p9915
aS'and'
p9916
aS'go'
p9917
aS'to'
p9918
aS'green'
p9919
aS'room'
p9920
aS'with'
p9921
aS'this'
p9922
aS'object'
p9923
ag144
aS'leave'
p9924
aS'the'
p9925
aS'object'
p9926
aS'there'
p9927
aS'and'
p9928
aS'come'
p9929
aS'back'
p9930
aS'to'
p9931
aS'the'
p9932
aS'red'
p9933
aS'room'
p9934
aS'and'
p9935
aS'then'
p9936
aS'to'
p9937
aS'the'
p9938
aS'blue'
p9939
aS'room'
p9940
aS'agentInRegion  roomIsBlue blockInRegion  roomIsGreen'
p9941
tp9942
a((lp9943
S'go'
p9944
aS'to'
p9945
aS'the'
p9946
aS'red'
p9947
aS'room'
p9948
aS'agentInRegion  roomIsRed'
p9949
tp9950
a((lp9951
S'go'
p9952
aS'from'
p9953
aS'the'
p9954
aS'blue'
p9955
aS'room'
p9956
aS'to'
p9957
aS'the'
p9958
aS'red'
p9959
aS'room'
p9960
aS'then'
p9961
aS'go'
p9962
aS'from'
p9963
aS'the'
p9964
aS'red'
p9965
aS'room'
p9966
aS'to'
p9967
aS'the'
p9968
aS'green'
p9969
aS'room'
p9970
aS'agentInRegion  roomIsGreen'
p9971
tp9972
a((lp9973
S'go'
p9974
aS'to'
p9975
aS'the'
p9976
aS'red'
p9977
aS'room'
p9978
aS'get'
p9979
aS'the'
p9980
aS'chair'
p9981
aS'and'
p9982
aS'bring'
p9983
aS'it'
p9984
aS'to'
p9985
aS'the'
p9986
aS'purple'
p9987
aS'room'
p9988
aS'blockInRegion  roomIsBlue'
p9989
tp9990
a((lp9991
S'move'
p9992
aS'to'
p9993
aS'the'
p9994
aS'middle'
p9995
aS'of'
p9996
aS'the'
p9997
aS'green'
p9998
aS'room'
p9999
aS'agentInRegion  roomIsGreen'
p10000
tp10001
a((lp10002
S'go'
p10003
aS'the'
p10004
aS'red'
p10005
aS'room'
p10006
aS'go'
p10007
aS'to'
p10008
aS'the'
p10009
aS'left'
p10010
aS'side'
p10011
aS'of'
p10012
aS'the'
p10013
aS'chair'
p10014
aS'go'
p10015
aS'to'
p10016
aS'the'
p10017
aS'right'
p10018
aS'side'
p10019
aS'of'
p10020
aS'the'
p10021
aS'room'
p10022
aS'go'
p10023
aS'to'
p10024
aS'the'
p10025
aS'bottom'
p10026
aS'of'
p10027
aS'the'
p10028
aS'room'
p10029
aS'behind'
p10030
aS'the'
p10031
aS'chair'
p10032
aS'go'
p10033
aS'to'
p10034
aS'the'
p10035
aS'blue'
p10036
aS'room'
p10037
aS'blockInRegion  roomIsBlue'
p10038
tp10039
a((lp10040
S'go'
p10041
aS'to'
p10042
aS'pink'
p10043
aS'room'
p10044
ag10
aS'locate'
p10045
aS'chair'
p10046
ag10
aS'push'
p10047
aS'chair'
p10048
aS'back'
p10049
aS'to'
p10050
aS'starting'
p10051
aS'point'
p10052
aS'in'
p10053
aS'blue'
p10054
aS'room'
p10055
aS'blockInRegion  roomIsBlue'
p10056
tp10057
a((lp10058
S'go'
p10059
aS'to'
p10060
aS'the'
p10061
aS'red'
p10062
aS'room'
p10063
aS'take'
p10064
aS'the'
p10065
aS'object'
p10066
aS'there'
p10067
aS'come'
p10068
aS'back'
p10069
aS'to'
p10070
aS'the'
p10071
aS'previous'
p10072
aS'room'
p10073
aS'leave'
p10074
aS'the'
p10075
aS'object'
p10076
aS'there'
p10077
aS'and'
p10078
aS'go'
p10079
aS'to'
p10080
aS'the'
p10081
aS'green'
p10082
aS'room'
p10083
aS'agentInRegion  roomIsGreen blockInRegion  roomIsBlue'
p10084
tp10085
a((lp10086
S'move'
p10087
aS'to'
p10088
aS'the'
p10089
aS'red'
p10090
aS'room'
p10091
aS'agentInRegion  roomIsRed'
p10092
tp10093
a((lp10094
S'go'
p10095
aS'to'
p10096
aS'the'
p10097
aS'pink'
p10098
aS'room'
p10099
aS'get'
p10100
aS'the'
p10101
aS'chair'
p10102
aS'go'
p10103
aS'back'
p10104
aS'to'
p10105
aS'the'
p10106
aS'purple'
p10107
aS'room'
p10108
aS'go'
p10109
aS'tho'
p10110
aS'the'
p10111
aS'pink'
p10112
aS'room'
p10113
aS'then'
p10114
aS'go'
p10115
aS'to'
p10116
aS'the'
p10117
aS'green'
p10118
aS'room'
p10119
aS'agentInRegion  roomIsGreen blockInRegion  roomIsBlue'
p10120
tp10121
a((lp10122
S'go'
p10123
aS'to'
p10124
aS'the'
p10125
aS'red'
p10126
aS'room'
p10127
aS'agentInRegion  roomIsRed'
p10128
tp10129
a((lp10130
S'go'
p10131
aS'to'
p10132
aS'the'
p10133
aS'red'
p10134
aS'room'
p10135
ag10
aS'get'
p10136
aS'the'
p10137
aS'chair'
p10138
ag10
aS'take'
p10139
aS'it'
p10140
aS'to'
p10141
aS'the'
p10142
aS'blue'
p10143
aS'room'
p10144
ag10
aS'then'
p10145
aS'go'
p10146
aS'back'
p10147
aS'to'
p10148
aS'the'
p10149
aS'red'
p10150
aS'room'
p10151
ag10
aS'then'
p10152
aS'go'
p10153
aS'into'
p10154
aS'the'
p10155
aS'green'
p10156
aS'room'
p10157
aS'agentInRegion  roomIsGreen blockInRegion  roomIsBlue'
p10158
tp10159
a((lp10160
S'return'
p10161
aS'back'
p10162
aS'right'
p10163
aS'move'
p10164
aS'place'
p10165
aS'to'
p10166
aS'turn'
p10167
aS'move'
p10168
aS'to'
p10169
aS'upward'
p10170
aS'to'
p10171
aS'place'
p10172
aS'agentInRegion  roomIsGreen blockInRegion  roomIsBlue'
p10173
tp10174
a((lp10175
S'go'
p10176
aS'to'
p10177
aS'the'
p10178
aS'pink'
p10179
aS'room'
p10180
aS'agentInRegion  roomIsRed'
p10181
tp10182
a((lp10183
S'go'
p10184
aS'to'
p10185
aS'the'
p10186
aS'orange'
p10187
aS'room'
p10188
aS'go'
p10189
aS'to'
p10190
aS'the'
p10191
aS'chair'
p10192
aS'pick'
p10193
aS'up'
p10194
aS'the'
p10195
aS'chair'
p10196
aS'go'
p10197
aS'to'
p10198
aS'the'
p10199
aS'blue'
p10200
aS'room'
p10201
aS'put'
p10202
aS'down'
p10203
aS'the'
p10204
aS'chair'
p10205
aS'go'
p10206
aS'to'
p10207
aS'the'
p10208
aS'green'
p10209
aS'room'
p10210
aS'agentInRegion  roomIsGreen blockInRegion  roomIsBlue'
p10211
tp10212
a((lp10213
S'move'
p10214
aS'to'
p10215
aS'chair'
p10216
aS'move'
p10217
aS'chair'
p10218
aS'to'
p10219
aS'green'
p10220
aS'room'
p10221
aS'move'
p10222
aS'to'
p10223
aS'purple'
p10224
aS'room'
p10225
aS'agentInRegion  roomIsBlue blockInRegion  roomIsGreen'
p10226
tp10227
a((lp10228
S'move'
p10229
aS'to'
p10230
aS'the'
p10231
aS'green'
p10232
aS'room'
p10233
aS'agentInRegion  roomIsGreen'
p10234
tp10235
a((lp10236
S'move'
p10237
aS'to'
p10238
aS'red'
p10239
aS'room'
p10240
aS'agentInRegion  roomIsRed'
p10241
tp10242
a((lp10243
S'push'
p10244
aS'the'
p10245
aS'red'
p10246
aS'chair'
p10247
aS'back'
p10248
aS'into'
p10249
aS'the'
p10250
aS'blue'
p10251
aS'room'
p10252
aS'blockInRegion  roomIsBlue'
p10253
tp10254
a((lp10255
S'go'
p10256
aS'to'
p10257
aS'red'
p10258
aS'room'
p10259
aS'move'
p10260
aS'chair'
p10261
aS'to'
p10262
aS'blue'
p10263
aS'room'
p10264
aS'go'
p10265
aS'to'
p10266
aS'green'
p10267
aS'room'
p10268
aS'agentInRegion  roomIsGreen blockInRegion  roomIsBlue'
p10269
tp10270
a((lp10271
S'go'
p10272
aS'to'
p10273
aS'the'
p10274
aS'chair'
p10275
aS'in'
p10276
aS'the'
p10277
aS'red'
p10278
aS'room'
p10279
ag10
aS'push'
p10280
aS'the'
p10281
aS'chair'
p10282
aS'into'
p10283
aS'the'
p10284
aS'blue'
p10285
aS'room'
p10286
ag10
aS'go'
p10287
aS'into'
p10288
aS'the'
p10289
aS'red'
p10290
aS'room'
p10291
ag10
aS'and'
p10292
aS'then'
p10293
aS'go'
p10294
aS'into'
p10295
aS'the'
p10296
aS'green'
p10297
aS'room'
p10298
aS'agentInRegion  roomIsGreen blockInRegion  roomIsBlue'
p10299
tp10300
a((lp10301
S'go'
p10302
aS'south'
p10303
aS'to'
p10304
aS'room'
p10305
aS'go'
p10306
aS'to'
p10307
aS'chair'
p10308
aS'push'
p10309
aS'it'
p10310
aS'east'
p10311
aS'blockInRegion  roomIsBlue'
p10312
tp10313
a((lp10314
S'go'
p10315
aS'to'
p10316
aS'the'
p10317
aS'pink'
p10318
aS'room'
p10319
aS'and'
p10320
aS'then'
p10321
aS'to'
p10322
aS'the'
p10323
aS'green'
p10324
aS'room'
p10325
aS'agentInRegion  roomIsGreen'
p10326
tp10327
a((lp10328
S'go'
p10329
aS'to'
p10330
aS'the'
p10331
aS'far'
p10332
aS'wall'
p10333
aS'in'
p10334
aS'the'
p10335
aS'pink'
p10336
aS'room'
p10337
aS'turn'
p10338
aS'right'
p10339
aS'turn'
p10340
aS'right'
p10341
aS'again'
p10342
aS'at'
p10343
aS'the'
p10344
aS'wall'
p10345
aS'and'
p10346
aS'then'
p10347
aS'turn'
p10348
aS'right'
p10349
aS'to'
p10350
aS'push'
p10351
aS'the'
p10352
aS'chair'
p10353
aS'across'
p10354
aS'the'
p10355
aS'room'
p10356
aS'blockInRegion  roomIsBlue'
p10357
tp10358
a((lp10359
S'move'
p10360
aS'to'
p10361
aS'the'
p10362
aS'green'
p10363
aS'room'
p10364
aS'and'
p10365
aS'then'
p10366
aS'back'
p10367
aS'to'
p10368
aS'the'
p10369
aS'purple'
p10370
aS'room'
p10371
aS'blockInRegion  roomIsBlue'
p10372
tp10373
a((lp10374
S'go'
p10375
aS'to'
p10376
aS'the'
p10377
aS'red'
p10378
aS'room'
p10379
aS'and'
p10380
aS'get'
p10381
aS'the'
p10382
aS'chair'
p10383
aS'and'
p10384
aS'move'
p10385
aS'it'
p10386
aS'to'
p10387
aS'the'
p10388
aS'purple'
p10389
aS'room'
p10390
aS'blockInRegion  roomIsBlue'
p10391
tp10392
a((lp10393
S'move'
p10394
aS'to'
p10395
aS'the'
p10396
aS'green'
p10397
aS'room'
p10398
aS'blockInRegion  roomIsBlue'
p10399
tp10400
a((lp10401
S'go'
p10402
aS'to'
p10403
aS'the'
p10404
aS'pink'
p10405
aS'room'
p10406
aS'and'
p10407
aS'then'
p10408
aS'go'
p10409
aS'to'
p10410
aS'the'
p10411
aS'green'
p10412
aS'room'
p10413
aS'agentInRegion  roomIsGreen'
p10414
tp10415
a((lp10416
S'go'
p10417
aS'to'
p10418
aS'the'
p10419
aS'red'
p10420
aS'room'
p10421
aS'agentInRegion  roomIsRed'
p10422
tp10423
a((lp10424
S'go'
p10425
aS'to'
p10426
aS'the'
p10427
aS'red'
p10428
aS'room'
p10429
aS'agentInRegion  roomIsRed'
p10430
tp10431
a((lp10432
S'enter'
p10433
aS'the'
p10434
aS'pink'
p10435
aS'room'
p10436
aS'agentInRegion  roomIsRed'
p10437
tp10438
a((lp10439
S'move'
p10440
aS'to'
p10441
aS'the'
p10442
aS'red'
p10443
aS'room'
p10444
aS'and'
p10445
aS'push'
p10446
aS'the'
p10447
aS'chair'
p10448
aS'into'
p10449
aS'the'
p10450
aS'blue'
p10451
aS'room'
p10452
aS'blockInRegion  roomIsBlue'
p10453
tp10454
a((lp10455
S'move'
p10456
aS'to'
p10457
aS'the'
p10458
aS'red'
p10459
aS'room'
p10460
aS'and'
p10461
aS'move'
p10462
aS'the'
p10463
aS'red'
p10464
aS'chair'
p10465
aS'to'
p10466
aS'the'
p10467
aS'blue'
p10468
aS'room'
p10469
aS'blockInRegion  roomIsBlue'
p10470
tp10471
a((lp10472
S'go'
p10473
aS'into'
p10474
aS'the'
p10475
aS'red'
p10476
aS'room'
p10477
aS'agentInRegion  roomIsRed'
p10478
tp10479
a((lp10480
S'go'
p10481
aS'to'
p10482
aS'the'
p10483
aS'pink'
p10484
aS'room'
p10485
aS'and'
p10486
aS'down'
p10487
aS'around'
p10488
aS'the'
p10489
aS'bottom'
p10490
aS'to'
p10491
aS'the'
p10492
aS'chair'
p10493
aS'and'
p10494
aS'then'
p10495
aS'back'
p10496
aS'up'
p10497
aS'to'
p10498
aS'the'
p10499
aS'purple'
p10500
aS'room'
p10501
aS'blockInRegion  roomIsBlue'
p10502
tp10503
a((lp10504
S'move'
p10505
aS'to'
p10506
aS'the'
p10507
aS'green'
p10508
aS'room'
p10509
aS'agentInRegion  roomIsGreen'
p10510
tp10511
a((lp10512
S'move'
p10513
aS'to'
p10514
aS'the'
p10515
aS'green'
p10516
aS'room'
p10517
aS'agentInRegion  roomIsGreen'
p10518
tp10519
a((lp10520
S'go'
p10521
aS'to'
p10522
aS'the'
p10523
aS'red'
p10524
aS'room'
p10525
ag10
aS'get'
p10526
aS'the'
p10527
aS'object'
p10528
ag10
aS'take'
p10529
aS'it'
p10530
aS'to'
p10531
aS'the'
p10532
aS'green'
p10533
aS'room'
p10534
ag10
aS'go'
p10535
aS'to'
p10536
aS'the'
p10537
aS'red'
p10538
aS'room'
p10539
aS'and'
p10540
aS'then'
p10541
aS'back'
p10542
aS'to'
p10543
aS'the'
p10544
aS'blue'
p10545
aS'room'
p10546
aS'agentInRegion  roomIsBlue blockInRegion  roomIsGreen'
p10547
tp10548
a((lp10549
S'go'
p10550
aS'to'
p10551
aS'red'
p10552
aS'room'
p10553
aS'move'
p10554
aS'red'
p10555
aS'chair'
p10556
aS'to'
p10557
aS'blue'
p10558
aS'room'
p10559
aS'then'
p10560
aS'go'
p10561
aS'to'
p10562
aS'green'
p10563
aS'room'
p10564
aS'agentInRegion  roomIsGreen blockInRegion  roomIsBlue'
p10565
tp10566
a((lp10567
S'go'
p10568
aS'to'
p10569
aS'the'
p10570
aS'red'
p10571
aS'room'
p10572
aS'push'
p10573
aS'the'
p10574
aS'chair'
p10575
aS'to'
p10576
aS'the'
p10577
aS'purple'
p10578
aS'room'
p10579
aS'go'
p10580
aS'to'
p10581
aS'the'
p10582
aS'green'
p10583
aS'room'
p10584
aS'agentInRegion  roomIsGreen blockInRegion  roomIsBlue'
p10585
tp10586
a((lp10587
S'go'
p10588
aS'down'
p10589
aS'to'
p10590
aS'the'
p10591
aS'red'
p10592
aS'room'
p10593
aS'and'
p10594
aS'bring'
p10595
aS'the'
p10596
aS'chair'
p10597
aS'to'
p10598
aS'blue'
p10599
aS'room'
p10600
aS'after'
p10601
aS'that'
p10602
aS'go'
p10603
aS'to'
p10604
aS'the'
p10605
aS'green'
p10606
aS'room'
p10607
aS'agentInRegion  roomIsGreen blockInRegion  roomIsBlue'
p10608
tp10609
a((lp10610
S'go'
p10611
aS'to'
p10612
aS'chair'
p10613
aS'push'
p10614
aS'chair'
p10615
aS'into'
p10616
aS'blue'
p10617
aS'room'
p10618
aS'blockInRegion  roomIsBlue'
p10619
tp10620
a((lp10621
S'move'
p10622
aS'to'
p10623
aS'the'
p10624
aS'south'
p10625
aS'side'
p10626
aS'of'
p10627
aS'the'
p10628
aS'bag'
p10629
aS'and'
p10630
aS'push'
p10631
aS'it'
p10632
aS'into'
p10633
aS'the'
p10634
aS'green'
p10635
aS'room'
p10636
aS'agentInRegion  roomIsBlue blockInRegion  roomIsGreen'
p10637
tp10638
a((lp10639
S'go'
p10640
aS'to'
p10641
aS'the'
p10642
aS'chair'
p10643
aS'and'
p10644
aS'move'
p10645
aS'it'
p10646
aS'into'
p10647
aS'the'
p10648
aS'room'
p10649
aS'blockInRegion  roomIsBlue'
p10650
tp10651
a((lp10652
S'go'
p10653
aS'to'
p10654
aS'the'
p10655
aS'pink'
p10656
aS'room'
p10657
aS'agentInRegion  roomIsRed'
p10658
tp10659
a((lp10660
S'move'
p10661
aS'to'
p10662
aS'pink'
p10663
aS'room'
p10664
aS'push'
p10665
aS'chair'
p10666
aS'into'
p10667
aS'purple'
p10668
aS'room'
p10669
aS'move'
p10670
aS'to'
p10671
aS'green'
p10672
aS'room'
p10673
aS'agentInRegion  roomIsGreen blockInRegion  roomIsBlue'
p10674
tp10675
a((lp10676
S'walk'
p10677
aS'from'
p10678
aS'the'
p10679
aS'red'
p10680
aS'room'
p10681
aS'to'
p10682
aS'the'
p10683
aS'green'
p10684
aS'room'
p10685
aS'agentInRegion  roomIsRed'
p10686
tp10687
a((lp10688
S'go'
p10689
aS'to'
p10690
aS'the'
p10691
aS'red'
p10692
aS'room'
p10693
ag10
aS'then'
p10694
aS'push'
p10695
aS'the'
p10696
aS'chair'
p10697
aS'into'
p10698
aS'the'
p10699
aS'green'
p10700
aS'room'
p10701
ag10
aS'then'
p10702
aS'return'
p10703
aS'to'
p10704
aS'the'
p10705
aS'red'
p10706
aS'room'
p10707
ag10
aS'then'
p10708
aS'go'
p10709
aS'to'
p10710
aS'the'
p10711
aS'blue'
p10712
aS'room'
p10713
aS'agentInRegion  roomIsBlue blockInRegion  roomIsGreen'
p10714
tp10715
a((lp10716
S'go'
p10717
aS'to'
p10718
aS'the'
p10719
aS'pink'
p10720
aS'room'
p10721
aS'and'
p10722
aS'then'
p10723
aS'come'
p10724
aS'back'
p10725
aS'to'
p10726
aS'where'
p10727
aS'you'
p10728
aS'started'
p10729
aS'blockInRegion  roomIsBlue'
p10730
tp10731
a((lp10732
S'go'
p10733
aS'to'
p10734
aS'the'
p10735
aS'red'
p10736
aS'room'
p10737
aS'push'
p10738
aS'the'
p10739
aS'chair'
p10740
aS'to'
p10741
aS'the'
p10742
aS'blue'
p10743
aS'room'
p10744
aS'and'
p10745
aS'then'
p10746
aS'go'
p10747
aS'to'
p10748
aS'the'
p10749
aS'green'
p10750
aS'room'
p10751
aS'through'
p10752
aS'the'
p10753
aS'red'
p10754
aS'room'
p10755
aS'agentInRegion  roomIsGreen blockInRegion  roomIsBlue'
p10756
tp10757
a((lp10758
S'go'
p10759
aS'in'
p10760
aS'and'
p10761
aS'then'
p10762
aS'go'
p10763
aS'to'
p10764
aS'the'
p10765
aS'green'
p10766
aS'room'
p10767
aS'agentInRegion  roomIsGreen'
p10768
tp10769
a((lp10770
S'move'
p10771
aS'to'
p10772
aS'the'
p10773
aS'green'
p10774
aS'room'
p10775
aS'and'
p10776
aS'now'
p10777
aS'the'
p10778
aS'red'
p10779
aS'room'
p10780
aS'agentInRegion  roomIsRed'
p10781
tp10782
a((lp10783
S'move'
p10784
aS'into'
p10785
aS'the'
p10786
aS'red'
p10787
aS'room'
p10788
aS'agentInRegion  roomIsRed'
p10789
tp10790
a((lp10791
S'go'
p10792
aS'to'
p10793
aS'the'
p10794
aS'pink'
p10795
aS'room'
p10796
aS'and'
p10797
aS'push'
p10798
aS'the'
p10799
aS'chair'
p10800
aS'back'
p10801
aS'into'
p10802
aS'the'
p10803
aS'blue'
p10804
aS'room'
p10805
aS'blockInRegion  roomIsBlue'
p10806
tp10807
a((lp10808
S'move'
p10809
aS'to'
p10810
aS'the'
p10811
aS'red'
p10812
aS'room'
p10813
ag10
aS'grab'
p10814
aS'the'
p10815
aS'chair'
p10816
ag10
aS'then'
p10817
aS'move'
p10818
aS'to'
p10819
aS'the'
p10820
aS'blue'
p10821
aS'room'
p10822
aS'blockInRegion  roomIsBlue'
p10823
tp10824
a((lp10825
S'go'
p10826
aS'to'
p10827
aS'the'
p10828
aS'red'
p10829
aS'room'
p10830
aS'and'
p10831
aS'grab'
p10832
aS'the'
p10833
aS'chair'
p10834
aS'and'
p10835
aS'leave'
p10836
aS'it'
p10837
aS'in'
p10838
aS'the'
p10839
aS'blue'
p10840
aS'room'
p10841
aS'then'
p10842
aS'go'
p10843
aS'to'
p10844
aS'the'
p10845
aS'green'
p10846
aS'room'
p10847
aS'agentInRegion  roomIsGreen blockInRegion  roomIsBlue'
p10848
tp10849
a((lp10850
S'go'
p10851
aS'to'
p10852
aS'red'
p10853
aS'room'
p10854
aS'agentInRegion  roomIsRed'
p10855
tp10856
a((lp10857
S'go'
p10858
aS'from'
p10859
aS'the'
p10860
aS'blue'
p10861
aS'room'
p10862
aS'into'
p10863
aS'the'
p10864
aS'red'
p10865
aS'room'
p10866
aS'agentInRegion  roomIsRed'
p10867
tp10868
a((lp10869
S'move'
p10870
aS'to'
p10871
aS'the'
p10872
aS'red'
p10873
aS'room'
p10874
aS'agentInRegion  roomIsRed'
p10875
tp10876
a((lp10877
S'go'
p10878
aS'to'
p10879
aS'red'
p10880
aS'room'
p10881
ag10
aS'push'
p10882
aS'chair'
p10883
aS'into'
p10884
aS'the'
p10885
aS'blue'
p10886
aS'room'
p10887
aS'blockInRegion  roomIsBlue'
p10888
tp10889
a((lp10890
S'go'
p10891
aS'to'
p10892
aS'the'
p10893
aS'pink'
p10894
aS'room'
p10895
aS'agentInRegion  roomIsRed'
p10896
tp10897
a((lp10898
S'go'
p10899
aS'to'
p10900
aS'pink'
p10901
aS'room'
p10902
aS'and'
p10903
aS'move'
p10904
aS'chair'
p10905
aS'to'
p10906
aS'blue'
p10907
aS'room'
p10908
aS'blockInRegion  roomIsBlue'
p10909
tp10910
a((lp10911
S'move'
p10912
aS'to'
p10913
aS'the'
p10914
aS'red'
p10915
aS'room'
p10916
aS'push'
p10917
aS'the'
p10918
aS'chair'
p10919
aS'back'
p10920
aS'to'
p10921
aS'the'
p10922
aS'blue'
p10923
aS'room'
p10924
aS'blockInRegion  roomIsBlue'
p10925
tp10926
a((lp10927
S'go'
p10928
aS'in'
p10929
aS'the'
p10930
aS'red'
p10931
aS'room'
p10932
aS'and'
p10933
aS'push'
p10934
aS'the'
p10935
aS'chair'
p10936
aS'to'
p10937
aS'the'
p10938
aS'green'
p10939
aS'room'
p10940
aS'then'
p10941
aS'come'
p10942
aS'back'
p10943
aS'to'
p10944
aS'blue'
p10945
aS'room'
p10946
aS'agentInRegion  roomIsBlue blockInRegion  roomIsGreen'
p10947
tp10948
a((lp10949
S'move'
p10950
aS'to'
p10951
aS'the'
p10952
aS'red'
p10953
aS'room'
p10954
ag10
aS'then'
p10955
aS'move'
p10956
aS'the'
p10957
aS'yellow'
p10958
aS'object'
p10959
aS'to'
p10960
aS'the'
p10961
aS'green'
p10962
aS'room'
p10963
ag10
aS'then'
p10964
aS'move'
p10965
aS'to'
p10966
aS'the'
p10967
aS'blue'
p10968
aS'room'
p10969
aS'agentInRegion  roomIsBlue blockInRegion  roomIsGreen'
p10970
tp10971
a((lp10972
S'move'
p10973
aS'to'
p10974
aS'the'
p10975
aS'red'
p10976
aS'room'
p10977
aS'agentInRegion  roomIsRed'
p10978
tp10979
a((lp10980
S'move'
p10981
aS'chair'
p10982
aS'to'
p10983
aS'purple'
p10984
aS'room'
p10985
aS'blockInRegion  roomIsBlue'
p10986
tp10987
a((lp10988
S'go'
p10989
aS'to'
p10990
aS'the'
p10991
aS'pink'
p10992
aS'room'
p10993
aS'go'
p10994
aS'to'
p10995
aS'the'
p10996
aS'chair'
p10997
aS'pick'
p10998
aS'up'
p10999
aS'the'
p11000
aS'chair'
p11001
aS'go'
p11002
aS'to'
p11003
aS'the'
p11004
aS'green'
p11005
aS'room'
p11006
aS'put'
p11007
aS'down'
p11008
aS'the'
p11009
aS'chair'
p11010
aS'go'
p11011
aS'to'
p11012
aS'the'
p11013
aS'blue'
p11014
aS'room'
p11015
aS'agentInRegion  roomIsBlue blockInRegion  roomIsGreen'
p11016
tp11017
a((lp11018
S'go'
p11019
aS'to'
p11020
aS'red'
p11021
aS'room'
p11022
aS'go'
p11023
aS'down'
p11024
aS'go'
p11025
aS'right'
p11026
aS'go'
p11027
aS'down'
p11028
aS'go'
p11029
aS'to'
p11030
aS'right'
p11031
aS'door'
p11032
aS'go'
p11033
aS'down'
p11034
aS'go'
p11035
aS'right'
p11036
aS'go'
p11037
aS'to'
p11038
aS'left'
p11039
aS'door'
p11040
aS'enter'
p11041
aS'green'
p11042
aS'room'
p11043
aS'agentInRegion  roomIsGreen blockInRegion  roomIsBlue'
p11044
tp11045
a((lp11046
S'go'
p11047
aS'into'
p11048
aS'the'
p11049
aS'red'
p11050
aS'room'
p11051
aS'and'
p11052
aS'push'
p11053
aS'the'
p11054
aS'chair'
p11055
aS'back'
p11056
aS'into'
p11057
aS'the'
p11058
aS'blue'
p11059
aS'room'
p11060
aS'then'
p11061
aS'go'
p11062
aS'into'
p11063
aS'the'
p11064
aS'green'
p11065
aS'room'
p11066
aS'agentInRegion  roomIsGreen blockInRegion  roomIsBlue'
p11067
tp11068
a((lp11069
S'go'
p11070
aS'into'
p11071
aS'the'
p11072
aS'red'
p11073
aS'room'
p11074
aS'and'
p11075
aS'push'
p11076
aS'the'
p11077
aS'object'
p11078
aS'into'
p11079
aS'the'
p11080
aS'green'
p11081
aS'room'
p11082
aS'agentInRegion  roomIsBlue blockInRegion  roomIsGreen'
p11083
tp11084
a((lp11085
S'move'
p11086
aS'west'
p11087
aS'side'
p11088
aS'pink'
p11089
aS'room'
p11090
aS'move'
p11091
aS'east'
p11092
aS'side'
p11093
aS'move'
p11094
aS'purple'
p11095
aS'room'
p11096
aS'blockInRegion  roomIsBlue'
p11097
tp11098
a((lp11099
S'go'
p11100
aS'to'
p11101
aS'the'
p11102
aS'pink'
p11103
aS'room'
p11104
aS'agentInRegion  roomIsRed'
p11105
tp11106
a((lp11107
S'go'
p11108
aS'into'
p11109
aS'the'
p11110
aS'red'
p11111
aS'room'
p11112
ag10
aS'proceed'
p11113
aS'all'
p11114
aS'the'
p11115
aS'way'
p11116
aS'south'
p11117
ag10
aS'go'
p11118
aS'to'
p11119
aS'the'
p11120
aS'west'
p11121
aS'wall'
p11122
ag10
aS'go'
p11123
aS'up'
p11124
ag10
aS'go'
p11125
aS'east'
p11126
ag10
aS'go'
p11127
aS'down'
p11128
ag10
aS'go'
p11129
aS'right'
p11130
ag10
aS'go'
p11131
aS'north'
p11132
aS'into'
p11133
aS'blue'
p11134
aS'room'
p11135
aS'blockInRegion  roomIsBlue'
p11136
tp11137
a((lp11138
S'move'
p11139
aS'into'
p11140
aS'large'
p11141
aS'room'
p11142
aS'agentInRegion  roomIsRed'
p11143
tp11144
a((lp11145
S'go'
p11146
aS'to'
p11147
aS'the'
p11148
aS'red'
p11149
aS'room'
p11150
aS'agentInRegion  roomIsRed'
p11151
tp11152
a((lp11153
S'go'
p11154
aS'to'
p11155
aS'the'
p11156
aS'pink'
p11157
aS'room'
p11158
aS'push'
p11159
aS'the'
p11160
aS'object'
p11161
aS'into'
p11162
aS'the'
p11163
aS'green'
p11164
aS'room'
p11165
aS'go'
p11166
aS'to'
p11167
aS'the'
p11168
aS'pink'
p11169
aS'room'
p11170
aS'go'
p11171
aS'to'
p11172
aS'the'
p11173
aS'blue'
p11174
aS'room'
p11175
aS'agentInRegion  roomIsBlue blockInRegion  roomIsGreen'
p11176
tp11177
a((lp11178
S'go'
p11179
aS'to'
p11180
aS'the'
p11181
aS'red'
p11182
aS'room'
p11183
ag10
aS'get'
p11184
aS'the'
p11185
aS'chair'
p11186
aS'and'
p11187
aS'then'
p11188
aS'go'
p11189
aS'back'
p11190
aS'to'
p11191
aS'the'
p11192
aS'blue'
p11193
aS'room'
p11194
aS'blockInRegion  roomIsBlue'
p11195
tp11196
a((lp11197
S'move'
p11198
aS'to'
p11199
aS'the'
p11200
aS'red'
p11201
aS'room'
p11202
aS'agentInRegion  roomIsRed'
p11203
tp11204
a((lp11205
S'move'
p11206
aS'down'
p11207
aS'into'
p11208
aS'the'
p11209
aS'red'
p11210
aS'room'
p11211
ag10
aS'push'
p11212
aS'the'
p11213
aS'chair'
p11214
aS'to'
p11215
aS'the'
p11216
aS'right'
p11217
aS'and'
p11218
aS'up'
p11219
aS'into'
p11220
aS'the'
p11221
aS'blue'
p11222
aS'room'
p11223
ag10
aS'then'
p11224
aS'pass'
p11225
aS'back'
p11226
aS'into'
p11227
aS'the'
p11228
aS'red'
p11229
aS'room'
p11230
ag10
aS'then'
p11231
aS'up'
p11232
aS'and'
p11233
aS'left'
p11234
aS'to'
p11235
aS'the'
p11236
aS'green'
p11237
aS'room'
p11238
aS'agentInRegion  roomIsGreen blockInRegion  roomIsBlue'
p11239
tp11240
a((lp11241
S'move'
p11242
aS'down'
p11243
aS'to'
p11244
aS'the'
p11245
aS'red'
p11246
aS'room'
p11247
ag10
aS'then'
p11248
aS'move'
p11249
aS'the'
p11250
aS'chair'
p11251
aS'up'
p11252
aS'to'
p11253
aS'the'
p11254
aS'blue'
p11255
aS'room'
p11256
aS'blockInRegion  roomIsBlue'
p11257
tp11258
a((lp11259
S'move'
p11260
aS'to'
p11261
aS'the'
p11262
aS'red'
p11263
aS'room'
p11264
aS'agentInRegion  roomIsRed'
p11265
tp11266
a((lp11267
S'go'
p11268
aS'to'
p11269
aS'the'
p11270
aS'green'
p11271
aS'room'
p11272
aS'agentInRegion  roomIsGreen'
p11273
tp11274
a((lp11275
S'move'
p11276
aS'to'
p11277
aS'the'
p11278
aS'red'
p11279
aS'room'
p11280
ag10
aS'and'
p11281
aS'move'
p11282
aS'into'
p11283
aS'the'
p11284
aS'green'
p11285
aS'room'
p11286
aS'agentInRegion  roomIsGreen'
p11287
tp11288
a((lp11289
S'move'
p11290
aS'out'
p11291
aS'of'
p11292
aS'the'
p11293
aS'room'
p11294
aS'straight'
p11295
aS'ahead'
p11296
aS'agentInRegion  roomIsRed'
p11297
tp11298
a((lp11299
S'go'
p11300
aS'to'
p11301
aS'the'
p11302
aS'red'
p11303
aS'room'
p11304
aS'push'
p11305
aS'the'
p11306
aS'chair'
p11307
aS'to'
p11308
aS'the'
p11309
aS'blue'
p11310
aS'room'
p11311
aS'go'
p11312
aS'to'
p11313
aS'the'
p11314
aS'green'
p11315
aS'room'
p11316
aS'agentInRegion  roomIsGreen blockInRegion  roomIsBlue'
p11317
tp11318
a.