(lp0
(S'move east four steps'
p1
S'Right 4'
p2
tp3
a(S'go down'
p4
S'Down 1'
p5
tp6
a(S'go east four moves'
p7
S'Right 4'
p8
tp9
a(S'move west one'
p10
S'Left 1'
p11
tp12
a(S'and up three spaces'
p13
S'Up 3'
p14
tp15
a(S'south one step'
p16
S'Down 1'
p17
tp18
a(S'go up three times'
p19
S'Up 3'
p20
tp21
a(S', then go down once'
p22
S'Down 1'
p23
tp24
a(S'then north'
p25
S'Up 1'
p26
tp27
a(S'down one space'
p28
S'Down 1'
p29
tp30
a(S'then go right'
p31
S'Right 1'
p32
tp33
a(S', go left'
p34
S'Left 1'
p35
tp36
a(S'left'
p37
S'Left 1'
p38
tp39
a(S'move five steps south'
p40
S'Down 5'
p41
tp42
a(S', south'
p43
S'Down 1'
p44
tp45
a(S', south'
p46
S'Down 1'
p47
tp48
a(S', left three'
p49
S'Left 3'
p50
tp51
a(S'south'
p52
S'Down 1'
p53
tp54
a(S'north one step'
p55
S'Up 1'
p56
tp57
a(S'move down'
p58
S'Down 1'
p59
tp60
a(S', then go up two times'
p61
S'Up 2'
p62
tp63
a(S'move north'
p64
S'Up 1'
p65
tp66
a(S'up three'
p67
S'Up 3'
p68
tp69
a(S'right'
p70
S'Right 1'
p71
tp72
a(S'move up one'
p73
S'Up 1'
p74
tp75
a(S'and up five'
p76
S'Up 5'
p77
tp78
a(S'go west'
p79
S'Left 1'
p80
tp81
a(S'move south four times'
p82
S'Down 4'
p83
tp84
a(S'one step left'
p85
S'Left 1'
p86
tp87
a(S', go up'
p88
S'Up 1'
p89
tp90
a(S', down'
p91
S'Down 1'
p92
tp93
a(S', move south one unit'
p94
S'Down 1'
p95
tp96
a(S'up'
p97
S'Up 1'
p98
tp99
a(S'and move left'
p100
S'Left 1'
p101
tp102
a(S', then go left three times'
p103
S'Left 3'
p104
tp105
a(S'go down three'
p106
S'Down 3'
p107
tp108
a(S'go right'
p109
S'Right 1'
p110
tp111
a(S'left four spaces'
p112
S'Left 4'
p113
tp114
a(S'go east one'
p115
S'Right 1'
p116
tp117
a(S'move up twice'
p118
S'Up 2'
p119
tp120
a(S'left four'
p121
S'Left 4'
p122
tp123
a(S', go west'
p124
S'Left 1'
p125
tp126
a(S'go up one time'
p127
S'Up 1'
p128
tp129
a(S', north'
p130
S'Up 1'
p131
tp132
a(S'move south one space'
p133
S'Down 1'
p134
tp135
a(S'up'
p136
S'Up 1'
p137
tp138
a(S'east four steps'
p139
S'Right 4'
p140
tp141
a(S'right four'
p142
S'Right 4'
p143
tp144
a(S'go up'
p145
S'Up 1'
p146
tp147
a(S'and then go north'
p148
S'Up 1'
p149
tp150
a(S'. move north two spaces'
p151
S'Up 2'
p152
tp153
a(S'down'
p154
S'Down 1'
p155
tp156
a(S'take a single step to the right'
p157
S'Right 1'
p158
tp159
a(S'and down'
p160
S'Down 1'
p161
tp162
a(S'left'
p163
S'Left 1'
p164
tp165
a(S'right'
p166
S'Right 1'
p167
tp168
a(S'move south four steps'
p169
S'Down 4'
p170
tp171
a(S', west'
p172
S'Left 1'
p173
tp174
a(S'and then two up'
p175
S'Up 2'
p176
tp177
a(S'then down three times'
p178
S'Down 3'
p179
tp180
a(S'head south'
p181
S'Down 1'
p182
tp183
a(S'go right'
p184
S'Right 1'
p185
tp186
a(S'then go up once'
p187
S'Up 1'
p188
tp189
a(S'move one space up'
p190
S'Up 1'
p191
tp192
a(S', right'
p193
S'Right 1'
p194
tp195
a(S'down'
p196
S'Down 1'
p197
tp198
a(S'north'
p199
S'Up 1'
p200
tp201
a(S'left'
p202
S'Left 1'
p203
tp204
a(S'go down'
p205
S'Down 1'
p206
tp207
a(S'down'
p208
S'Down 1'
p209
tp210
a(S'left'
p211
S'Left 1'
p212
tp213
a(S'slide right'
p214
S'Right 1'
p215
tp216
a(S'move down five times'
p217
S'Down 5'
p218
tp219
a(S'up'
p220
S'Up 1'
p221
tp222
a(S'down'
p223
S'Down 1'
p224
tp225
a(S'go down three spots'
p226
S'Down 3'
p227
tp228
a(S'left'
p229
S'Left 1'
p230
tp231
a(S'go down'
p232
S'Down 1'
p233
tp234
a(S'go down four spaces'
p235
S'Down 4'
p236
tp237
a(S'move down'
p238
S'Down 1'
p239
tp240
a(S'go up'
p241
S'Up 1'
p242
tp243
a(S'up'
p244
S'Up 1'
p245
tp246
a(S'move south three times'
p247
S'Down 3'
p248
tp249
a(S'turn left'
p250
S'Left 1'
p251
tp252
a(S'turn and move to the east'
p253
S'Right 1'
p254
tp255
a(S'and right'
p256
S'Right 1'
p257
tp258
a(S'up'
p259
S'Up 1'
p260
tp261
a(S'down'
p262
S'Down 1'
p263
tp264
a(S'go down'
p265
S'Down 1'
p266
tp267
a(S'go right four times'
p268
S'Right 4'
p269
tp270
a(S'then down'
p271
S'Down 1'
p272
tp273
a(S', left twice'
p274
S'Left 2'
p275
tp276
a(S'go up'
p277
S'Up 1'
p278
tp279
a(S'and up'
p280
S'Up 1'
p281
tp282
a(S', go north one for space'
p283
S'Up 1'
p284
tp285
a(S'north'
p286
S'Up 1'
p287
tp288
a(S'down one'
p289
S'Down 1'
p290
tp291
a(S'then north'
p292
S'Up 1'
p293
tp294
a(S'down five'
p295
S'Down 5'
p296
tp297
a(S'move up one space'
p298
S'Up 1'
p299
tp300
a(S'right'
p301
S'Right 1'
p302
tp303
a(S'go south one move'
p304
S'Down 1'
p305
tp306
a(S'left'
p307
S'Left 1'
p308
tp309
a(S'go left'
p310
S'Left 1'
p311
tp312
a(S'up'
p313
S'Up 1'
p314
tp315
a(S'move up'
p316
S'Up 1'
p317
tp318
a(S'down'
p319
S'Down 1'
p320
tp321
a(S', up'
p322
S'Up 1'
p323
tp324
a(S'left ,'
p325
S'Left 1'
p326
tp327
a(S'right'
p328
S'Right 1'
p329
tp330
a(S'up three'
p331
S'Up 3'
p332
tp333
a(S'then south'
p334
S'Down 1'
p335
tp336
a(S'left ,'
p337
S'Left 1'
p338
tp339
a(S', down one'
p340
S'Down 1'
p341
tp342
a(S'go left'
p343
S'Left 1'
p344
tp345
a(S'up one'
p346
S'Up 1'
p347
tp348
a(S'go west'
p349
S'Left 1'
p350
tp351
a(S'go south'
p352
S'Down 1'
p353
tp354
a(S'four steps right'
p355
S'Right 4'
p356
tp357
a(S'step once to the west'
p358
S'Left 1'
p359
tp360
a(S'move down three'
p361
S'Down 3'
p362
tp363
a(S'and up'
p364
S'Up 1'
p365
tp366
a(S', left'
p367
S'Left 1'
p368
tp369
a(S'left x4'
p370
S'Left 4'
p371
tp372
a(S'down'
p373
S'Down 1'
p374
tp375
a(S'go down three steps'
p376
S'Down 3'
p377
tp378
a(S'then go up'
p379
S'Up 1'
p380
tp381
a(S'right'
p382
S'Right 1'
p383
tp384
a(S'go right'
p385
S'Right 1'
p386
tp387
a(S'move east one step'
p388
S'Right 1'
p389
tp390
a(S'and finally up three spaces'
p391
S'Up 3'
p392
tp393
a(S'left'
p394
S'Left 1'
p395
tp396
a(S'right one space'
p397
S'Right 1'
p398
tp399
a(S'right'
p400
S'Right 1'
p401
tp402
a(S', go left'
p403
S'Left 1'
p404
tp405
a(S'down'
p406
S'Down 1'
p407
tp408
a(S', west'
p409
S'Left 1'
p410
tp411
a(S', down'
p412
S'Down 1'
p413
tp414
a(S', up'
p415
S'Up 1'
p416
tp417
a(S'go right'
p418
S'Right 1'
p419
tp420
a(S'then go up'
p421
S'Up 1'
p422
tp423
a(S'move right four'
p424
S'Right 4'
p425
tp426
a(S'move down'
p427
S'Down 1'
p428
tp429
a(S'down'
p430
S'Down 1'
p431
tp432
a(S', right'
p433
S'Right 1'
p434
tp435
a(S'move down five steps'
p436
S'Down 5'
p437
tp438
a(S'right four spaces'
p439
S'Right 4'
p440
tp441
a(S'left four'
p442
S'Left 4'
p443
tp444
a(S', down'
p445
S'Down 1'
p446
tp447
a(S'then go up two steps into the green room'
p448
S'Up 2'
p449
tp450
a(S'five steps right'
p451
S'Right 5'
p452
tp453
a(S'north'
p454
S'Up 1'
p455
tp456
a(S'turn east'
p457
S'Right 1'
p458
tp459
a(S'go left'
p460
S'Left 1'
p461
tp462
a(S'go up'
p463
S'Up 1'
p464
tp465
a(S'go right four spaces'
p466
S'Right 4'
p467
tp468
a(S'down'
p469
S'Down 1'
p470
tp471
a(S'left'
p472
S'Left 1'
p473
tp474
a(S', up'
p475
S'Up 1'
p476
tp477
a(S'go up'
p478
S'Up 1'
p479
tp480
a(S'and move three steps left'
p481
S'Left 3'
p482
tp483
a(S'up'
p484
S'Up 1'
p485
tp486
a(S'down'
p487
S'Down 1'
p488
tp489
a(S'left'
p490
S'Left 1'
p491
tp492
a(S'left'
p493
S'Left 1'
p494
tp495
a(S'north'
p496
S'Up 1'
p497
tp498
a(S', right'
p499
S'Right 1'
p500
tp501
a(S', go south'
p502
S'Down 1'
p503
tp504
a(S'west two moves'
p505
S'Left 2'
p506
tp507
a(S'move down five spaces'
p508
S'Down 5'
p509
tp510
a(S'then move west one time'
p511
S'Left 1'
p512
tp513
a(S'move left five'
p514
S'Left 5'
p515
tp516
a(S', east'
p517
S'Left 1'
p518
tp519
a(S'left'
p520
S'Left 1'
p521
tp522
a(S', then up twice'
p523
S'Up 2'
p524
tp525
a(S'go down'
p526
S'Down 1'
p527
tp528
a(S'go up'
p529
S'Up 1'
p530
tp531
a(S'down one'
p532
S'Down 1'
p533
tp534
a(S'go right'
p535
S'Right 1'
p536
tp537
a(S'go right one time'
p538
S'Right 1'
p539
tp540
a(S'go left'
p541
S'Left 1'
p542
tp543
a(S'take one step to left'
p544
S'Left 1'
p545
tp546
a(S'go right'
p547
S'Right 1'
p548
tp549
a(S'and up'
p550
S'Up 1'
p551
tp552
a(S'go left'
p553
S'Left 1'
p554
tp555
a(S'go down'
p556
S'Down 1'
p557
tp558
a(S'south one step'
p559
S'Down 1'
p560
tp561
a(S'left'
p562
S'Left 1'
p563
tp564
a(S'up'
p565
S'Up 1'
p566
tp567
a(S'go down'
p568
S'Down 1'
p569
tp570
a(S'then down one time'
p571
S'Down 1'
p572
tp573
a(S'up three'
p574
S'Up 3'
p575
tp576
a(S'then go west four spaces'
p577
S'Left 4'
p578
tp579
a(S'go down'
p580
S'Down 1'
p581
tp582
a(S'move down'
p583
S'Down 1'
p584
tp585
a(S'go east'
p586
S'Right 1'
p587
tp588
a(S'move one step left and face the wall'
p589
S'Left 1'
p590
tp591
a(S'three north'
p592
S'Up 3'
p593
tp594
a(S'then move east four steps'
p595
S'Right 4'
p596
tp597
a(S'then west four squares'
p598
S'Left 4'
p599
tp600
a(S'right'
p601
S'Right 1'
p602
tp603
a(S', down'
p604
S'Down 1'
p605
tp606
a(S'left'
p607
S'Left 1'
p608
tp609
a(S'down'
p610
S'Down 1'
p611
tp612
a(S'back east'
p613
S'Right 1'
p614
tp615
a(S'go up two'
p616
S'Up 2'
p617
tp618
a(S'right four spaces'
p619
S'Right 4'
p620
tp621
a(S'move down again'
p622
S'Down 1'
p623
tp624
a(S', down'
p625
S'Down 1'
p626
tp627
a(S'four to the right'
p628
S'Right 4'
p629
tp630
a(S'right five spaces'
p631
S'Right 1'
p632
tp633
a(S'right'
p634
S'Right 1'
p635
tp636
a(S'turn and go one space left'
p637
S'Left 1'
p638
tp639
a(S'then go down'
p640
S'Down 1'
p641
tp642
a(S'go south'
p643
S'Down 1'
p644
tp645
a(S'up'
p646
S'Up 1'
p647
tp648
a(S'move east'
p649
S'Right 1'
p650
tp651
a(S'go south'
p652
S'Down 1'
p653
tp654
a(S'go down two'
p655
S'Down 2'
p656
tp657
a(S'then up'
p658
S'Up 1'
p659
tp660
a(S'down'
p661
S'Down 1'
p662
tp663
a(S'move down one space'
p664
S'Down 1'
p665
tp666
a(S'down'
p667
S'Down 1'
p668
tp669
a(S'move south one times'
p670
S'Down 1'
p671
tp672
a(S'go up'
p673
S'Up 1'
p674
tp675
a(S'one down'
p676
S'Down 1'
p677
tp678
a(S'right four'
p679
S'Right 4'
p680
tp681
a(S'go down'
p682
S'Down 1'
p683
tp684
a(S'go south'
p685
S'Down 1'
p686
tp687
a(S'then left three steps'
p688
S'Left 3'
p689
tp690
a(S'left'
p691
S'Left 1'
p692
tp693
a(S'go up'
p694
S'Up 1'
p695
tp696
a(S', go up'
p697
S'Up 1'
p698
tp699
a(S'then south'
p700
S'Down 1'
p701
tp702
a(S'go west'
p703
S'Left 1'
p704
tp705
a(S'right'
p706
S'Right 1'
p707
tp708
a(S'go down'
p709
S'Down 1'
p710
tp711
a(S'right'
p712
S'Right 1'
p713
tp714
a(S'move down'
p715
S'Down 1'
p716
tp717
a(S'step up'
p718
S'Up 1'
p719
tp720
a(S'left'
p721
S'Left 1'
p722
tp723
a(S', go west for three spaces'
p724
S'Left 3'
p725
tp726
a(S'then west'
p727
S'Left 1'
p728
tp729
a(S'one move upward'
p730
S'Up 1'
p731
tp732
a(S'left'
p733
S'Left 1'
p734
tp735
a(S'turn left then advance one space'
p736
S'Left 1'
p737
tp738
a(S'up'
p739
S'Up 1'
p740
tp741
a(S'move south'
p742
S'Down 1'
p743
tp744
a(S', go west for five spaces'
p745
S'Left 5'
p746
tp747
a(S', right'
p748
S'Right 1'
p749
tp750
a(S'move east one step'
p751
S'Right 1'
p752
tp753
a(S'down one'
p754
S'Down 1'
p755
tp756
a(S'down'
p757
S'Down 1'
p758
tp759
a(S'down'
p760
S'Down 1'
p761
tp762
a(S'then left'
p763
S'Left 1'
p764
tp765
a(S'left'
p766
S'Left 1'
p767
tp768
a(S'take one step south'
p769
S'Down 1'
p770
tp771
a(S'right'
p772
S'Right 1'
p773
tp774
a(S'one step up'
p775
S'Up 1'
p776
tp777
a(S'left'
p778
S'Left 1'
p779
tp780
a(S'up'
p781
S'Up 1'
p782
tp783
a(S'down'
p784
S'Down 1'
p785
tp786
a(S'left'
p787
S'Left 1'
p788
tp789
a(S'move left'
p790
S'Left 1'
p791
tp792
a(S'go up'
p793
S'Up 1'
p794
tp795
a(S'up'
p796
S'Up 1'
p797
tp798
a(S'pushing the chair take one step down'
p799
S'Down 1'
p800
tp801
a(S', north three times'
p802
S'Up 3'
p803
tp804
a(S', east'
p805
S'Right 1'
p806
tp807
a(S'down'
p808
S'Down 1'
p809
tp810
a(S'move south three moves'
p811
S'Down 3'
p812
tp813
a(S'and then right four units'
p814
S'Right 4'
p815
tp816
a(S'go right one square'
p817
S'Right 1'
p818
tp819
a(S'right'
p820
S'Right 1'
p821
tp822
a(S', east'
p823
S'Left 1'
p824
tp825
a(S'then go down'
p826
S'Down 1'
p827
tp828
a(S', south'
p829
S'Down 1'
p830
tp831
a(S'go down'
p832
S'Down 1'
p833
tp834
a(S', left'
p835
S'Down 1'
p836
tp837
a(S'step over one spot to the right'
p838
S'Right 1'
p839
tp840
a(S'. move up two times'
p841
S'Up 2'
p842
tp843
a(S'up one'
p844
S'Up 1'
p845
tp846
a(S'go south until you hit the wall'
p847
S'Down 1'
p848
tp849
a(S'go south'
p850
S'Down 1'
p851
tp852
a(S'five down'
p853
S'Down 5'
p854
tp855
a(S'up'
p856
S'Up 1'
p857
tp858
a(S'move right one space'
p859
S'Right 1'
p860
tp861
a(S'turn east and make one move forward'
p862
S'Right 1'
p863
tp864
a(S'go down'
p865
S'Down 1'
p866
tp867
a(S'down'
p868
S'Down 1'
p869
tp870
a(S'and then north two times'
p871
S'Up 2'
p872
tp873
a(S'go down'
p874
S'Down 1'
p875
tp876
a(S'move west two'
p877
S'Left 2'
p878
tp879
a(S'go down'
p880
S'Down 1'
p881
tp882
a(S'west two more spaces'
p883
S'Left 2'
p884
tp885
a(S'then go north one motion'
p886
S'Up 1'
p887
tp888
a(S'right'
p889
S'Right 1'
p890
tp891
a(S'north one step'
p892
S'Up 1'
p893
tp894
a(S'then go left four steps'
p895
S'Left 4'
p896
tp897
a(S'left'
p898
S'Left 1'
p899
tp900
a(S'go south'
p901
S'Down 1'
p902
tp903
a(S'down'
p904
S'Down 1'
p905
tp906
a(S'left'
p907
S'Left 1'
p908
tp909
a(S'move right'
p910
S'Right 1'
p911
tp912
a(S'left four'
p913
S'Left 4'
p914
tp915
a(S'down'
p916
S'Down 1'
p917
tp918
a(S'left'
p919
S'Left 1'
p920
tp921
a(S'go down'
p922
S'Down 1'
p923
tp924
a(S'right'
p925
S'Right 1'
p926
tp927
a(S'move right four spaces'
p928
S'Right 4'
p929
tp930
a(S'then go three steps north'
p931
S'Up 3'
p932
tp933
a(S', down one'
p934
S'Down 1'
p935
tp936
a(S'go west'
p937
S'Right 1'
p938
tp939
a(S'and two through green door'
p940
S'Up 2'
p941
tp942
a(S'move east one step'
p943
S'Right 1'
p944
tp945
a(S'go west'
p946
S'Left 1'
p947
tp948
a(S'right'
p949
S'Right 1'
p950
tp951
a(S'left'
p952
S'Left 1'
p953
tp954
a(S'go down'
p955
S'Down 1'
p956
tp957
a(S'move south three times'
p958
S'Down 3'
p959
tp960
a(S'take three steps south'
p961
S'Down 3'
p962
tp963
a(S'go down three'
p964
S'Down 3'
p965
tp966
a(S'north'
p967
S'Up 1'
p968
tp969
a(S'and right'
p970
S'Right 1'
p971
tp972
a(S'down'
p973
S'Down 1'
p974
tp975
a(S'up'
p976
S'Up 1'
p977
tp978
a(S'go east'
p979
S'Right 1'
p980
tp981
a(S'go down and wait'
p982
S'Down 1'
p983
tp984
a(S'west'
p985
S'Left 1'
p986
tp987
a(S', west'
p988
S'Left 1'
p989
tp990
a(S'four right'
p991
S'Right 4'
p992
tp993
a(S'go south five spaces'
p994
S'Down 5'
p995
tp996
a(S'left'
p997
S'Left 1'
p998
tp999
a(S'then up again'
p1000
S'Up 1'
p1001
tp1002
a(S'left'
p1003
S'Left 1'
p1004
tp1005
a(S'go down'
p1006
S'Down 1'
p1007
tp1008
a(S'then turn west'
p1009
S'Left 1'
p1010
tp1011
a(S'turn to your left and take a step'
p1012
S'Left 1'
p1013
tp1014
a(S', left'
p1015
S'Left 1'
p1016
tp1017
a(S'go south three spots to the other room'
p1018
S'Down 3'
p1019
tp1020
a(S'go up three steps with chair'
p1021
S'Up 3'
p1022
tp1023
a(S', down'
p1024
S'Down 1'
p1025
tp1026
a(S'up'
p1027
S'Up 1'
p1028
tp1029
a(S'down'
p1030
S'Down 1'
p1031
tp1032
a(S'right three'
p1033
S'Right 3'
p1034
tp1035
a(S'right four spaces'
p1036
S'Right 4'
p1037
tp1038
a(S', left'
p1039
S'Left 1'
p1040
tp1041
a(S'go down'
p1042
S'Down 1'
p1043
tp1044
a(S'up'
p1045
S'Up 1'
p1046
tp1047
a(S', go straight down'
p1048
S'Down 1'
p1049
tp1050
a(S'down'
p1051
S'Down 1'
p1052
tp1053
a(S'and then down'
p1054
S'Down 1'
p1055
tp1056
a(S'travel east'
p1057
S'Right 1'
p1058
tp1059
a(S'left five'
p1060
S'Left 5'
p1061
tp1062
a(S'then up two times'
p1063
S'Up 2'
p1064
tp1065
a(S'go south one move'
p1066
S'Down 1'
p1067
tp1068
a(S'go up'
p1069
S'Up 1'
p1070
tp1071
a(S'right one'
p1072
S'Right 1'
p1073
tp1074
a(S'west'
p1075
S'Left 1'
p1076
tp1077
a(S'down'
p1078
S'Down 1'
p1079
tp1080
a(S'down'
p1081
S'Down 1'
p1082
tp1083
a(S', north'
p1084
S'Up 1'
p1085
tp1086
a(S'north three steps'
p1087
S'Up 3'
p1088
tp1089
a(S'go right four steps'
p1090
S'Right 4'
p1091
tp1092
a(S'move east four spaces'
p1093
S'Right 4'
p1094
tp1095
a(S'left'
p1096
S'Left 1'
p1097
tp1098
a(S'go west'
p1099
S'Left 1'
p1100
tp1101
a(S'and then left'
p1102
S'Left 1'
p1103
tp1104
a(S'left'
p1105
S'Left 1'
p1106
tp1107
a(S'turn right ,'
p1108
S'Right 1'
p1109
tp1110
a(S'left'
p1111
S'Left 1'
p1112
tp1113
a(S'right four spaces'
p1114
S'Right 4'
p1115
tp1116
a(S'up one'
p1117
S'Up 1'
p1118
tp1119
a(S'up'
p1120
S'Up 1'
p1121
tp1122
a(S'right one step'
p1123
S'Right 1'
p1124
tp1125
a(S'left'
p1126
S'Left 1'
p1127
tp1128
a(S'take one step forward going north'
p1129
S'Up 1'
p1130
tp1131
a(S'up'
p1132
S'Up 1'
p1133
tp1134
a(S'then north'
p1135
S'Up 1'
p1136
tp1137
a(S'go up'
p1138
S'Left 1'
p1139
tp1140
a(S'down'
p1141
S'Down 1'
p1142
tp1143
a(S'up'
p1144
S'Up 1'
p1145
tp1146
a(S'go left'
p1147
S'Left 1'
p1148
tp1149
a(S'left four'
p1150
S'Left 4'
p1151
tp1152
a(S'right'
p1153
S'Right 1'
p1154
tp1155
a(S'up'
p1156
S'Up 1'
p1157
tp1158
a(S'then north'
p1159
S'Up 1'
p1160
tp1161
a(S'go down'
p1162
S'Down 1'
p1163
tp1164
a(S'turn left'
p1165
S'Left 1'
p1166
tp1167
a(S'up three'
p1168
S'Up 3'
p1169
tp1170
a(S'go down five steps'
p1171
S'Down 5'
p1172
tp1173
a(S'up one'
p1174
S'Up 1'
p1175
tp1176
a(S'down'
p1177
S'Down 1'
p1178
tp1179
a(S'go left'
p1180
S'Left 1'
p1181
tp1182
a(S'right'
p1183
S'Right 1'
p1184
tp1185
a(S'move south one time'
p1186
S'Down 1'
p1187
tp1188
a(S'then move up three times'
p1189
S'Up 3'
p1190
tp1191
a(S'left'
p1192
S'Left 1'
p1193
tp1194
a(S'take five steps south'
p1195
S'Down 5'
p1196
tp1197
a(S'down'
p1198
S'Down 1'
p1199
tp1200
a(S'go south'
p1201
S'Down 1'
p1202
tp1203
a(S'move east one time'
p1204
S'Right 1'
p1205
tp1206
a(S'go left'
p1207
S'Left 1'
p1208
tp1209
a(S'up'
p1210
S'Up 1'
p1211
tp1212
a(S'down three'
p1213
S'Down 3'
p1214
tp1215
a(S'go down five'
p1216
S'Down 5'
p1217
tp1218
a(S'left'
p1219
S'Left 1'
p1220
tp1221
a(S'go left'
p1222
S'Left 1'
p1223
tp1224
a(S'up'
p1225
S'Up 1'
p1226
tp1227
a(S'right four steps'
p1228
S'Right 4'
p1229
tp1230
a(S'go south'
p1231
S'Down 1'
p1232
tp1233
a(S'down'
p1234
S'Down 1'
p1235
tp1236
a(S'left four steps'
p1237
S'Left 4'
p1238
tp1239
a(S'left'
p1240
S'Left 1'
p1241
tp1242
a(S'go up'
p1243
S'Up 1'
p1244
tp1245
a(S'go down'
p1246
S'Down 1'
p1247
tp1248
a(S'up three spaces'
p1249
S'Up 3'
p1250
tp1251
a(S'go right four times'
p1252
S'Right 4'
p1253
tp1254
a(S'move down one space'
p1255
S'Down 1'
p1256
tp1257
a(S'go right'
p1258
S'Right 1'
p1259
tp1260
a(S'south'
p1261
S'Down 1'
p1262
tp1263
a(S'go south'
p1264
S'Down 1'
p1265
tp1266
a(S'down'
p1267
S'Down 1'
p1268
tp1269
a(S'right'
p1270
S'Right 1'
p1271
tp1272
a(S'go north'
p1273
S'Up 1'
p1274
tp1275
a(S'one step to the right'
p1276
S'Right 1'
p1277
tp1278
a(S'go down'
p1279
S'Down 1'
p1280
tp1281
a(S'north one'
p1282
S'Up 1'
p1283
tp1284
a(S'down'
p1285
S'Down 1'
p1286
tp1287
a(S'right'
p1288
S'Right 1'
p1289
tp1290
a(S'up'
p1291
S'Up 1'
p1292
tp1293
a(S'down'
p1294
S'Down 1'
p1295
tp1296
a(S'go down'
p1297
S'Down 1'
p1298
tp1299
a(S'go down'
p1300
S'Down 1'
p1301
tp1302
a(S'right'
p1303
S'Right 1'
p1304
tp1305
a(S', then go down once'
p1306
S'Down 1'
p1307
tp1308
a(S'left four steps'
p1309
S'Left 4'
p1310
tp1311
a(S'south one space'
p1312
S'Down 1'
p1313
tp1314
a(S'move south five times'
p1315
S'Down 5'
p1316
tp1317
a(S'move down five times'
p1318
S'Down 5'
p1319
tp1320
a(S'left'
p1321
S'Left 1'
p1322
tp1323
a(S'and up'
p1324
S'Up 1'
p1325
tp1326
a(S'go west'
p1327
S'Left 1'
p1328
tp1329
a(S', up'
p1330
S'Up 1'
p1331
tp1332
a(S'go down'
p1333
S'Down 1'
p1334
tp1335
a(S'go north'
p1336
S'Up 1'
p1337
tp1338
a(S'left'
p1339
S'Left 1'
p1340
tp1341
a(S'move left five spaces'
p1342
S'Left 5'
p1343
tp1344
a(S'left'
p1345
S'Left 1'
p1346
tp1347
a(S'go south five steps'
p1348
S'Down 5'
p1349
tp1350
a(S'go up'
p1351
S'Up 1'
p1352
tp1353
a(S'move north three spaces'
p1354
S'Up 3'
p1355
tp1356
a(S'go south'
p1357
S'Down 1'
p1358
tp1359
a(S'travel up'
p1360
S'Up 1'
p1361
tp1362
a(S'go up one time'
p1363
S'Up 1'
p1364
tp1365
a(S'go down'
p1366
S'Down 1'
p1367
tp1368
a(S'up'
p1369
S'Up 1'
p1370
tp1371
a(S'right five'
p1372
S'Right 5'
p1373
tp1374
a(S'south five'
p1375
S'Down 5'
p1376
tp1377
a(S'and then two steps north'
p1378
S'Up 2'
p1379
tp1380
a(S'and then west'
p1381
S'Left 1'
p1382
tp1383
a(S'left one'
p1384
S'Left 1'
p1385
tp1386
a(S', go down'
p1387
S'Down 1'
p1388
tp1389
a(S'south another space'
p1390
S'Down 1'
p1391
tp1392
a(S'west'
p1393
S'Right 1'
p1394
tp1395
a(S'go down three steps'
p1396
S'Down 3'
p1397
tp1398
a(S'up'
p1399
S'Up 1'
p1400
tp1401
a(S', south'
p1402
S'Down 1'
p1403
tp1404
a(S', go left'
p1405
S'Left 1'
p1406
tp1407
a(S'move towards right'
p1408
S'Right 1'
p1409
tp1410
a(S'down'
p1411
S'Down 1'
p1412
tp1413
a(S'move west five times'
p1414
S'Left 5'
p1415
tp1416
a(S'go south'
p1417
S'Down 1'
p1418
tp1419
a(S'take a step towards left'
p1420
S'Left 1'
p1421
tp1422
a(S', down'
p1423
S'Down 1'
p1424
tp1425
a(S'go down'
p1426
S'Down 1'
p1427
tp1428
a(S'then go right'
p1429
S'Right 1'
p1430
tp1431
a(S'four steps to the right'
p1432
S'Right 4'
p1433
tp1434
a(S'then east'
p1435
S'Right 1'
p1436
tp1437
a(S'right'
p1438
S'Right 1'
p1439
tp1440
a(S', go down'
p1441
S'Down 1'
p1442
tp1443
a(S'south'
p1444
S'Down 1'
p1445
tp1446
a(S'go down'
p1447
S'Down 1'
p1448
tp1449
a(S'down'
p1450
S'Down 1'
p1451
tp1452
a(S'go down'
p1453
S'Down 1'
p1454
tp1455
a(S'down'
p1456
S'Down 1'
p1457
tp1458
a(S'down one'
p1459
S'Down 1'
p1460
tp1461
a(S'go down'
p1462
S'Down 1'
p1463
tp1464
a(S'move south one'
p1465
S'Down 1'
p1466
tp1467
a(S'go left'
p1468
S'Left 1'
p1469
tp1470
a(S', five steps west'
p1471
S'Left 5'
p1472
tp1473
a(S'left'
p1474
S'Left 1'
p1475
tp1476
a(S'go east'
p1477
S'Right 1'
p1478
tp1479
a(S'down'
p1480
S'Down 1'
p1481
tp1482
a(S'turn to your right'
p1483
S'Right 1'
p1484
tp1485
a(S'up three spaces'
p1486
S'Up 3'
p1487
tp1488
a(S'move right one spaces'
p1489
S'Right 1'
p1490
tp1491
a(S'go down five steps'
p1492
S'Down 5'
p1493
tp1494
a(S'move north one space'
p1495
S'Up 1'
p1496
tp1497
a(S'up'
p1498
S'Up 1'
p1499
tp1500
a(S'and up'
p1501
S'Up 1'
p1502
tp1503
a(S'turn west'
p1504
S'Left 1'
p1505
tp1506
a(S'go left'
p1507
S'Left 1'
p1508
tp1509
a(S', left'
p1510
S'Left 1'
p1511
tp1512
a(S'move west five steps'
p1513
S'Left 5'
p1514
tp1515
a(S', right'
p1516
S'Right 1'
p1517
tp1518
a(S'south'
p1519
S'Down 1'
p1520
tp1521
a(S'go up'
p1522
S'Up 1'
p1523
tp1524
a(S'go west one pace'
p1525
S'Left 1'
p1526
tp1527
a(S', down'
p1528
S'Down 1'
p1529
tp1530
a(S'south'
p1531
S'Down 1'
p1532
tp1533
a(S'up'
p1534
S'Up 1'
p1535
tp1536
a(S'down ,'
p1537
S'Down 1'
p1538
tp1539
a(S'north'
p1540
S'Up 1'
p1541
tp1542
a(S'and then down once more'
p1543
S'Down 1'
p1544
tp1545
a(S'go south'
p1546
S'Down 1'
p1547
tp1548
a(S'left'
p1549
S'Left 1'
p1550
tp1551
a(S'go right'
p1552
S'Right 1'
p1553
tp1554
a(S'go south'
p1555
S'Down 1'
p1556
tp1557
a(S'to the right'
p1558
S'Right 1'
p1559
tp1560
a(S'left'
p1561
S'Left 1'
p1562
tp1563
a(S'move south one time'
p1564
S'Down 1'
p1565
tp1566
a(S'up two steps'
p1567
S'Up 2'
p1568
tp1569
a(S'then right'
p1570
S'Right 1'
p1571
tp1572
a(S'robot a , go straight down'
p1573
S'Down 1'
p1574
tp1575
a(S'left'
p1576
S'Left 1'
p1577
tp1578
a(S'down'
p1579
S'Down 1'
p1580
tp1581
a(S'then right four steps'
p1582
S'Right 4'
p1583
tp1584
a(S'up'
p1585
S'Up 1'
p1586
tp1587
a(S', go left four times'
p1588
S'Left 4'
p1589
tp1590
a(S'go down'
p1591
S'Down 1'
p1592
tp1593
a(S'go left'
p1594
S'Left 1'
p1595
tp1596
a(S'go west'
p1597
S'Left 1'
p1598
tp1599
a(S', west'
p1600
S'Left 1'
p1601
tp1602
a(S'go down'
p1603
S'Down 1'
p1604
tp1605
a(S', east four times'
p1606
S'Right 4'
p1607
tp1608
a(S'go down'
p1609
S'Down 1'
p1610
tp1611
a(S'go south three steps'
p1612
S'Down 3'
p1613
tp1614
a(S'down'
p1615
S'Down 1'
p1616
tp1617
a(S'look right , move right'
p1618
S'Right 1'
p1619
tp1620
a(S'and then up two steps'
p1621
S'Up 2'
p1622
tp1623
a(S', go right'
p1624
S'Right 1'
p1625
tp1626
a(S'up'
p1627
S'Up 1'
p1628
tp1629
a(S'then go north two paces'
p1630
S'Up 2'
p1631
tp1632
a(S'one step right'
p1633
S'Right 1'
p1634
tp1635
a(S'go north'
p1636
S'Up 1'
p1637
tp1638
a(S'right one'
p1639
S'Right 1'
p1640
tp1641
a(S', down'
p1642
S'Down 1'
p1643
tp1644
a(S'move down one'
p1645
S'Down 1'
p1646
tp1647
a(S'down'
p1648
S'Down 1'
p1649
tp1650
a(S', south one time'
p1651
S'Down 1'
p1652
tp1653
a(S'go south'
p1654
S'Down 1'
p1655
tp1656
a(S'up one space'
p1657
S'Up 1'
p1658
tp1659
a(S'go down one square'
p1660
S'Down 1'
p1661
tp1662
a(S'left five spaces'
p1663
S'Left 5'
p1664
tp1665
a(S'left'
p1666
S'Left 1'
p1667
tp1668
a(S'go south'
p1669
S'Down 1'
p1670
tp1671
a(S'right'
p1672
S'Right 1'
p1673
tp1674
a(S'left five'
p1675
S'Left 5'
p1676
tp1677
a(S'down'
p1678
S'Down 1'
p1679
tp1680
a(S'go down'
p1681
S'Down 1'
p1682
tp1683
a(S'go south three steps'
p1684
S'Down 3'
p1685
tp1686
a(S', left'
p1687
S'Left 1'
p1688
tp1689
a(S'down'
p1690
S'Down 1'
p1691
tp1692
a(S'up one'
p1693
S'Up 1'
p1694
tp1695
a(S'left'
p1696
S'Left 1'
p1697
tp1698
a(S'move down'
p1699
S'Down 1'
p1700
tp1701
a(S'then go right'
p1702
S'Right 1'
p1703
tp1704
a(S', north'
p1705
S'Up 1'
p1706
tp1707
a(S'and finally up three times'
p1708
S'Up 3'
p1709
tp1710
a(S'up'
p1711
S'Up 1'
p1712
tp1713
a(S'left'
p1714
S'Left 1'
p1715
tp1716
a(S'right'
p1717
S'Right 1'
p1718
tp1719
a(S'move south once'
p1720
S'Down 1'
p1721
tp1722
a(S'move east four times'
p1723
S'Right 4'
p1724
tp1725
a(S'then three steps west'
p1726
S'Left 3'
p1727
tp1728
a(S'three north'
p1729
S'Up 3'
p1730
tp1731
a(S'left one'
p1732
S'Left 1'
p1733
tp1734
a(S'down'
p1735
S'Down 1'
p1736
tp1737
a(S'go up'
p1738
S'Left 1'
p1739
tp1740
a(S', west'
p1741
S'Left 1'
p1742
tp1743
a(S', then go left once'
p1744
S'Left 1'
p1745
tp1746
a(S'down'
p1747
S'Down 1'
p1748
tp1749
a(S'go south three times'
p1750
S'Down 3'
p1751
tp1752
a(S'turn your body to the right and move one step'
p1753
S'Right 1'
p1754
tp1755
a(S'up'
p1756
S'Up 1'
p1757
tp1758
a(S'left'
p1759
S'Left 1'
p1760
tp1761
a(S'down'
p1762
S'Down 1'
p1763
tp1764
a(S'then go one step south'
p1765
S'Down 1'
p1766
tp1767
a(S'go west one move'
p1768
S'Left 1'
p1769
tp1770
a(S'down one space'
p1771
S'Down 1'
p1772
tp1773
a(S'then move north two steps'
p1774
S'Up 2'
p1775
tp1776
a(S'right'
p1777
S'Right 1'
p1778
tp1779
a(S'left'
p1780
S'Left 1'
p1781
tp1782
a(S'right'
p1783
S'Right 1'
p1784
tp1785
a(S'right'
p1786
S'Right 1'
p1787
tp1788
a(S'up'
p1789
S'Up 1'
p1790
tp1791
a(S'west'
p1792
S'Left 1'
p1793
tp1794
a(S'go down five'
p1795
S'Down 5'
p1796
tp1797
a(S'north'
p1798
S'Up 1'
p1799
tp1800
a(S'go up'
p1801
S'Up 1'
p1802
tp1803
a(S'go left'
p1804
S'Left 1'
p1805
tp1806
a(S'go south'
p1807
S'Down 1'
p1808
tp1809
a(S'go left four steps'
p1810
S'Left 4'
p1811
tp1812
a(S'left'
p1813
S'Left 1'
p1814
tp1815
a(S'up'
p1816
S'Up 1'
p1817
tp1818
a(S'west'
p1819
S'Left 1'
p1820
tp1821
a(S'east four steps'
p1822
S'Right 4'
p1823
tp1824
a(S'down one space'
p1825
S'Down 1'
p1826
tp1827
a(S'left'
p1828
S'Left 1'
p1829
tp1830
a(S', go right'
p1831
S'Right 1'
p1832
tp1833
a(S'go down one time'
p1834
S'Down 1'
p1835
tp1836
a(S'left four'
p1837
S'Left 4'
p1838
tp1839
a(S'go right'
p1840
S'Right 1'
p1841
tp1842
a(S'move up two'
p1843
S'Up 2'
p1844
tp1845
a(S'then down one step'
p1846
S'Down 1'
p1847
tp1848
a(S'then go right'
p1849
S'Right 1'
p1850
tp1851
a(S'take a step to your right'
p1852
S'Right 1'
p1853
tp1854
a(S'move north two times'
p1855
S'Up 2'
p1856
tp1857
a(S'right'
p1858
S'Right 1'
p1859
tp1860
a(S'down'
p1861
S'Down 1'
p1862
tp1863
a(S'turn to your right and move ahead one space'
p1864
S'Right 1'
p1865
tp1866
a(S'left four'
p1867
S'Left 4'
p1868
tp1869
a(S'go three paces south'
p1870
S'Down 3'
p1871
tp1872
a(S'south'
p1873
S'Down 1'
p1874
tp1875
a(S'right'
p1876
S'Right 1'
p1877
tp1878
a(S'one step down'
p1879
S'Down 1'
p1880
tp1881
a(S'move right three times'
p1882
S'Right 3'
p1883
tp1884
a(S', go south'
p1885
S'Down 1'
p1886
tp1887
a(S', left'
p1888
S'Left 1'
p1889
tp1890
a(S'north'
p1891
S'Up 1'
p1892
tp1893
a(S'go east'
p1894
S'Right 1'
p1895
tp1896
a(S'go up one step'
p1897
S'Up 1'
p1898
tp1899
a(S'and then north'
p1900
S'Up 1'
p1901
tp1902
a(S'left two'
p1903
S'Left 2'
p1904
tp1905
a(S'go right'
p1906
S'Right 1'
p1907
tp1908
a(S'go right'
p1909
S'Right 1'
p1910
tp1911
a(S'go down three steps'
p1912
S'Down 3'
p1913
tp1914
a(S'down'
p1915
S'Down 1'
p1916
tp1917
a(S'right'
p1918
S'Right 1'
p1919
tp1920
a(S'go down three steps'
p1921
S'Down 3'
p1922
tp1923
a(S'move up'
p1924
S'Up 1'
p1925
tp1926
a(S'move down five times'
p1927
S'Down 5'
p1928
tp1929
a(S'west four steps'
p1930
S'Left 4'
p1931
tp1932
a(S', go up'
p1933
S'Right 1'
p1934
tp1935
a(S'move south one unit'
p1936
S'Down 1'
p1937
tp1938
a(S', then go up three times'
p1939
S'Up 3'
p1940
tp1941
a(S'south one step'
p1942
S'Down 1'
p1943
tp1944
a(S'and move north two times'
p1945
S'Up 2'
p1946
tp1947
a(S'down'
p1948
S'Down 1'
p1949
tp1950
a(S'left'
p1951
S'Left 1'
p1952
tp1953
a(S', up'
p1954
S'Up 1'
p1955
tp1956
a(S'and up'
p1957
S'Up 1'
p1958
tp1959
a(S'and then go down'
p1960
S'Down 1'
p1961
tp1962
a(S'go left four steps'
p1963
S'Left 4'
p1964
tp1965
a(S'go down'
p1966
S'Down 1'
p1967
tp1968
a(S', down'
p1969
S'Down 1'
p1970
tp1971
a(S'go down'
p1972
S'Down 1'
p1973
tp1974
a(S'move north'
p1975
S'Up 1'
p1976
tp1977
a(S'south'
p1978
S'Down 1'
p1979
tp1980
a(S', go left'
p1981
S'Left 1'
p1982
tp1983
a(S', west'
p1984
S'Left 1'
p1985
tp1986
a(S'right three'
p1987
S'Right 3'
p1988
tp1989
a(S'down five'
p1990
S'Down 5'
p1991
tp1992
a(S'up three'
p1993
S'Up 3'
p1994
tp1995
a(S'move right one'
p1996
S'Right 1'
p1997
tp1998
a(S'go right'
p1999
S'Right 1'
p2000
tp2001
a(S'move north two'
p2002
S'Up 2'
p2003
tp2004
a(S'up three'
p2005
S'Up 3'
p2006
tp2007
a(S'left'
p2008
S'Left 1'
p2009
tp2010
a(S'right'
p2011
S'Right 1'
p2012
tp2013
a(S'then up'
p2014
S'Up 1'
p2015
tp2016
a(S'go right'
p2017
S'Right 1'
p2018
tp2019
a(S'go down'
p2020
S'Down 1'
p2021
tp2022
a(S'go down'
p2023
S'Down 1'
p2024
tp2025
a(S', one step north'
p2026
S'Up 1'
p2027
tp2028
a(S'go down'
p2029
S'Down 1'
p2030
tp2031
a(S'move east one space'
p2032
S'Right 1'
p2033
tp2034
a(S'then go right'
p2035
S'Right 1'
p2036
tp2037
a(S'south one space'
p2038
S'Down 1'
p2039
tp2040
a(S'two more steps west'
p2041
S'Left 1'
p2042
tp2043
a(S'down'
p2044
S'Down 1'
p2045
tp2046
a(S'west three moves'
p2047
S'Left 1'
p2048
tp2049
a(S'move down'
p2050
S'Down 1'
p2051
tp2052
a(S'move up'
p2053
S'Up 2'
p2054
tp2055
a(S'go down three steps'
p2056
S'Down 3'
p2057
tp2058
a(S'and then north'
p2059
S'Up 1'
p2060
tp2061
a(S', down once'
p2062
S'Down 1'
p2063
tp2064
a(S'north'
p2065
S'Up 1'
p2066
tp2067
a(S'right'
p2068
S'Right 1'
p2069
tp2070
a(S'north'
p2071
S'Up 1'
p2072
tp2073
a(S'five steps to the right'
p2074
S'Right 5'
p2075
tp2076
a(S'go south'
p2077
S'Down 1'
p2078
tp2079
a(S'move up once'
p2080
S'Up 1'
p2081
tp2082
a(S', left'
p2083
S'Left 1'
p2084
tp2085
a(S'then north'
p2086
S'Up 1'
p2087
tp2088
a(S'five steps west'
p2089
S'Left 5'
p2090
tp2091
a(S'right'
p2092
S'Right 1'
p2093
tp2094
a(S'up three'
p2095
S'Up 3'
p2096
tp2097
a(S'and go up'
p2098
S'Up 1'
p2099
tp2100
a(S'go west for four steps'
p2101
S'Left 4'
p2102
tp2103
a(S'go down'
p2104
S'Down 1'
p2105
tp2106
a(S'go right'
p2107
S'Right 1'
p2108
tp2109
a(S'down'
p2110
S'Down 1'
p2111
tp2112
a(S', left'
p2113
S'Left 1'
p2114
tp2115
a(S'left'
p2116
S'Left 1'
p2117
tp2118
a(S', left'
p2119
S'Left 1'
p2120
tp2121
a(S'then down a step'
p2122
S'Down 1'
p2123
tp2124
a(S'and go right'
p2125
S'Right 1'
p2126
tp2127
a(S'down'
p2128
S'Down 3'
p2129
tp2130
a(S'go down'
p2131
S'Down 1'
p2132
tp2133
a(S'left five'
p2134
S'Left 5'
p2135
tp2136
a(S'then left'
p2137
S'Left 1'
p2138
tp2139
a(S', west'
p2140
S'Left 1'
p2141
tp2142
a(S'left'
p2143
S'Left 1'
p2144
tp2145
a(S'left'
p2146
S'Left 1'
p2147
tp2148
a(S'go down'
p2149
S'Down 1'
p2150
tp2151
a(S'go south'
p2152
S'Down 1'
p2153
tp2154
a(S'left five'
p2155
S'Left 5'
p2156
tp2157
a(S'right'
p2158
S'Right 1'
p2159
tp2160
a(S'move down'
p2161
S'Down 1'
p2162
tp2163
a(S'then right'
p2164
S'Right 1'
p2165
tp2166
a(S'go right'
p2167
S'Right 1'
p2168
tp2169
a(S', up'
p2170
S'Up 1'
p2171
tp2172
a(S'north two'
p2173
S'Up 2'
p2174
tp2175
a(S'east one'
p2176
S'Right 1'
p2177
tp2178
a(S'move right one'
p2179
S'Right 1'
p2180
tp2181
a(S'down'
p2182
S'Down 1'
p2183
tp2184
a(S'go down'
p2185
S'Down 1'
p2186
tp2187
a(S'go down two steps'
p2188
S'Down 2'
p2189
tp2190
a(S'go south'
p2191
S'Down 1'
p2192
tp2193
a(S', left'
p2194
S'Left 1'
p2195
tp2196
a(S'move south five spaces'
p2197
S'Down 5'
p2198
tp2199
a(S'left'
p2200
S'Left 1'
p2201
tp2202
a(S'south'
p2203
S'Down 1'
p2204
tp2205
a(S'move left'
p2206
S'Left 1'
p2207
tp2208
a(S'right'
p2209
S'Right 1'
p2210
tp2211
a(S'go down'
p2212
S'Down 1'
p2213
tp2214
a(S', go right'
p2215
S'Right 1'
p2216
tp2217
a(S'move right one'
p2218
S'Right 1'
p2219
tp2220
a(S'down'
p2221
S'Down 1'
p2222
tp2223
a(S'right'
p2224
S'Right 1'
p2225
tp2226
a(S'take a step to your left'
p2227
S'Left 1'
p2228
tp2229
a(S'down'
p2230
S'Down 1'
p2231
tp2232
a(S'north one step'
p2233
S'Up 1'
p2234
tp2235
a(S'go south'
p2236
S'Down 1'
p2237
tp2238
a(S'go right four times'
p2239
S'Right 4'
p2240
tp2241
a(S'take three steps south'
p2242
S'Down 1'
p2243
tp2244
a(S'four steps right'
p2245
S'Right 4'
p2246
tp2247
a(S'go to down'
p2248
S'Down 1'
p2249
tp2250
a(S'up three'
p2251
S'Up 3'
p2252
tp2253
a(S'move south five times'
p2254
S'Down 5'
p2255
tp2256
a(S'go down'
p2257
S'Down 1'
p2258
tp2259
a(S'and finally up three steps'
p2260
S'Up 3'
p2261
tp2262
a(S'go west two moves'
p2263
S'Left 2'
p2264
tp2265
a(S'go down'
p2266
S'Down 3'
p2267
tp2268
a(S', west'
p2269
S'Left 1'
p2270
tp2271
a(S'up three'
p2272
S'Up 3'
p2273
tp2274
a(S'go left five times'
p2275
S'Left 5'
p2276
tp2277
a(S'right one'
p2278
S'Right 1'
p2279
tp2280
a(S'up'
p2281
S'Up 1'
p2282
tp2283
a(S'east four steps'
p2284
S'Right 4'
p2285
tp2286
a(S', left'
p2287
S'Left 1'
p2288
tp2289
a(S'and move north three times'
p2290
S'Up 3'
p2291
tp2292
a(S'left'
p2293
S'Left 1'
p2294
tp2295
a(S'go left three times'
p2296
S'Left 3'
p2297
tp2298
a(S'move to the right a single step'
p2299
S'Right 1'
p2300
tp2301
a(S', down'
p2302
S'Down 1'
p2303
tp2304
a(S'right'
p2305
S'Right 1'
p2306
tp2307
a(S'another step south'
p2308
S'Down 1'
p2309
tp2310
a(S'go up'
p2311
S'Up 1'
p2312
tp2313
a(S'then right'
p2314
S'Right 1'
p2315
tp2316
a(S'then go up'
p2317
S'Up 1'
p2318
tp2319
a(S', left one'
p2320
S'Left 1'
p2321
tp2322
a(S'go east'
p2323
S'Right 1'
p2324
tp2325
a(S', then go up three times'
p2326
S'Up 3'
p2327
tp2328
a(S'go west'
p2329
S'Left 1'
p2330
tp2331
a(S'go right four times'
p2332
S'Right 4'
p2333
tp2334
a(S'move up'
p2335
S'Up 1'
p2336
tp2337
a(S'right'
p2338
S'Right 1'
p2339
tp2340
a(S'left'
p2341
S'Left 1'
p2342
tp2343
a(S', go south'
p2344
S'Down 1'
p2345
tp2346
a(S'move five steps down'
p2347
S'Down 5'
p2348
tp2349
a(S'go left'
p2350
S'Left 1'
p2351
tp2352
a(S', right'
p2353
S'Right 1'
p2354
tp2355
a(S'left'
p2356
S'Left 1'
p2357
tp2358
a(S'left'
p2359
S'Left 1'
p2360
tp2361
a(S'move east'
p2362
S'Right 1'
p2363
tp2364
a(S'west'
p2365
S'Left 1'
p2366
tp2367
a(S'go down'
p2368
S'Down 1'
p2369
tp2370
a(S'then move up two times'
p2371
S'Up 2'
p2372
tp2373
a(S'go down three spaces'
p2374
S'Down 3'
p2375
tp2376
a(S'and move one step up'
p2377
S'Up 1'
p2378
tp2379
a(S'up'
p2380
S'Up 1'
p2381
tp2382
a(S', one step east'
p2383
S'Left 1'
p2384
tp2385
a(S'four east'
p2386
S'Right 4'
p2387
tp2388
a(S'pick up chair go east'
p2389
S'Right 1'
p2390
tp2391
a(S'down'
p2392
S'Down 1'
p2393
tp2394
a(S'move left four'
p2395
S'Left 4'
p2396
tp2397
a(S'up'
p2398
S'Up 1'
p2399
tp2400
a(S'up'
p2401
S'Up 1'
p2402
tp2403
a(S'then go right four times'
p2404
S'Right 4'
p2405
tp2406
a(S'then go up once'
p2407
S'Up 1'
p2408
tp2409
a(S'then up three times'
p2410
S'Up 3'
p2411
tp2412
a(S'go up'
p2413
S'Up 1'
p2414
tp2415
a(S'left'
p2416
S'Left 1'
p2417
tp2418
a(S'move south one'
p2419
S'Down 1'
p2420
tp2421
a(S'left'
p2422
S'Left 1'
p2423
tp2424
a(S'go down'
p2425
S'Down 1'
p2426
tp2427
a(S', south'
p2428
S'Down 1'
p2429
tp2430
a(S'left'
p2431
S'Left 1'
p2432
tp2433
a(S'move down one spaces'
p2434
S'Down 1'
p2435
tp2436
a(S'go down three'
p2437
S'Down 3'
p2438
tp2439
a(S'go down five spaces'
p2440
S'Down 5'
p2441
tp2442
a(S'west one move'
p2443
S'Left 1'
p2444
tp2445
a(S'and go north'
p2446
S'Up 1'
p2447
tp2448
a(S'left'
p2449
S'Left 1'
p2450
tp2451
a(S'left ,'
p2452
S'Left 1'
p2453
tp2454
a(S'go down once'
p2455
S'Down 1'
p2456
tp2457
a(S'right'
p2458
S'Right 1'
p2459
tp2460
a(S'north three step'
p2461
S'Up 3'
p2462
tp2463
a(S'down one'
p2464
S'Down 1'
p2465
tp2466
a(S'go right'
p2467
S'Right 1'
p2468
tp2469
a(S', left'
p2470
S'Left 1'
p2471
tp2472
a(S'go down'
p2473
S'Down 1'
p2474
tp2475
a(S'go down'
p2476
S'Down 1'
p2477
tp2478
a(S'east four steps'
p2479
S'Right 4'
p2480
tp2481
a(S'move south three'
p2482
S'Down 1'
p2483
tp2484
a(S'turn right and move forward one space'
p2485
S'Right 1'
p2486
tp2487
a(S'down'
p2488
S'Down 1'
p2489
tp2490
a(S'move left four times'
p2491
S'Left 4'
p2492
tp2493
a(S'left'
p2494
S'Left 1'
p2495
tp2496
a(S'left'
p2497
S'Left 1'
p2498
tp2499
a(S'step one space to the left'
p2500
S'Left 1'
p2501
tp2502
a(S', go east for one space'
p2503
S'Left 1'
p2504
tp2505
a(S'up two'
p2506
S'Up 2'
p2507
tp2508
a(S'then down one step'
p2509
S'Down 1'
p2510
tp2511
a(S'and right'
p2512
S'Right 1'
p2513
tp2514
a(S'left'
p2515
S'Left 1'
p2516
tp2517
a(S'and up'
p2518
S'Up 1'
p2519
tp2520
a(S', left once'
p2521
S'Left 1'
p2522
tp2523
a(S'then left one step'
p2524
S'Left 1'
p2525
tp2526
a(S'up'
p2527
S'Up 1'
p2528
tp2529
a(S'up'
p2530
S'Up 1'
p2531
tp2532
a(S'up'
p2533
S'Up 1'
p2534
tp2535
a(S'move down three times'
p2536
S'Down 3'
p2537
tp2538
a(S'then up'
p2539
S'Up 1'
p2540
tp2541
a(S', west'
p2542
S'Left 1'
p2543
tp2544
a(S'go up'
p2545
S'Up 1'
p2546
tp2547
a(S'east'
p2548
S'Right 1'
p2549
tp2550
a(S'left'
p2551
S'Left 1'
p2552
tp2553
a(S'move south one movement'
p2554
S'Down 1'
p2555
tp2556
a(S'go up leave chair'
p2557
S'Up 1'
p2558
tp2559
a(S'go down'
p2560
S'Down 1'
p2561
tp2562
a(S'go south'
p2563
S'Down 1'
p2564
tp2565
a(S'down'
p2566
S'Down 1'
p2567
tp2568
a(S'go down'
p2569
S'Down 1'
p2570
tp2571
a(S'left'
p2572
S'Left 1'
p2573
tp2574
a(S'right'
p2575
S'Right 1'
p2576
tp2577
a(S'down'
p2578
S'Down 1'
p2579
tp2580
a(S'west'
p2581
S'Left 1'
p2582
tp2583
a(S'then down'
p2584
S'Down 1'
p2585
tp2586
a(S'go south'
p2587
S'Down 1'
p2588
tp2589
a(S'go up two steps'
p2590
S'Up 2'
p2591
tp2592
a(S'left five spaces'
p2593
S'Left 5'
p2594
tp2595
a(S'move east once'
p2596
S'Right 1'
p2597
tp2598
a(S'go south one motion'
p2599
S'Down 1'
p2600
tp2601
a(S'and right'
p2602
S'Right 1'
p2603
tp2604
a(S'go down three steps'
p2605
S'Down 3'
p2606
tp2607
a(S'up two'
p2608
S'Up 2'
p2609
tp2610
a(S', east'
p2611
S'Right 1'
p2612
tp2613
a(S'turn and move north one spot'
p2614
S'Up 1'
p2615
tp2616
a(S'go up'
p2617
S'Up 1'
p2618
tp2619
a(S'right'
p2620
S'Right 1'
p2621
tp2622
a(S'move north three times'
p2623
S'Up 3'
p2624
tp2625
a(S'then right five times'
p2626
S'Right 5'
p2627
tp2628
a(S'west five steps'
p2629
S'Left 5'
p2630
tp2631
a(S'and then go west'
p2632
S'Left 1'
p2633
tp2634
a(S'then up'
p2635
S'Up 1'
p2636
tp2637
a(S', go down'
p2638
S'Down 1'
p2639
tp2640
a(S'go east'
p2641
S'Right 1'
p2642
tp2643
a(S'go down'
p2644
S'Down 1'
p2645
tp2646
a(S'up'
p2647
S'Up 1'
p2648
tp2649
a(S'one more step west'
p2650
S'Left 1'
p2651
tp2652
a(S'up one space'
p2653
S'Up 1'
p2654
tp2655
a(S'down'
p2656
S'Down 1'
p2657
tp2658
a(S'and up two times'
p2659
S'Up 2'
p2660
tp2661
a(S'south'
p2662
S'Down 1'
p2663
tp2664
a(S'up'
p2665
S'Up 1'
p2666
tp2667
a(S'and go north for two spaces'
p2668
S'Up 2'
p2669
tp2670
a(S', down'
p2671
S'Down 1'
p2672
tp2673
a(S'move south five steps'
p2674
S'Down 5'
p2675
tp2676
a(S'up'
p2677
S'Up 1'
p2678
tp2679
a(S'go up'
p2680
S'Up 1'
p2681
tp2682
a(S'move south three steps then stop'
p2683
S'Down 3'
p2684
tp2685
a(S'right four'
p2686
S'Right 4'
p2687
tp2688
a(S'go down'
p2689
S'Down 1'
p2690
tp2691
a(S'left'
p2692
S'Left 1'
p2693
tp2694
a(S'down'
p2695
S'Down 1'
p2696
tp2697
a(S'two up'
p2698
S'Up 2'
p2699
tp2700
a(S'north three steps'
p2701
S'Up 3'
p2702
tp2703
a(S'down one'
p2704
S'Down 1'
p2705
tp2706
a(S'go left'
p2707
S'Left 1'
p2708
tp2709
a(S'down'
p2710
S'Down 1'
p2711
tp2712
a(S'face east and make one move forward'
p2713
S'Down 1'
p2714
tp2715
a(S'then north'
p2716
S'Up 1'
p2717
tp2718
a(S'then right'
p2719
S'Right 1'
p2720
tp2721
a(S'move left five'
p2722
S'Left 5'
p2723
tp2724
a(S'right one space'
p2725
S'Right 1'
p2726
tp2727
a(S'down'
p2728
S'Down 1'
p2729
tp2730
a(S'go south'
p2731
S'Down 1'
p2732
tp2733
a(S'right'
p2734
S'Right 1'
p2735
tp2736
a(S'go right'
p2737
S'Right 1'
p2738
tp2739
a(S'then go north three paces'
p2740
S'Up 3'
p2741
tp2742
a(S'down'
p2743
S'Down 1'
p2744
tp2745
a(S'turn one step left'
p2746
S'Left 1'
p2747
tp2748
a(S'move west one step'
p2749
S'Left 1'
p2750
tp2751
a(S'move left'
p2752
S'Left 1'
p2753
tp2754
a(S'three up'
p2755
S'Up 3'
p2756
tp2757
a(S'up'
p2758
S'Up 1'
p2759
tp2760
a(S'go down'
p2761
S'Down 1'
p2762
tp2763
a(S'west'
p2764
S'Left 1'
p2765
tp2766
a(S'down'
p2767
S'Down 1'
p2768
tp2769
a(S'up'
p2770
S'Up 1'
p2771
tp2772
a(S'go south three steps'
p2773
S'Down 3'
p2774
tp2775
a(S'go down three steps'
p2776
S'Down 3'
p2777
tp2778
a(S'left'
p2779
S'Left 1'
p2780
tp2781
a(S'left twice'
p2782
S'Left 2'
p2783
tp2784
a(S'go down !'
p2785
S'Down 1'
p2786
tp2787
a(S'right'
p2788
S'Right 1'
p2789
tp2790
a(S'go south three squares'
p2791
S'Down 3'
p2792
tp2793
a(S'right'
p2794
S'Right 1'
p2795
tp2796
a(S'down'
p2797
S'Down 1'
p2798
tp2799
a(S'down'
p2800
S'Down 1'
p2801
tp2802
a(S'move down'
p2803
S'Down 1'
p2804
tp2805
a(S'east'
p2806
S'Right 1'
p2807
tp2808
a(S'go right'
p2809
S'Right 1'
p2810
tp2811
a(S'left'
p2812
S'Left 1'
p2813
tp2814
a(S'go north one square'
p2815
S'Up 1'
p2816
tp2817
a(S'go north for two steps'
p2818
S'Up 2'
p2819
tp2820
a(S'west two'
p2821
S'Left 2'
p2822
tp2823
a(S'go south'
p2824
S'Down 1'
p2825
tp2826
a(S'go left'
p2827
S'Left 1'
p2828
tp2829
a(S'go west'
p2830
S'Left 1'
p2831
tp2832
a(S'then go west two paces'
p2833
S'Right 2'
p2834
tp2835
a(S'left four spaces'
p2836
S'Left 4'
p2837
tp2838
a(S'down'
p2839
S'Down 1'
p2840
tp2841
a(S'go down'
p2842
S'Down 1'
p2843
tp2844
a(S'left'
p2845
S'Left 1'
p2846
tp2847
a(S'then south'
p2848
S'Down 1'
p2849
tp2850
a(S'go west for four spaces'
p2851
S'Left 4'
p2852
tp2853
a(S'left'
p2854
S'Left 1'
p2855
tp2856
a(S'south'
p2857
S'Down 1'
p2858
tp2859
a(S'west'
p2860
S'Left 1'
p2861
tp2862
a(S'left'
p2863
S'Left 1'
p2864
tp2865
a(S'then east'
p2866
S'Right 1'
p2867
tp2868
a(S'up'
p2869
S'Up 1'
p2870
tp2871
a(S'up'
p2872
S'Up 1'
p2873
tp2874
a(S'right'
p2875
S'Right 1'
p2876
tp2877
a(S'go down four spaces'
p2878
S'Down 4'
p2879
tp2880
a(S'turn right and take a step'
p2881
S'Right 1'
p2882
tp2883
a(S'north'
p2884
S'Up 1'
p2885
tp2886
a(S'right'
p2887
S'Right 1'
p2888
tp2889
a(S', left'
p2890
S'Left 1'
p2891
tp2892
a(S'down one'
p2893
S'Down 1'
p2894
tp2895
a(S'then move north two times'
p2896
S'Up 2'
p2897
tp2898
a(S'up'
p2899
S'Up 1'
p2900
tp2901
a(S'down'
p2902
S'Down 1'
p2903
tp2904
a(S'up'
p2905
S'Up 1'
p2906
tp2907
a(S'go down three steps'
p2908
S'Down 3'
p2909
tp2910
a(S'. go up three times'
p2911
S'Up 3'
p2912
tp2913
a(S'and go down'
p2914
S'Down 1'
p2915
tp2916
a(S'right one'
p2917
S'Right 1'
p2918
tp2919
a(S', turn left'
p2920
S'Left 1'
p2921
tp2922
a(S'west five steps'
p2923
S'Left 5'
p2924
tp2925
a(S'go down'
p2926
S'Down 1'
p2927
tp2928
a(S'left'
p2929
S'Left 1'
p2930
tp2931
a(S', up'
p2932
S'Up 1'
p2933
tp2934
a(S'then up'
p2935
S'Up 1'
p2936
tp2937
a(S'move up one spaces'
p2938
S'Up 1'
p2939
tp2940
a(S'move down four times'
p2941
S'Down 4'
p2942
tp2943
a(S'then move south one step'
p2944
S'Down 1'
p2945
tp2946
a(S'four steps to the right'
p2947
S'Right 4'
p2948
tp2949
a(S'right'
p2950
S'Right 1'
p2951
tp2952
a(S'go down'
p2953
S'Down 1'
p2954
tp2955
a(S'left'
p2956
S'Left 1'
p2957
tp2958
a(S'then go up three times'
p2959
S'Up 3'
p2960
tp2961
a(S', north'
p2962
S'Up 1'
p2963
tp2964
a(S'right'
p2965
S'Right 1'
p2966
tp2967
a(S'down'
p2968
S'Down 1'
p2969
tp2970
a(S'left'
p2971
S'Left 1'
p2972
tp2973
a(S'south one'
p2974
S'Down 1'
p2975
tp2976
a(S'move west one'
p2977
S'Left 1'
p2978
tp2979
a(S'down one'
p2980
S'Down 1'
p2981
tp2982
a(S'go east'
p2983
S'Right 1'
p2984
tp2985
a(S'go south'
p2986
S'Down 1'
p2987
tp2988
a(S'north'
p2989
S'Up 1'
p2990
tp2991
a(S'go left'
p2992
S'Left 1'
p2993
tp2994
a(S'then go west four paces'
p2995
S'Left 4'
p2996
tp2997
a(S'go down three steps'
p2998
S'Down 3'
p2999
tp3000
a(S'down'
p3001
S'Down 1'
p3002
tp3003
a(S', go down'
p3004
S'Down 1'
p3005
tp3006
a(S'go down three spaces'
p3007
S'Down 3'
p3008
tp3009
a(S'up two'
p3010
S'Up 2'
p3011
tp3012
a(S'move up two spaces'
p3013
S'Up 2'
p3014
tp3015
a(S'and then move right four times'
p3016
S'Right 4'
p3017
tp3018
a(S'north two'
p3019
S'Up 2'
p3020
tp3021
a(S'and up'
p3022
S'Up 1'
p3023
tp3024
a(S'go north'
p3025
S'Up 1'
p3026
tp3027
a(S'then go down'
p3028
S'Down 1'
p3029
tp3030
a(S'right'
p3031
S'Right 1'
p3032
tp3033
a(S'up three'
p3034
S'Up 3'
p3035
tp3036
a(S'up'
p3037
S'Up 1'
p3038
tp3039
a(S'up ,'
p3040
S'Up 1'
p3041
tp3042
a(S'go down'
p3043
S'Down 1'
p3044
tp3045
a(S'up three steps'
p3046
S'Up 3'
p3047
tp3048
a(S'go down'
p3049
S'Down 1'
p3050
tp3051
a(S'go straight down'
p3052
S'Down 1'
p3053
tp3054
a(S'down one'
p3055
S'Down 1'
p3056
tp3057
a(S'right'
p3058
S'Right 1'
p3059
tp3060
a(S'then right four times'
p3061
S'Right 4'
p3062
tp3063
a(S'right'
p3064
S'Right 1'
p3065
tp3066
a(S'then right fives times'
p3067
S'Right 5'
p3068
tp3069
a(S'up'
p3070
S'Up 1'
p3071
tp3072
a(S'move up'
p3073
S'Up 1'
p3074
tp3075
a(S'west five steps'
p3076
S'Left 5'
p3077
tp3078
a(S', south'
p3079
S'Down 1'
p3080
tp3081
a(S'move down'
p3082
S'Down 1'
p3083
tp3084
a(S'go south'
p3085
S'Down 1'
p3086
tp3087
a(S'go down five units'
p3088
S'Down 5'
p3089
tp3090
a(S'down one'
p3091
S'Down 1'
p3092
tp3093
a(S'go up'
p3094
S'Up 1'
p3095
tp3096
a(S'down'
p3097
S'Down 1'
p3098
tp3099
a(S'move down once'
p3100
S'Down 1'
p3101
tp3102
a(S'down'
p3103
S'Down 1'
p3104
tp3105
a(S'one step west'
p3106
S'Left 1'
p3107
tp3108
a(S'go east one step'
p3109
S'Right 1'
p3110
tp3111
a(S'go up'
p3112
S'Up 1'
p3113
tp3114
a(S'south one move'
p3115
S'Down 1'
p3116
tp3117
a(S'go east'
p3118
S'Right 1'
p3119
tp3120
a(S'right one'
p3121
S'Right 1'
p3122
tp3123
a(S'and up'
p3124
S'Up 1'
p3125
tp3126
a(S'west'
p3127
S'Left 1'
p3128
tp3129
a(S'move south five units'
p3130
S'Down 5'
p3131
tp3132
a(S'right four'
p3133
S'Right 4'
p3134
tp3135
a(S'go east'
p3136
S'Right 1'
p3137
tp3138
a(S', down'
p3139
S'Down 1'
p3140
tp3141
a(S'south'
p3142
S'Down 1'
p3143
tp3144
a(S'west one space'
p3145
S'Left 1'
p3146
tp3147
a(S'go north for three spaces'
p3148
S'Up 3'
p3149
tp3150
a(S'and then go east for four spaces'
p3151
S'Right 4'
p3152
tp3153
a(S'down'
p3154
S'Down 1'
p3155
tp3156
a(S'right'
p3157
S'Right 1'
p3158
tp3159
a(S'left'
p3160
S'Left 1'
p3161
tp3162
a(S'move down twice'
p3163
S'Down 2'
p3164
tp3165
a(S'then to the left a little'
p3166
S'Left 1'
p3167
tp3168
a(S'go south'
p3169
S'Down 1'
p3170
tp3171
a(S'go north'
p3172
S'Up 1'
p3173
tp3174
a(S'up'
p3175
S'Up 1'
p3176
tp3177
a(S'left'
p3178
S'Left 1'
p3179
tp3180
a(S'up'
p3181
S'Up 1'
p3182
tp3183
a(S'go west'
p3184
S'Left 1'
p3185
tp3186
a(S'down'
p3187
S'Down 1'
p3188
tp3189
a(S'then go up'
p3190
S'Up 1'
p3191
tp3192
a(S'right'
p3193
S'Right 1'
p3194
tp3195
a(S'move right'
p3196
S'Right 1'
p3197
tp3198
a(S'up'
p3199
S'Up 1'
p3200
tp3201
a(S'down ,'
p3202
S'Down 1'
p3203
tp3204
a(S'east four steps'
p3205
S'Right 4'
p3206
tp3207
a(S'down'
p3208
S'Down 1'
p3209
tp3210
a(S'move north'
p3211
S'Up 1'
p3212
tp3213
a(S'move down four steps'
p3214
S'Down 4'
p3215
tp3216
a(S'and come down once'
p3217
S'Down 1'
p3218
tp3219
a(S'west'
p3220
S'Left 1'
p3221
tp3222
a(S'go west'
p3223
S'Left 1'
p3224
tp3225
a(S'right four'
p3226
S'Right 4'
p3227
tp3228
a(S'down one space'
p3229
S'Down 1'
p3230
tp3231
a(S'down five'
p3232
S'Down 5'
p3233
tp3234
a(S'go down'
p3235
S'Down 1'
p3236
tp3237
a(S', up'
p3238
S'Up 1'
p3239
tp3240
a(S'then go up a step'
p3241
S'Up 1'
p3242
tp3243
a(S'then up'
p3244
S'Up 1'
p3245
tp3246
a(S'move down three spaces'
p3247
S'Down 3'
p3248
tp3249
a(S'and north three times'
p3250
S'Up 3'
p3251
tp3252
a(S'west'
p3253
S'Left 1'
p3254
tp3255
a(S'go down two'
p3256
S'Down 2'
p3257
tp3258
a(S'move up'
p3259
S'Up 1'
p3260
tp3261
a(S'up'
p3262
S'Up 1'
p3263
tp3264
a(S'move to the right one pace'
p3265
S'Right 1'
p3266
tp3267
a(S'go up'
p3268
S'Up 1'
p3269
tp3270
a(S'south'
p3271
S'Down 1'
p3272
tp3273
a(S'south'
p3274
S'Down 1'
p3275
tp3276
a(S'north'
p3277
S'Up 1'
p3278
tp3279
a(S'robot a , go straight down'
p3280
S'Down 1'
p3281
tp3282
a(S'go right'
p3283
S'Right 1'
p3284
tp3285
a(S'go north for two steps'
p3286
S'Up 2'
p3287
tp3288
a(S'go three steps down'
p3289
S'Down 3'
p3290
tp3291
a(S'and finally go north three spaces'
p3292
S'Up 3'
p3293
tp3294
a(S'left'
p3295
S'Left 1'
p3296
tp3297
a(S'then west'
p3298
S'Left 1'
p3299
tp3300
a(S'move down'
p3301
S'Down 1'
p3302
tp3303
a(S'one up'
p3304
S'Up 1'
p3305
tp3306
a(S'left'
p3307
S'Left 1'
p3308
tp3309
a(S'south one move'
p3310
S'Down 1'
p3311
tp3312
a(S'go down four'
p3313
S'Down 4'
p3314
tp3315
a(S'go right'
p3316
S'Right 1'
p3317
tp3318
a(S'go down five times'
p3319
S'Down 5'
p3320
tp3321
a(S'turn right'
p3322
S'Right 1'
p3323
tp3324
a(S'one step to the right'
p3325
S'Right 1'
p3326
tp3327
a(S'go down'
p3328
S'Down 1'
p3329
tp3330
a(S'up'
p3331
S'Up 1'
p3332
tp3333
a(S'down'
p3334
S'Down 1'
p3335
tp3336
a(S'east'
p3337
S'Right 1'
p3338
tp3339
a(S'right'
p3340
S'Right 1'
p3341
tp3342
a(S'left five spaces'
p3343
S'Left 5'
p3344
tp3345
a(S'right'
p3346
S'Right 1'
p3347
tp3348
a(S'then go up'
p3349
S'Up 1'
p3350
tp3351
a(S'up'
p3352
S'Up 1'
p3353
tp3354
a(S'right one'
p3355
S'Right 1'
p3356
tp3357
a(S'left'
p3358
S'Left 1'
p3359
tp3360
a(S'down'
p3361
S'Down 1'
p3362
tp3363
a(S'go left'
p3364
S'Left 1'
p3365
tp3366
a(S'down'
p3367
S'Down 1'
p3368
tp3369
a(S'right four spaces'
p3370
S'Right 4'
p3371
tp3372
a(S', up'
p3373
S'Up 1'
p3374
tp3375
a(S'go east'
p3376
S'Right 1'
p3377
tp3378
a(S'down'
p3379
S'Down 1'
p3380
tp3381
a(S', go down'
p3382
S'Down 1'
p3383
tp3384
a(S'then down'
p3385
S'Down 1'
p3386
tp3387
a(S'move west five spaces'
p3388
S'Left 5'
p3389
tp3390
a(S'right'
p3391
S'Right 1'
p3392
tp3393
a(S'right'
p3394
S'Right 1'
p3395
tp3396
a(S'then up three spaces'
p3397
S'Up 3'
p3398
tp3399
a(S'then go west'
p3400
S'Left 1'
p3401
tp3402
a(S'go left four times'
p3403
S'Left 4'
p3404
tp3405
a(S'go north'
p3406
S'Up 1'
p3407
tp3408
a(S'go down'
p3409
S'Down 1'
p3410
tp3411
a(S'go down'
p3412
S'Down 1'
p3413
tp3414
a(S'then north two steps'
p3415
S'Up 2'
p3416
tp3417
a(S'go down three'
p3418
S'Down 3'
p3419
tp3420
a(S'go up'
p3421
S'Up 1'
p3422
tp3423
a(S'go down'
p3424
S'Down 1'
p3425
tp3426
a(S'up one'
p3427
S'Up 1'
p3428
tp3429
a(S'lastly go up three times'
p3430
S'Up 3'
p3431
tp3432
a(S'south one step'
p3433
S'Down 1'
p3434
tp3435
a(S'down'
p3436
S'Down 1'
p3437
tp3438
a(S'go down five times'
p3439
S'Down 5'
p3440
tp3441
a(S'up'
p3442
S'Up 1'
p3443
tp3444
a(S', left once'
p3445
S'Left 1'
p3446
tp3447
a(S'four west'
p3448
S'Left 4'
p3449
tp3450
a(S', down'
p3451
S'Down 1'
p3452
tp3453
a(S'up three'
p3454
S'Up 3'
p3455
tp3456
a(S'up'
p3457
S'Up 1'
p3458
tp3459
a(S'up three spots'
p3460
S'Up 3'
p3461
tp3462
a(S'push the chair up'
p3463
S'Up 1'
p3464
tp3465
a(S', and then go west'
p3466
S'Left 1'
p3467
tp3468
a(S'and right'
p3469
S'Right 1'
p3470
tp3471
a(S'and up'
p3472
S'Up 1'
p3473
tp3474
a(S'move south three spaces'
p3475
S'Down 3'
p3476
tp3477
a(S'right one space'
p3478
S'Right 1'
p3479
tp3480
a(S'left'
p3481
S'Left 1'
p3482
tp3483
a(S'south'
p3484
S'Down 1'
p3485
tp3486
a(S'one step up'
p3487
S'Up 1'
p3488
tp3489
a(S'then left five times'
p3490
S'Left 5'
p3491
tp3492
a(S', west'
p3493
S'Left 1'
p3494
tp3495
a(S'right'
p3496
S'Right 1'
p3497
tp3498
a(S'go up'
p3499
S'Up 1'
p3500
tp3501
a(S', left'
p3502
S'Left 1'
p3503
tp3504
a(S', up'
p3505
S'Up 1'
p3506
tp3507
a(S'move south three steps'
p3508
S'Down 3'
p3509
tp3510
a(S'north one step'
p3511
S'Up 1'
p3512
tp3513
a(S'right'
p3514
S'Right 1'
p3515
tp3516
a(S'left five'
p3517
S'Left 5'
p3518
tp3519
a(S'take a single step to your left'
p3520
S'Left 1'
p3521
tp3522
a(S', go south for one space'
p3523
S'Down 1'
p3524
tp3525
a(S', down'
p3526
S'Down 1'
p3527
tp3528
a(S'then head north for two paces'
p3529
S'Up 2'
p3530
tp3531
a(S'go down five spots'
p3532
S'Down 5'
p3533
tp3534
a(S'go south three paces'
p3535
S'Down 3'
p3536
tp3537
a(S'left four'
p3538
S'Left 4'
p3539
tp3540
a(S'down one step'
p3541
S'Down 1'
p3542
tp3543
a(S'and up three spaces'
p3544
S'Up 3'
p3545
tp3546
a(S'up'
p3547
S'Up 1'
p3548
tp3549
a(S'go south one move'
p3550
S'Down 1'
p3551
tp3552
a(S'west one move'
p3553
S'Left 1'
p3554
tp3555
a(S'go down'
p3556
S'Down 1'
p3557
tp3558
a(S'down'
p3559
S'Down 1'
p3560
tp3561
a(S'south'
p3562
S'Down 1'
p3563
tp3564
a(S'then go right'
p3565
S'Right 1'
p3566
tp3567
a(S', left one'
p3568
S'Left 1'
p3569
tp3570
a(S'go right'
p3571
S'Right 1'
p3572
tp3573
a(S'right one'
p3574
S'Right 1'
p3575
tp3576
a(S'down'
p3577
S'Down 1'
p3578
tp3579
a(S'move east once'
p3580
S'Right 1'
p3581
tp3582
a(S'right'
p3583
S'Right 1'
p3584
tp3585
a(S'go south'
p3586
S'Down 1'
p3587
tp3588
a(S'down one'
p3589
S'Down 1'
p3590
tp3591
a(S'right'
p3592
S'Right 1'
p3593
tp3594
a(S'go down'
p3595
S'Down 1'
p3596
tp3597
a(S'go south'
p3598
S'Down 1'
p3599
tp3600
a(S'left five steps'
p3601
S'Left 5'
p3602
tp3603
a(S'up'
p3604
S'Up 1'
p3605
tp3606
a(S'and move left one step'
p3607
S'Left 1'
p3608
tp3609
a(S'move down three times'
p3610
S'Down 3'
p3611
tp3612
a(S'go south'
p3613
S'Down 1'
p3614
tp3615
a(S'down one step'
p3616
S'Down 1'
p3617
tp3618
a(S'go south for one step'
p3619
S'Down 1'
p3620
tp3621
a(S', move north three times'
p3622
S'Up 3'
p3623
tp3624
a(S'right four spaces'
p3625
S'Right 4'
p3626
tp3627
a(S'go north'
p3628
S'Up 1'
p3629
tp3630
a(S'left'
p3631
S'Left 1'
p3632
tp3633
a(S'then west'
p3634
S'Left 1'
p3635
tp3636
a(S', then north'
p3637
S'Up 1'
p3638
tp3639
a(S'go north'
p3640
S'Up 1'
p3641
tp3642
a(S'down'
p3643
S'Down 1'
p3644
tp3645
a(S'left'
p3646
S'Left 1'
p3647
tp3648
a(S'down once'
p3649
S'Down 1'
p3650
tp3651
a(S'down one'
p3652
S'Down 1'
p3653
tp3654
a(S'and then left'
p3655
S'Left 1'
p3656
tp3657
a(S'go left twice'
p3658
S'Left 2'
p3659
tp3660
a(S'up one space'
p3661
S'Up 1'
p3662
tp3663
a(S'then north two times'
p3664
S'Up 2'
p3665
tp3666
a(S'then go down'
p3667
S'Down 1'
p3668
tp3669
a(S'slide over one space to the right'
p3670
S'Right 1'
p3671
tp3672
a(S'up'
p3673
S'Up 1'
p3674
tp3675
a(S'then move west four steps'
p3676
S'Left 4'
p3677
tp3678
a(S'go down three steps into the red room'
p3679
S'Down 3'
p3680
tp3681
a(S'west four steps'
p3682
S'Left 4'
p3683
tp3684
a(S'up'
p3685
S'Up 1'
p3686
tp3687
a(S'go down five'
p3688
S'Down 5'
p3689
tp3690
a(S', go west for one space'
p3691
S'Left 1'
p3692
tp3693
a(S'west one space'
p3694
S'Left 1'
p3695
tp3696
a(S'go north'
p3697
S'Up 1'
p3698
tp3699
a(S'north'
p3700
S'Up 1'
p3701
tp3702
a(S'go down'
p3703
S'Down 1'
p3704
tp3705
a(S', go right'
p3706
S'Right 1'
p3707
tp3708
a(S'move west'
p3709
S'Left 1'
p3710
tp3711
a(S'move up'
p3712
S'Up 1'
p3713
tp3714
a(S'and up three'
p3715
S'Up 3'
p3716
tp3717
a(S'go west for one step'
p3718
S'Left 1'
p3719
tp3720
a(S'down one step'
p3721
S'Down 1'
p3722
tp3723
a(S'left'
p3724
S'Left 1'
p3725
tp3726
a(S'left'
p3727
S'Left 1'
p3728
tp3729
a(S'down'
p3730
S'Down 1'
p3731
tp3732
a(S'down'
p3733
S'Down 1'
p3734
tp3735
a(S', go south for one space'
p3736
S'Down 1'
p3737
tp3738
a(S'south one move'
p3739
S'Down 1'
p3740
tp3741
a(S'down'
p3742
S'Down 1'
p3743
tp3744
a(S'go down'
p3745
S'Down 1'
p3746
tp3747
a(S'down'
p3748
S'Down 1'
p3749
tp3750
a(S'turn right and move forward once'
p3751
S'Right 1'
p3752
tp3753
a(S'up'
p3754
S'Up 1'
p3755
tp3756
a(S'up'
p3757
S'Up 1'
p3758
tp3759
a(S', go down'
p3760
S'Left 1'
p3761
tp3762
a(S'go down'
p3763
S'Down 1'
p3764
tp3765
a(S'left'
p3766
S'Left 1'
p3767
tp3768
a(S', then go left once'
p3769
S'Left 1'
p3770
tp3771
a(S'go down'
p3772
S'Down 1'
p3773
tp3774
a(S', south'
p3775
S'Down 1'
p3776
tp3777
a(S'up'
p3778
S'Up 1'
p3779
tp3780
a(S'go down'
p3781
S'Down 1'
p3782
tp3783
a(S'right four'
p3784
S'Right 4'
p3785
tp3786
a(S'right one step'
p3787
S'Right 1'
p3788
tp3789
a(S'and then move right four times'
p3790
S'Right 4'
p3791
tp3792
a(S'go up'
p3793
S'Up 1'
p3794
tp3795
a(S'three down'
p3796
S'Down 3'
p3797
tp3798
a(S', up'
p3799
S'Up 1'
p3800
tp3801
a(S'down one'
p3802
S'Down 1'
p3803
tp3804
a(S'and then three steps up'
p3805
S'Up 3'
p3806
tp3807
a(S'go down'
p3808
S'Down 1'
p3809
tp3810
a(S', right'
p3811
S'Right 1'
p3812
tp3813
a(S'move south five units'
p3814
S'Down 5'
p3815
tp3816
a(S'move west four spaces'
p3817
S'Left 4'
p3818
tp3819
a(S'move one step , turn left , and face the wall'
p3820
S'Left 1'
p3821
tp3822
a(S'down five'
p3823
S'Down 5'
p3824
tp3825
a(S'then down one time'
p3826
S'Down 1'
p3827
tp3828
a(S'move south one time'
p3829
S'Down 1'
p3830
tp3831
a(S'down two'
p3832
S'Down 2'
p3833
tp3834
a(S'north'
p3835
S'Up 1'
p3836
tp3837
a(S'go down'
p3838
S'Down 1'
p3839
tp3840
a(S'go up'
p3841
S'Up 1'
p3842
tp3843
a(S'and then three steps up'
p3844
S'Up 3'
p3845
tp3846
a(S'go down once'
p3847
S'Down 1'
p3848
tp3849
a(S'down'
p3850
S'Down 1'
p3851
tp3852
a(S'right one'
p3853
S'Right 1'
p3854
tp3855
a(S'west'
p3856
S'Left 1'
p3857
tp3858
a(S'up one'
p3859
S'Up 1'
p3860
tp3861
a(S'west'
p3862
S'Left 1'
p3863
tp3864
a(S'move west one block'
p3865
S'Left 1'
p3866
tp3867
a(S'then go up'
p3868
S'Up 1'
p3869
tp3870
a(S'turn left , then wait'
p3871
S'Left 1'
p3872
tp3873
a(S'one step down'
p3874
S'Down 1'
p3875
tp3876
a(S'down one'
p3877
S'Down 1'
p3878
tp3879
a(S'up three'
p3880
S'Up 3'
p3881
tp3882
a(S'down'
p3883
S'Down 1'
p3884
tp3885
a(S', left'
p3886
S'Left 1'
p3887
tp3888
a(S'and go down'
p3889
S'Down 1'
p3890
tp3891
a(S'go right'
p3892
S'Right 1'
p3893
tp3894
a(S'then go right'
p3895
S'Right 1'
p3896
tp3897
a(S'go left'
p3898
S'Left 1'
p3899
tp3900
a(S'go left'
p3901
S'Left 1'
p3902
tp3903
a(S'up'
p3904
S'Up 1'
p3905
tp3906
a(S'up 3x'
p3907
S'Up 3'
p3908
tp3909
a(S'take five steps down'
p3910
S'Down 5'
p3911
tp3912
a(S'go west'
p3913
S'Left 1'
p3914
tp3915
a(S'move south five steps'
p3916
S'Down 5'
p3917
tp3918
a(S'right'
p3919
S'Right 1'
p3920
tp3921
a(S'two steps up'
p3922
S'Up 2'
p3923
tp3924
a(S'left five'
p3925
S'Left 5'
p3926
tp3927
a(S'down once'
p3928
S'Down 1'
p3929
tp3930
a(S'move west'
p3931
S'Left 1'
p3932
tp3933
a(S'down'
p3934
S'Down 1'
p3935
tp3936
a(S'and then up'
p3937
S'Up 1'
p3938
tp3939
a(S'then up once'
p3940
S'Up 1'
p3941
tp3942
a(S'down one space'
p3943
S'Down 1'
p3944
tp3945
a(S'go left'
p3946
S'Left 1'
p3947
tp3948
a(S'go down'
p3949
S'Down 1'
p3950
tp3951
a(S'go down'
p3952
S'Down 1'
p3953
tp3954
a(S'go down three'
p3955
S'Down 3'
p3956
tp3957
a(S', go down'
p3958
S'Down 1'
p3959
tp3960
a(S'then go up once'
p3961
S'Up 1'
p3962
tp3963
a(S'go right'
p3964
S'Right 1'
p3965
tp3966
a(S'turn left'
p3967
S'Left 1'
p3968
tp3969
a(S'and west one move'
p3970
S'Left 1'
p3971
tp3972
a(S'and down'
p3973
S'Down 1'
p3974
tp3975
a(S'go down'
p3976
S'Down 1'
p3977
tp3978
a(S', right'
p3979
S'Right 1'
p3980
tp3981
a(S'go down'
p3982
S'Down 1'
p3983
tp3984
a(S'move east four times'
p3985
S'Right 4'
p3986
tp3987
a(S'right'
p3988
S'Right 1'
p3989
tp3990
a(S'right one space'
p3991
S'Right 1'
p3992
tp3993
a(S'up'
p3994
S'Up 1'
p3995
tp3996
a(S'move east one step'
p3997
S'Right 1'
p3998
tp3999
a(S'move east one space'
p4000
S'Right 1'
p4001
tp4002
a(S'go south'
p4003
S'Down 1'
p4004
tp4005
a(S'left'
p4006
S'Left 1'
p4007
tp4008
a(S'move down in a straight line'
p4009
S'Down 1'
p4010
tp4011
a(S'down one step'
p4012
S'Down 1'
p4013
tp4014
a(S'right'
p4015
S'Right 1'
p4016
tp4017
a(S', up'
p4018
S'Up 1'
p4019
tp4020
a(S'then up three squares'
p4021
S'Up 3'
p4022
tp4023
a(S', right'
p4024
S'Right 1'
p4025
tp4026
a(S'west'
p4027
S'Left 1'
p4028
tp4029
a(S'left one'
p4030
S'Left 1'
p4031
tp4032
a(S'turn slight right and stop , facing forward'
p4033
S'Right 1'
p4034
tp4035
a(S'north'
p4036
S'Up 1'
p4037
tp4038
a(S'south one step'
p4039
S'Down 1'
p4040
tp4041
a(S'then down a step'
p4042
S'Down 1'
p4043
tp4044
a(S'go north one'
p4045
S'Up 1'
p4046
tp4047
a(S', go right'
p4048
S'Right 1'
p4049
tp4050
a(S', go straight up'
p4051
S'Up 1'
p4052
tp4053
a(S', up'
p4054
S'Up 1'
p4055
tp4056
a(S'and then to the left'
p4057
S'Left 1'
p4058
tp4059
a(S'go up'
p4060
S'Up 1'
p4061
tp4062
a(S'north'
p4063
S'Up 1'
p4064
tp4065
a(S'go north'
p4066
S'Up 1'
p4067
tp4068
a(S'go south'
p4069
S'Down 1'
p4070
tp4071
a(S'right'
p4072
S'Right 1'
p4073
tp4074
a(S'left'
p4075
S'Left 1'
p4076
tp4077
a(S'then up two steps'
p4078
S'Up 2'
p4079
tp4080
a(S'move down three'
p4081
S'Down 3'
p4082
tp4083
a(S'left three'
p4084
S'Left 3'
p4085
tp4086
a(S'west'
p4087
S'Left 1'
p4088
tp4089
a(S'go down four times'
p4090
S'Down 4'
p4091
tp4092
a(S'go down three times'
p4093
S'Down 3'
p4094
tp4095
a(S'move north'
p4096
S'Up 1'
p4097
tp4098
a(S'down'
p4099
S'Down 1'
p4100
tp4101
a(S'left one'
p4102
S'Left 1'
p4103
tp4104
a(S'north'
p4105
S'Up 1'
p4106
tp4107
a(S'south five'
p4108
S'Down 5'
p4109
tp4110
a(S', go up one time'
p4111
S'Up 1'
p4112
tp4113
a(S'one step down'
p4114
S'Down 1'
p4115
tp4116
a(S'then go left'
p4117
S'Left 1'
p4118
tp4119
a(S'go north'
p4120
S'Up 1'
p4121
tp4122
a(S'down'
p4123
S'Down 1'
p4124
tp4125
a(S'go up twice'
p4126
S'Up 2'
p4127
tp4128
a(S'up two spaces'
p4129
S'Up 2'
p4130
tp4131
a(S'then go up'
p4132
S'Up 1'
p4133
tp4134
a(S'right'
p4135
S'Right 1'
p4136
tp4137
a(S'go left'
p4138
S'Left 1'
p4139
tp4140
a(S'down two'
p4141
S'Down 2'
p4142
tp4143
a(S'down'
p4144
S'Down 1'
p4145
tp4146
a(S'and four steps to the right'
p4147
S'Right 4'
p4148
tp4149
a(S'left'
p4150
S'Left 1'
p4151
tp4152
a(S'move left'
p4153
S'Left 1'
p4154
tp4155
a(S'left'
p4156
S'Left 1'
p4157
tp4158
a(S'move south'
p4159
S'Down 1'
p4160
tp4161
a(S'left'
p4162
S'Left 1'
p4163
tp4164
a(S'right four'
p4165
S'Right 4'
p4166
tp4167
a(S'then west four times'
p4168
S'Left 4'
p4169
tp4170
a(S', left'
p4171
S'Left 1'
p4172
tp4173
a(S'then go up'
p4174
S'Up 1'
p4175
tp4176
a(S'then left'
p4177
S'Left 1'
p4178
tp4179
a(S'west three spaces'
p4180
S'Left 3'
p4181
tp4182
a(S'move south five times'
p4183
S'Down 5'
p4184
tp4185
a(S'down'
p4186
S'Down 1'
p4187
tp4188
a(S'down x5'
p4189
S'Down 5'
p4190
tp4191
a(S'then go up two times'
p4192
S'Up 2'
p4193
tp4194
a(S'go down three'
p4195
S'Down 3'
p4196
tp4197
a(S', left'
p4198
S'Left 1'
p4199
tp4200
a(S'left'
p4201
S'Left 1'
p4202
tp4203
a(S'left'
p4204
S'Left 1'
p4205
tp4206
a(S'then right'
p4207
S'Right 1'
p4208
tp4209
a(S', go east'
p4210
S'Right 1'
p4211
tp4212
a(S'left'
p4213
S'Left 1'
p4214
tp4215
a(S'go left'
p4216
S'Left 1'
p4217
tp4218
a(S'right'
p4219
S'Right 1'
p4220
tp4221
a(S', then west'
p4222
S'Left 1'
p4223
tp4224
a(S'go south three spaces'
p4225
S'Down 3'
p4226
tp4227
a(S'move one step on right'
p4228
S'Right 1'
p4229
tp4230
a(S'move down three steps'
p4231
S'Down 3'
p4232
tp4233
a(S'go south'
p4234
S'Down 1'
p4235
tp4236
a(S'move up three'
p4237
S'Up 3'
p4238
tp4239
a(S'up'
p4240
S'Up 1'
p4241
tp4242
a(S', one step north'
p4243
S'Up 1'
p4244
tp4245
a(S'move right four spaces'
p4246
S'Right 4'
p4247
tp4248
a(S'move west five times'
p4249
S'Left 5'
p4250
tp4251
a(S'left four spots'
p4252
S'Left 4'
p4253
tp4254
a(S'south'
p4255
S'Down 1'
p4256
tp4257
a(S'down'
p4258
S'Down 1'
p4259
tp4260
a(S'down'
p4261
S'Down 1'
p4262
tp4263
a(S'down'
p4264
S'Down 1'
p4265
tp4266
a(S'right'
p4267
S'Right 1'
p4268
tp4269
a(S', left one'
p4270
S'Left 1'
p4271
tp4272
a(S'up'
p4273
S'Up 1'
p4274
tp4275
a(S'go up two times'
p4276
S'Up 2'
p4277
tp4278
a(S', north'
p4279
S'Up 1'
p4280
tp4281
a(S'go right'
p4282
S'Right 1'
p4283
tp4284
a(S'move down three times'
p4285
S'Down 3'
p4286
tp4287
a(S'go right'
p4288
S'Right 1'
p4289
tp4290
a(S'go right'
p4291
S'Right 1'
p4292
tp4293
a(S'move left five spaces'
p4294
S'Left 5'
p4295
tp4296
a(S'then go up'
p4297
S'Up 1'
p4298
tp4299
a(S'right one'
p4300
S'Right 1'
p4301
tp4302
a(S'go down'
p4303
S'Down 1'
p4304
tp4305
a(S'south one step'
p4306
S'Down 1'
p4307
tp4308
a(S'up'
p4309
S'Up 1'
p4310
tp4311
a(S', south'
p4312
S'Down 1'
p4313
tp4314
a(S'go left'
p4315
S'Left 1'
p4316
tp4317
a(S'right'
p4318
S'Right 1'
p4319
tp4320
a(S'down'
p4321
S'Down 1'
p4322
tp4323
a(S'down'
p4324
S'Down 1'
p4325
tp4326
a(S'go down'
p4327
S'Down 1'
p4328
tp4329
a(S'down'
p4330
S'Down 1'
p4331
tp4332
a(S'up one'
p4333
S'Up 1'
p4334
tp4335
a(S'left one space'
p4336
S'Left 1'
p4337
tp4338
a(S'go north for one space'
p4339
S'Up 1'
p4340
tp4341
a(S'up three'
p4342
S'Up 3'
p4343
tp4344
a(S'and move left'
p4345
S'Left 1'
p4346
tp4347
a(S'then left two steps'
p4348
S'Left 2'
p4349
tp4350
a(S'go up'
p4351
S'Up 1'
p4352
tp4353
a(S'go right'
p4354
S'Right 1'
p4355
tp4356
a(S'move down'
p4357
S'Down 1'
p4358
tp4359
a(S'south two'
p4360
S'Down 2'
p4361
tp4362
a(S'then move left'
p4363
S'Left 1'
p4364
tp4365
a(S'go right'
p4366
S'Right 1'
p4367
tp4368
a(S'east one step'
p4369
S'Right 1'
p4370
tp4371
a(S'down one'
p4372
S'Down 1'
p4373
tp4374
a(S', north'
p4375
S'Up 1'
p4376
tp4377
a(S'left'
p4378
S'Left 1'
p4379
tp4380
a(S'right'
p4381
S'Right 1'
p4382
tp4383
a(S', move south one time'
p4384
S'Down 1'
p4385
tp4386
a(S'one down'
p4387
S'Down 1'
p4388
tp4389
a(S'go north'
p4390
S'Up 1'
p4391
tp4392
a(S'and down'
p4393
S'Down 1'
p4394
tp4395
a(S'west five units'
p4396
S'Left 5'
p4397
tp4398
a(S'right one'
p4399
S'Right 1'
p4400
tp4401
a(S', go up two times'
p4402
S'Up 2'
p4403
tp4404
a(S'one down'
p4405
S'Down 1'
p4406
tp4407
a(S'right four steps'
p4408
S'Right 4'
p4409
tp4410
a(S'go left'
p4411
S'Left 1'
p4412
tp4413
a(S'move south once'
p4414
S'Down 1'
p4415
tp4416
a(S', left'
p4417
S'Left 1'
p4418
tp4419
a(S'then left'
p4420
S'Left 1'
p4421
tp4422
a(S'up'
p4423
S'Up 1'
p4424
tp4425
a(S'go south'
p4426
S'Down 1'
p4427
tp4428
a(S'five steps to the left'
p4429
S'Left 5'
p4430
tp4431
a(S'east one step'
p4432
S'Right 1'
p4433
tp4434
a(S'go right'
p4435
S'Right 1'
p4436
tp4437
a(S'then turn right'
p4438
S'Right 1'
p4439
tp4440
a(S'go down five'
p4441
S'Down 5'
p4442
tp4443
a(S'down'
p4444
S'Down 1'
p4445
tp4446
a(S'then go west one pace'
p4447
S'Left 1'
p4448
tp4449
a(S'one step up'
p4450
S'Up 1'
p4451
tp4452
a(S'go left'
p4453
S'Left 1'
p4454
tp4455
a(S'go down three steps'
p4456
S'Down 3'
p4457
tp4458
a(S'down'
p4459
S'Down 1'
p4460
tp4461
a(S'move south five steps'
p4462
S'Down 5'
p4463
tp4464
a(S', down'
p4465
S'Down 1'
p4466
tp4467
a(S'right four'
p4468
S'Right 4'
p4469
tp4470
a(S'then right'
p4471
S'Right 1'
p4472
tp4473
a(S'go right'
p4474
S'Right 1'
p4475
tp4476
a(S'then move south one time'
p4477
S'Down 1'
p4478
tp4479
a(S'then go left five times'
p4480
S'Left 5'
p4481
tp4482
a(S', move east four units'
p4483
S'Right 4'
p4484
tp4485
a(S', north'
p4486
S'Up 1'
p4487
tp4488
a(S'go south'
p4489
S'Down 1'
p4490
tp4491
a(S'down'
p4492
S'Down 1'
p4493
tp4494
a(S'and lastly go up twice'
p4495
S'Up 2'
p4496
tp4497
a(S'go down three times'
p4498
S'Down 3'
p4499
tp4500
a(S'and then go north'
p4501
S'Up 1'
p4502
tp4503
a(S'right'
p4504
S'Right 1'
p4505
tp4506
a(S'up two'
p4507
S'Up 2'
p4508
tp4509
a(S', right'
p4510
S'Right 1'
p4511
tp4512
a(S'go right'
p4513
S'Right 1'
p4514
tp4515
a(S'down'
p4516
S'Down 1'
p4517
tp4518
a(S'left'
p4519
S'Left 1'
p4520
tp4521
a(S'down'
p4522
S'Down 1'
p4523
tp4524
a(S'go down'
p4525
S'Down 1'
p4526
tp4527
a(S'go right'
p4528
S'Right 1'
p4529
tp4530
a(S'down four'
p4531
S'Down 4'
p4532
tp4533
a(S'then up'
p4534
S'Up 1'
p4535
tp4536
a(S'move east one spot'
p4537
S'Right 1'
p4538
tp4539
a(S', down'
p4540
S'Down 1'
p4541
tp4542
a(S'head down'
p4543
S'Down 1'
p4544
tp4545
a(S'then up'
p4546
S'Up 1'
p4547
tp4548
a(S'up two'
p4549
S'Up 2'
p4550
tp4551
a(S'move up two'
p4552
S'Up 2'
p4553
tp4554
a(S'up'
p4555
S'Up 1'
p4556
tp4557
a(S'left'
p4558
S'Left 1'
p4559
tp4560
a(S'go up'
p4561
S'Up 1'
p4562
tp4563
a(S'go left'
p4564
S'Left 1'
p4565
tp4566
a(S'then go up behind the chair'
p4567
S'Up 1'
p4568
tp4569
a(S'right four'
p4570
S'Right 4'
p4571
tp4572
a(S', south'
p4573
S'Down 1'
p4574
tp4575
a(S'go down five spaces'
p4576
S'Down 5'
p4577
tp4578
a(S'then north'
p4579
S'Up 1'
p4580
tp4581
a(S'then go down'
p4582
S'Down 1'
p4583
tp4584
a(S'left'
p4585
S'Left 1'
p4586
tp4587
a(S'down'
p4588
S'Down 1'
p4589
tp4590
a(S', up'
p4591
S'Up 1'
p4592
tp4593
a(S'go south'
p4594
S'Down 1'
p4595
tp4596
a(S'then west'
p4597
S'Left 1'
p4598
tp4599
a(S'take one step south from your current point'
p4600
S'Down 1'
p4601
tp4602
a(S'down one'
p4603
S'Down 1'
p4604
tp4605
a(S'move down five spaces'
p4606
S'Down 5'
p4607
tp4608
a(S'left'
p4609
S'Left 1'
p4610
tp4611
a(S'move north three steps'
p4612
S'Up 3'
p4613
tp4614
a(S'east'
p4615
S'Right 1'
p4616
tp4617
a(S'turn left and move forward one space'
p4618
S'Left 1'
p4619
tp4620
a(S'up'
p4621
S'Up 1'
p4622
tp4623
a(S'move down four'
p4624
S'Down 4'
p4625
tp4626
a(S'right one'
p4627
S'Right 1'
p4628
tp4629
a(S'down'
p4630
S'Down 1'
p4631
tp4632
a(S'down'
p4633
S'Down 1'
p4634
tp4635
a(S', turn right'
p4636
S'Right 1'
p4637
tp4638
a(S'go down three spaces'
p4639
S'Down 3'
p4640
tp4641
a(S'up'
p4642
S'Up 1'
p4643
tp4644
a(S'five left'
p4645
S'Left 5'
p4646
tp4647
a(S', left two'
p4648
S'Left 2'
p4649
tp4650
a(S'then south'
p4651
S'Down 1'
p4652
tp4653
a(S'then right'
p4654
S'Right 1'
p4655
tp4656
a(S'go east push the chair'
p4657
S'Right 1'
p4658
tp4659
a(S'up'
p4660
S'Up 1'
p4661
tp4662
a(S'go down four steps'
p4663
S'Down 4'
p4664
tp4665
a(S'south'
p4666
S'Down 1'
p4667
tp4668
a(S'right'
p4669
S'Right 1'
p4670
tp4671
a(S'move down once'
p4672
S'Down 1'
p4673
tp4674
a(S'right'
p4675
S'Right 1'
p4676
tp4677
a(S'up'
p4678
S'Up 1'
p4679
tp4680
a(S'right'
p4681
S'Right 1'
p4682
tp4683
a(S'go down'
p4684
S'Down 1'
p4685
tp4686
a(S'go down'
p4687
S'Down 1'
p4688
tp4689
a(S'left five spaces'
p4690
S'Left 5'
p4691
tp4692
a(S'left three'
p4693
S'Left 3'
p4694
tp4695
a(S'go south'
p4696
S'Down 1'
p4697
tp4698
a(S'go down five spaces'
p4699
S'Down 5'
p4700
tp4701
a(S'go south three moves'
p4702
S'Down 3'
p4703
tp4704
a(S'move north one time'
p4705
S'Up 1'
p4706
tp4707
a(S'left'
p4708
S'Left 1'
p4709
tp4710
a(S'down once'
p4711
S'Down 1'
p4712
tp4713
a(S'up'
p4714
S'Up 1'
p4715
tp4716
a(S'turn right'
p4717
S'Right 1'
p4718
tp4719
a(S'left'
p4720
S'Left 1'
p4721
tp4722
a(S'down'
p4723
S'Down 1'
p4724
tp4725
a(S'down'
p4726
S'Down 1'
p4727
tp4728
a(S'and north two moves'
p4729
S'Up 2'
p4730
tp4731
a(S'go north'
p4732
S'Up 1'
p4733
tp4734
a(S'go west'
p4735
S'Left 1'
p4736
tp4737
a(S', down'
p4738
S'Down 1'
p4739
tp4740
a(S'right'
p4741
S'Right 1'
p4742
tp4743
a(S'go right'
p4744
S'Right 1'
p4745
tp4746
a(S'move north three times'
p4747
S'Up 3'
p4748
tp4749
a(S'three steps up'
p4750
S'Up 3'
p4751
tp4752
a(S'west'
p4753
S'Left 1'
p4754
tp4755
a(S'then right'
p4756
S'Right 1'
p4757
tp4758
a(S'and then north'
p4759
S'Up 1'
p4760
tp4761
a(S', up'
p4762
S'Up 1'
p4763
tp4764
a(S'go down three spaces'
p4765
S'Down 3'
p4766
tp4767
a(S'up three spaces'
p4768
S'Up 3'
p4769
tp4770
a(S'up'
p4771
S'Up 1'
p4772
tp4773
a(S'step right'
p4774
S'Right 1'
p4775
tp4776
a(S'go up one'
p4777
S'Up 1'
p4778
tp4779
a(S'and left'
p4780
S'Left 1'
p4781
tp4782
a(S'down'
p4783
S'Down 1'
p4784
tp4785
a(S'go take three steps down'
p4786
S'Down 3'
p4787
tp4788
a(S'and move right three times'
p4789
S'Right 3'
p4790
tp4791
a(S'and up three steps'
p4792
S'Up 3'
p4793
tp4794
a(S', left'
p4795
S'Left 1'
p4796
tp4797
a(S'move west five steps'
p4798
S'Left 5'
p4799
tp4800
a(S'up'
p4801
S'Up 1'
p4802
tp4803
a(S'go left'
p4804
S'Left 1'
p4805
tp4806
a(S'move south three spaces'
p4807
S'Down 3'
p4808
tp4809
a(S'and one step to the left'
p4810
S'Left 1'
p4811
tp4812
a(S'up'
p4813
S'Up 1'
p4814
tp4815
a(S'then go left'
p4816
S'Left 1'
p4817
tp4818
a(S'move south one unit'
p4819
S'Down 1'
p4820
tp4821
a(S'go five steps down'
p4822
S'Down 5'
p4823
tp4824
a(S'west'
p4825
S'Left 1'
p4826
tp4827
a(S'and move two steps up'
p4828
S'Up 2'
p4829
tp4830
a(S'down one'
p4831
S'Down 1'
p4832
tp4833
a(S'then down'
p4834
S'Down 1'
p4835
tp4836
a(S'and go north for two spaces'
p4837
S'Up 2'
p4838
tp4839
a(S'left'
p4840
S'Left 1'
p4841
tp4842
a(S'up three'
p4843
S'Up 3'
p4844
tp4845
a(S'go up'
p4846
S'Up 1'
p4847
tp4848
a(S'right'
p4849
S'Right 1'
p4850
tp4851
a(S'then move down one time'
p4852
S'Down 1'
p4853
tp4854
a(S'south'
p4855
S'Down 1'
p4856
tp4857
a(S'go down three steps'
p4858
S'Down 3'
p4859
tp4860
a(S'down'
p4861
S'Down 1'
p4862
tp4863
a(S'right one space'
p4864
S'Right 1'
p4865
tp4866
a(S'go up'
p4867
S'Up 1'
p4868
tp4869
a(S'go down five spaces'
p4870
S'Down 5'
p4871
tp4872
a(S', west'
p4873
S'Left 1'
p4874
tp4875
a(S', up'
p4876
S'Up 1'
p4877
tp4878
a(S', up'
p4879
S'Up 1'
p4880
tp4881
a(S'then move east three times'
p4882
S'Right 3'
p4883
tp4884
a(S'go east for four steps'
p4885
S'Right 4'
p4886
tp4887
a(S'then up three times'
p4888
S'Up 3'
p4889
tp4890
a(S'then left four times'
p4891
S'Left 4'
p4892
tp4893
a(S'and four times to the right'
p4894
S'Right 4'
p4895
tp4896
a(S'move down'
p4897
S'Down 1'
p4898
tp4899
a(S', go up three times'
p4900
S'Up 3'
p4901
tp4902
a(S'down'
p4903
S'Down 1'
p4904
tp4905
a(S'then down one time'
p4906
S'Down 1'
p4907
tp4908
a(S'then left'
p4909
S'Left 1'
p4910
tp4911
a(S'left'
p4912
S'Left 1'
p4913
tp4914
a(S'down'
p4915
S'Down 1'
p4916
tp4917
a(S'move south'
p4918
S'Down 1'
p4919
tp4920
a(S', down'
p4921
S'Down 1'
p4922
tp4923
a(S'left'
p4924
S'Left 1'
p4925
tp4926
a(S'then move west five steps'
p4927
S'Left 5'
p4928
tp4929
a(S'go down five steps'
p4930
S'Down 5'
p4931
tp4932
a(S'down'
p4933
S'Down 1'
p4934
tp4935
a(S'left'
p4936
S'Left 1'
p4937
tp4938
a(S'move left four'
p4939
S'Left 4'
p4940
tp4941
a(S'go east three'
p4942
S'Right 3'
p4943
tp4944
a(S'down one'
p4945
S'Down 1'
p4946
tp4947
a(S'up'
p4948
S'Up 1'
p4949
tp4950
a(S'go south'
p4951
S'Down 1'
p4952
tp4953
a(S'travel west'
p4954
S'Left 1'
p4955
tp4956
a(S'down'
p4957
S'Down 1'
p4958
tp4959
a(S'then move south one step'
p4960
S'Down 1'
p4961
tp4962
a(S'go left'
p4963
S'Left 1'
p4964
tp4965
a(S'then down one step'
p4966
S'Down 1'
p4967
tp4968
a(S'left five spaces'
p4969
S'Left 5'
p4970
tp4971
a(S'go down'
p4972
S'Down 1'
p4973
tp4974
a(S'up'
p4975
S'Up 1'
p4976
tp4977
a(S'go west'
p4978
S'Left 1'
p4979
tp4980
a(S'go down'
p4981
S'Down 1'
p4982
tp4983
a(S'down'
p4984
S'Down 1'
p4985
tp4986
a(S'down'
p4987
S'Down 1'
p4988
tp4989
a(S'move west one time'
p4990
S'Left 1'
p4991
tp4992
a(S', down once'
p4993
S'Down 1'
p4994
tp4995
a(S'turn to your left'
p4996
S'Left 1'
p4997
tp4998
a(S'and finally up twice'
p4999
S'Up 2'
p5000
tp5001
a(S'west four times'
p5002
S'Left 4'
p5003
tp5004
a(S'go down three steps'
p5005
S'Down 3'
p5006
tp5007
a(S'then east'
p5008
S'Right 1'
p5009
tp5010
a(S'down'
p5011
S'Down 1'
p5012
tp5013
a(S'then go left'
p5014
S'Left 1'
p5015
tp5016
a(S'left five'
p5017
S'Left 5'
p5018
tp5019
a(S'down five'
p5020
S'Down 5'
p5021
tp5022
a(S'down another space'
p5023
S'Down 1'
p5024
tp5025
a(S'go south'
p5026
S'Down 1'
p5027
tp5028
a(S'up'
p5029
S'Up 1'
p5030
tp5031
a(S', and three steps north'
p5032
S'Up 3'
p5033
tp5034
a(S'down'
p5035
S'Down 1'
p5036
tp5037
a(S'go down'
p5038
S'Down 1'
p5039
tp5040
a(S'left'
p5041
S'Left 1'
p5042
tp5043
a(S'and north again'
p5044
S'Up 1'
p5045
tp5046
a(S'go south'
p5047
S'Down 1'
p5048
tp5049
a(S'move north two spaces'
p5050
S'Up 2'
p5051
tp5052
a(S'go down'
p5053
S'Down 1'
p5054
tp5055
a(S'make a ninety degree turn to your left'
p5056
S'Left 1'
p5057
tp5058
a(S'down one space'
p5059
S'Down 1'
p5060
tp5061
a(S'move east four steps'
p5062
S'Right 4'
p5063
tp5064
a(S'left three spaces'
p5065
S'Left 3'
p5066
tp5067
a(S'and then north'
p5068
S'Up 1'
p5069
tp5070
a(S'move south'
p5071
S'Down 1'
p5072
tp5073
a(S'north two'
p5074
S'Up 2'
p5075
tp5076
a(S'west four'
p5077
S'Left 4'
p5078
tp5079
a(S'move up and wait'
p5080
S'Up 1'
p5081
tp5082
a(S'go left'
p5083
S'Left 1'
p5084
tp5085
a(S'up three'
p5086
S'Up 3'
p5087
tp5088
a(S', left'
p5089
S'Left 1'
p5090
tp5091
a(S', down'
p5092
S'Down 1'
p5093
tp5094
a(S'down'
p5095
S'Down 1'
p5096
tp5097
a(S'down one space'
p5098
S'Down 1'
p5099
tp5100
a(S'go down'
p5101
S'Down 1'
p5102
tp5103
a(S'then down one'
p5104
S'Down 1'
p5105
tp5106
a(S'south one space'
p5107
S'Down 1'
p5108
tp5109
a(S'then left'
p5110
S'Left 1'
p5111
tp5112
a(S', go right one time'
p5113
S'Right 1'
p5114
tp5115
a(S'south'
p5116
S'Down 1'
p5117
tp5118
a(S'move south one'
p5119
S'Down 1'
p5120
tp5121
a(S'then right'
p5122
S'Right 1'
p5123
tp5124
a(S'then west'
p5125
S'Left 1'
p5126
tp5127
a(S'up one'
p5128
S'Up 1'
p5129
tp5130
a(S'then left'
p5131
S'Left 1'
p5132
tp5133
a(S'down'
p5134
S'Down 1'
p5135
tp5136
a(S'then west'
p5137
S'Right 1'
p5138
tp5139
a(S', south'
p5140
S'Down 1'
p5141
tp5142
a(S'move down three'
p5143
S'Down 3'
p5144
tp5145
a(S'left'
p5146
S'Left 1'
p5147
tp5148
a(S'go three step down'
p5149
S'Down 3'
p5150
tp5151
a(S'go right'
p5152
S'Right 1'
p5153
tp5154
a(S'move slightly to the west'
p5155
S'Left 1'
p5156
tp5157
a(S'go down three'
p5158
S'Down 3'
p5159
tp5160
a(S'down'
p5161
S'Down 1'
p5162
tp5163
a(S'then go up three times'
p5164
S'Up 3'
p5165
tp5166
a(S', and two steps north'
p5167
S'Up 2'
p5168
tp5169
a(S'up one'
p5170
S'Up 1'
p5171
tp5172
a(S'go left once'
p5173
S'Left 1'
p5174
tp5175
a(S'then move north three steps'
p5176
S'Up 3'
p5177
tp5178
a(S'west four'
p5179
S'Left 4'
p5180
tp5181
a(S'go up two steps'
p5182
S'Up 2'
p5183
tp5184
a(S'turn left and move forward one step'
p5185
S'Left 1'
p5186
tp5187
a(S'south'
p5188
S'Up 1'
p5189
tp5190
a(S', go down one time'
p5191
S'Down 1'
p5192
tp5193
a(S'and north three moves'
p5194
S'Up 3'
p5195
tp5196
a(S'grab chair go right'
p5197
S'Right 1'
p5198
tp5199
a(S'east'
p5200
S'Right 1'
p5201
tp5202
a(S'up one space'
p5203
S'Up 1'
p5204
tp5205
a(S'go down'
p5206
S'Down 1'
p5207
tp5208
a(S'left'
p5209
S'Left 1'
p5210
tp5211
a(S'then left'
p5212
S'Left 1'
p5213
tp5214
a(S'up'
p5215
S'Up 1'
p5216
tp5217
a(S', go right'
p5218
S'Right 1'
p5219
tp5220
a(S'go down'
p5221
S'Down 1'
p5222
tp5223
a(S'move east four'
p5224
S'Right 4'
p5225
tp5226
a(S'go down one step'
p5227
S'Down 1'
p5228
tp5229
a(S'go left'
p5230
S'Left 1'
p5231
tp5232
a(S'up'
p5233
S'Up 1'
p5234
tp5235
a(S'left'
p5236
S'Left 1'
p5237
tp5238
a(S', down once'
p5239
S'Down 1'
p5240
tp5241
a(S'up one space'
p5242
S'Up 1'
p5243
tp5244
a(S'go down three steps'
p5245
S'Down 3'
p5246
tp5247
a(S'go west for five spaces'
p5248
S'Left 5'
p5249
tp5250
a(S'west'
p5251
S'Left 1'
p5252
tp5253
a(S'down'
p5254
S'Down 1'
p5255
tp5256
a(S'up'
p5257
S'Up 1'
p5258
tp5259
a(S'and then left'
p5260
S'Left 1'
p5261
tp5262
a(S'south'
p5263
S'Down 1'
p5264
tp5265
a(S'east'
p5266
S'Right 1'
p5267
tp5268
a(S'then move south one step'
p5269
S'Down 1'
p5270
tp5271
a(S'go left five times'
p5272
S'Left 5'
p5273
tp5274
a(S'right one'
p5275
S'Right 1'
p5276
tp5277
a(S'right'
p5278
S'Right 1'
p5279
tp5280
a(S'one step down'
p5281
S'Down 1'
p5282
tp5283
a(S'up one step'
p5284
S'Up 1'
p5285
tp5286
a(S', one step south'
p5287
S'Down 1'
p5288
tp5289
a(S'then right immediately'
p5290
S'Right 1'
p5291
tp5292
a(S'left'
p5293
S'Left 1'
p5294
tp5295
a(S'then go east four paces'
p5296
S'Right 4'
p5297
tp5298
a(S'left one'
p5299
S'Left 1'
p5300
tp5301
a(S'go right'
p5302
S'Right 1'
p5303
tp5304
a(S'north'
p5305
S'Up 1'
p5306
tp5307
a(S'go west'
p5308
S'Left 1'
p5309
tp5310
a(S', right'
p5311
S'Right 1'
p5312
tp5313
a(S'four steps right'
p5314
S'Right 4'
p5315
tp5316
a(S'get chair move east'
p5317
S'Left 1'
p5318
tp5319
a(S', go up'
p5320
S'Right 1'
p5321
tp5322
a(S', south'
p5323
S'Down 1'
p5324
tp5325
a(S'go down'
p5326
S'Down 1'
p5327
tp5328
a(S'down'
p5329
S'Down 1'
p5330
tp5331
a(S'up'
p5332
S'Up 1'
p5333
tp5334
a(S'south'
p5335
S'Down 1'
p5336
tp5337
a(S'move south three spaces'
p5338
S'Down 3'
p5339
tp5340
a(S'go up two steps'
p5341
S'Up 2'
p5342
tp5343
a(S'then up'
p5344
S'Up 1'
p5345
tp5346
a(S'and up'
p5347
S'Up 1'
p5348
tp5349
a(S'left'
p5350
S'Left 1'
p5351
tp5352
a(S'please go down'
p5353
S'Down 3'
p5354
tp5355
a(S'and then up'
p5356
S'Up 1'
p5357
tp5358
a(S'go left'
p5359
S'Left 1'
p5360
tp5361
a(S'go down'
p5362
S'Down 1'
p5363
tp5364
a(S'then north'
p5365
S'Up 1'
p5366
tp5367
a(S'go left four times'
p5368
S'Left 4'
p5369
tp5370
a(S'go down five times'
p5371
S'Down 5'
p5372
tp5373
a(S'right'
p5374
S'Right 1'
p5375
tp5376
a(S'go down'
p5377
S'Down 1'
p5378
tp5379
a(S'left four spots'
p5380
S'Left 4'
p5381
tp5382
a(S'go down'
p5383
S'Down 1'
p5384
tp5385
a(S'move up three'
p5386
S'Up 3'
p5387
tp5388
a(S'north'
p5389
S'Up 1'
p5390
tp5391
a(S'down'
p5392
S'Down 1'
p5393
tp5394
a(S'go right'
p5395
S'Right 1'
p5396
tp5397
a(S'north stop'
p5398
S'Up 1'
p5399
tp5400
a(S'move west'
p5401
S'Left 1'
p5402
tp5403
a(S'then go down'
p5404
S'Down 1'
p5405
tp5406
a(S'then move left one time'
p5407
S'Left 1'
p5408
tp5409
a(S', left'
p5410
S'Left 1'
p5411
tp5412
a(S'down'
p5413
S'Down 1'
p5414
tp5415
a(S'go down'
p5416
S'Down 1'
p5417
tp5418
a(S'go up'
p5419
S'Up 1'
p5420
tp5421
a(S', left'
p5422
S'Left 1'
p5423
tp5424
a(S'then go west'
p5425
S'Left 1'
p5426
tp5427
a(S'left'
p5428
S'Left 1'
p5429
tp5430
a(S'up'
p5431
S'Up 1'
p5432
tp5433
a(S'west'
p5434
S'Left 1'
p5435
tp5436
a(S'right'
p5437
S'Right 1'
p5438
tp5439
a(S'up'
p5440
S'Up 1'
p5441
tp5442
a(S'left'
p5443
S'Left 1'
p5444
tp5445
a(S'up'
p5446
S'Up 1'
p5447
tp5448
a(S'west'
p5449
S'Left 1'
p5450
tp5451
a(S'go north'
p5452
S'Up 1'
p5453
tp5454
a(S'move down'
p5455
S'Down 1'
p5456
tp5457
a(S', go right'
p5458
S'Right 1'
p5459
tp5460
a(S'move west three steps'
p5461
S'Left 3'
p5462
tp5463
a(S'down once'
p5464
S'Down 1'
p5465
tp5466
a(S'left'
p5467
S'Left 1'
p5468
tp5469
a(S'move down five spaces'
p5470
S'Down 5'
p5471
tp5472
a(S'down two'
p5473
S'Down 1'
p5474
tp5475
a(S'then go right again'
p5476
S'Right 1'
p5477
tp5478
a(S'go up'
p5479
S'Up 1'
p5480
tp5481
a(S'then go right'
p5482
S'Right 1'
p5483
tp5484
a(S'one move left'
p5485
S'Left 1'
p5486
tp5487
a(S'down'
p5488
S'Down 1'
p5489
tp5490
a(S'then up'
p5491
S'Up 1'
p5492
tp5493
a(S'go back down'
p5494
S'Down 1'
p5495
tp5496
a(S', and down'
p5497
S'Down 1'
p5498
tp5499
a(S'then go east'
p5500
S'Right 1'
p5501
tp5502
a(S'turn to your right'
p5503
S'Right 1'
p5504
tp5505
a(S'left three'
p5506
S'Left 3'
p5507
tp5508
a(S'go down'
p5509
S'Down 1'
p5510
tp5511
a(S'down'
p5512
S'Down 1'
p5513
tp5514
a(S'left four steps'
p5515
S'Left 4'
p5516
tp5517
a(S'down'
p5518
S'Down 1'
p5519
tp5520
a(S'go right'
p5521
S'Right 1'
p5522
tp5523
a(S'left'
p5524
S'Left 1'
p5525
tp5526
a(S'go west'
p5527
S'Left 1'
p5528
tp5529
a(S'down'
p5530
S'Down 1'
p5531
tp5532
a(S'west'
p5533
S'Left 1'
p5534
tp5535
a(S'up'
p5536
S'Up 1'
p5537
tp5538
a(S'up three spaces'
p5539
S'Up 3'
p5540
tp5541
a(S'right four'
p5542
S'Right 4'
p5543
tp5544
a(S'with the chair take one step down'
p5545
S'Down 1'
p5546
tp5547
a(S'right'
p5548
S'Right 1'
p5549
tp5550
a(S', left'
p5551
S'Left 1'
p5552
tp5553
a(S'go south three spaces'
p5554
S'Down 3'
p5555
tp5556
a(S'left'
p5557
S'Left 1'
p5558
tp5559
a(S'and north two steps'
p5560
S'Up 2'
p5561
tp5562
a(S'then move left one time'
p5563
S'Left 1'
p5564
tp5565
a(S', go north'
p5566
S'Up 1'
p5567
tp5568
a(S'another step south'
p5569
S'Down 1'
p5570
tp5571
a(S'and up two'
p5572
S'Up 2'
p5573
tp5574
a(S'. move west four spaces'
p5575
S'Left 4'
p5576
tp5577
a(S'then move left two times'
p5578
S'Left 2'
p5579
tp5580
a(S'then move north one step'
p5581
S'Up 1'
p5582
tp5583
a(S'go right'
p5584
S'Right 1'
p5585
tp5586
a(S'go down'
p5587
S'Down 1'
p5588
tp5589
a(S'up'
p5590
S'Up 1'
p5591
tp5592
a(S'and then to the left'
p5593
S'Left 1'
p5594
tp5595
a(S'go south five'
p5596
S'Down 5'
p5597
tp5598
a(S'down'
p5599
S'Down 1'
p5600
tp5601
a(S'up'
p5602
S'Up 1'
p5603
tp5604
a(S'down'
p5605
S'Down 1'
p5606
tp5607
a(S'north'
p5608
S'Up 1'
p5609
tp5610
a(S'left'
p5611
S'Left 1'
p5612
tp5613
a(S'go left'
p5614
S'Left 1'
p5615
tp5616
a(S'down'
p5617
S'Down 1'
p5618
tp5619
a(S'down'
p5620
S'Down 1'
p5621
tp5622
a(S'left'
p5623
S'Left 1'
p5624
tp5625
a(S'left'
p5626
S'Left 1'
p5627
tp5628
a(S'north one'
p5629
S'Up 1'
p5630
tp5631
a(S'then down'
p5632
S'Down 1'
p5633
tp5634
a(S'go south three steps'
p5635
S'Down 3'
p5636
tp5637
a(S'move one spot to the right'
p5638
S'Right 1'
p5639
tp5640
a(S'down'
p5641
S'Down 1'
p5642
tp5643
a(S'down'
p5644
S'Down 1'
p5645
tp5646
a(S'west five'
p5647
S'Left 5'
p5648
tp5649
a(S'down three'
p5650
S'Down 3'
p5651
tp5652
a(S'left one'
p5653
S'Left 1'
p5654
tp5655
a(S'up'
p5656
S'Up 1'
p5657
tp5658
a(S'left'
p5659
S'Left 1'
p5660
tp5661
a(S'go left five times'
p5662
S'Left 5'
p5663
tp5664
a(S'right'
p5665
S'Right 1'
p5666
tp5667
a(S'up'
p5668
S'Up 1'
p5669
tp5670
a(S'move south'
p5671
S'Down 1'
p5672
tp5673
a(S'left one'
p5674
S'Left 1'
p5675
tp5676
a(S'four steps down'
p5677
S'Down 4'
p5678
tp5679
a(S'move west four times'
p5680
S'Left 4'
p5681
tp5682
a(S'then go down'
p5683
S'Down 1'
p5684
tp5685
a(S'down one step'
p5686
S'Down 1'
p5687
tp5688
a(S'down one'
p5689
S'Down 1'
p5690
tp5691
a(S', right'
p5692
S'Right 1'
p5693
tp5694
a(S'down'
p5695
S'Down 1'
p5696
tp5697
a(S'up'
p5698
S'Up 1'
p5699
tp5700
a(S'north three'
p5701
S'Up 3'
p5702
tp5703
a(S'go south'
p5704
S'Down 1'
p5705
tp5706
a(S'down'
p5707
S'Down 1'
p5708
tp5709
a(S'down'
p5710
S'Down 1'
p5711
tp5712
a(S'up'
p5713
S'Up 1'
p5714
tp5715
a(S'move south one space'
p5716
S'Down 1'
p5717
tp5718
a(S', right'
p5719
S'Right 1'
p5720
tp5721
a(S'move five steps down'
p5722
S'Down 5'
p5723
tp5724
a(S'then go south one pace'
p5725
S'Down 1'
p5726
tp5727
a(S'up two'
p5728
S'Up 2'
p5729
tp5730
a(S'move one space to the west'
p5731
S'Left 1'
p5732
tp5733
a(S'right'
p5734
S'Right 1'
p5735
tp5736
a(S'move east one step'
p5737
S'Right 1'
p5738
tp5739
a(S'north one step'
p5740
S'Up 1'
p5741
tp5742
a(S'right'
p5743
S'Right 1'
p5744
tp5745
a(S'go south'
p5746
S'Down 1'
p5747
tp5748
a(S'go to the left one spot'
p5749
S'Left 1'
p5750
tp5751
a(S'then up'
p5752
S'Up 1'
p5753
tp5754
a(S'go down five steps'
p5755
S'Down 5'
p5756
tp5757
a(S'go up'
p5758
S'Up 1'
p5759
tp5760
a(S'down one'
p5761
S'Down 1'
p5762
tp5763
a(S'go down'
p5764
S'Down 1'
p5765
tp5766
a(S'go west one square'
p5767
S'Left 1'
p5768
tp5769
a(S'right'
p5770
S'Right 1'
p5771
tp5772
a(S'take three steps south'
p5773
S'Down 3'
p5774
tp5775
a(S'face left'
p5776
S'Left 1'
p5777
tp5778
a(S'go down'
p5779
S'Down 1'
p5780
tp5781
a(S'go up'
p5782
S'Up 1'
p5783
tp5784
a(S', right'
p5785
S'Right 1'
p5786
tp5787
a(S'up'
p5788
S'Up 1'
p5789
tp5790
a(S'and then left'
p5791
S'Left 1'
p5792
tp5793
a(S', north'
p5794
S'Up 1'
p5795
tp5796
a(S'move east four times'
p5797
S'Right 4'
p5798
tp5799
a(S'go up'
p5800
S'Up 1'
p5801
tp5802
a(S'then up'
p5803
S'Up 1'
p5804
tp5805
a(S'left'
p5806
S'Left 1'
p5807
tp5808
a(S'go down'
p5809
S'Down 1'
p5810
tp5811
a(S'go south three paces'
p5812
S'Down 3'
p5813
tp5814
a(S'down'
p5815
S'Down 1'
p5816
tp5817
a(S'left once'
p5818
S'Left 1'
p5819
tp5820
a(S'right'
p5821
S'Right 1'
p5822
tp5823
a(S'left'
p5824
S'Left 1'
p5825
tp5826
a(S'go down'
p5827
S'Down 1'
p5828
tp5829
a(S'right'
p5830
S'Right 1'
p5831
tp5832
a(S'four steps east'
p5833
S'Right 4'
p5834
tp5835
a(S'up one space'
p5836
S'Up 1'
p5837
tp5838
a(S'then move left three times'
p5839
S'Left 3'
p5840
tp5841
a(S'left'
p5842
S'Left 1'
p5843
tp5844
a(S'right one space'
p5845
S'Right 1'
p5846
tp5847
a(S'go right'
p5848
S'Right 1'
p5849
tp5850
a(S'down one space'
p5851
S'Down 1'
p5852
tp5853
a(S'go up two'
p5854
S'Up 2'
p5855
tp5856
a(S'and up'
p5857
S'Up 1'
p5858
tp5859
a(S'up'
p5860
S'Up 1'
p5861
tp5862
a(S'move east four times'
p5863
S'Right 4'
p5864
tp5865
a(S'look down , move down once'
p5866
S'Down 1'
p5867
tp5868
a(S'go down'
p5869
S'Down 1'
p5870
tp5871
a(S'down'
p5872
S'Down 1'
p5873
tp5874
a(S'left'
p5875
S'Left 1'
p5876
tp5877
a(S'up'
p5878
S'Up 1'
p5879
tp5880
a(S'go down'
p5881
S'Down 1'
p5882
tp5883
a(S'go left'
p5884
S'Left 1'
p5885
tp5886
a(S'go down'
p5887
S'Down 1'
p5888
tp5889
a(S', move west three times'
p5890
S'Left 3'
p5891
tp5892
a(S'left'
p5893
S'Left 1'
p5894
tp5895
a(S'go down'
p5896
S'Down 1'
p5897
tp5898
a(S'move west four spaces'
p5899
S'Left 4'
p5900
tp5901
a(S'go down three steps'
p5902
S'Down 3'
p5903
tp5904
a(S'right four times'
p5905
S'Right 4'
p5906
tp5907
a(S'left'
p5908
S'Left 1'
p5909
tp5910
a(S'then move west five steps'
p5911
S'Left 5'
p5912
tp5913
a(S'then up two steps'
p5914
S'Up 2'
p5915
tp5916
a(S'left'
p5917
S'Left 1'
p5918
tp5919
a(S', east'
p5920
S'Right 1'
p5921
tp5922
a(S'then left one step'
p5923
S'Left 1'
p5924
tp5925
a(S'go up'
p5926
S'Up 1'
p5927
tp5928
a(S', up'
p5929
S'Up 1'
p5930
tp5931
a(S'then east'
p5932
S'Left 1'
p5933
tp5934
a(S'move up'
p5935
S'Up 1'
p5936
tp5937
a(S', east'
p5938
S'Right 1'
p5939
tp5940
a(S'go left five spaces'
p5941
S'Left 5'
p5942
tp5943
a(S'down'
p5944
S'Down 1'
p5945
tp5946
a(S'once to the right'
p5947
S'Right 1'
p5948
tp5949
a(S'up'
p5950
S'Up 1'
p5951
tp5952
a(S'then up'
p5953
S'Up 1'
p5954
tp5955
a(S'down one space'
p5956
S'Down 1'
p5957
tp5958
a(S'move west and go under the door'
p5959
S'Left 1'
p5960
tp5961
a(S'go towards the east wall'
p5962
S'Right 1'
p5963
tp5964
a(S'move down one'
p5965
S'Down 1'
p5966
tp5967
a(S'down'
p5968
S'Down 1'
p5969
tp5970
a(S'move south four times'
p5971
S'Down 4'
p5972
tp5973
a(S'go north'
p5974
S'Up 1'
p5975
tp5976
a(S', left'
p5977
S'Left 1'
p5978
tp5979
a(S'move down five'
p5980
S'Down 5'
p5981
tp5982
a(S'up three steps'
p5983
S'Up 3'
p5984
tp5985
a(S'left four steps'
p5986
S'Left 4'
p5987
tp5988
a(S'move west four times'
p5989
S'Left 4'
p5990
tp5991
a(S'then up two times'
p5992
S'Up 2'
p5993
tp5994
a(S'up'
p5995
S'Up 1'
p5996
tp5997
a(S'go down'
p5998
S'Down 1'
p5999
tp6000
a(S'go up'
p6001
S'Up 1'
p6002
tp6003
a(S'go down once'
p6004
S'Down 1'
p6005
tp6006
a(S'go south one move'
p6007
S'Down 1'
p6008
tp6009
a(S'please move down three times'
p6010
S'Down 3'
p6011
tp6012
a(S', go up'
p6013
S'Up 1'
p6014
tp6015
a(S'three steps up'
p6016
S'Up 3'
p6017
tp6018
a(S'down'
p6019
S'Down 1'
p6020
tp6021
a(S'then right'
p6022
S'Right 1'
p6023
tp6024
a(S'down'
p6025
S'Down 1'
p6026
tp6027
a(S'and then go north'
p6028
S'Up 1'
p6029
tp6030
a(S'go left'
p6031
S'Left 1'
p6032
tp6033
a(S'go south'
p6034
S'Down 1'
p6035
tp6036
a(S'and north two'
p6037
S'Up 4'
p6038
tp6039
a(S'down'
p6040
S'Down 1'
p6041
tp6042
a(S'up'
p6043
S'Up 1'
p6044
tp6045
a(S'down'
p6046
S'Down 1'
p6047
tp6048
a(S'east four'
p6049
S'Right 4'
p6050
tp6051
a(S'go right'
p6052
S'Right 1'
p6053
tp6054
a(S'right two'
p6055
S'Right 2'
p6056
tp6057
a(S'move down one'
p6058
S'Down 1'
p6059
tp6060
a(S'up'
p6061
S'Up 1'
p6062
tp6063
a(S'up'
p6064
S'Up 1'
p6065
tp6066
a(S'then five steps to the left'
p6067
S'Left 5'
p6068
tp6069
a(S', one step south'
p6070
S'Down 1'
p6071
tp6072
a(S'north'
p6073
S'Up 1'
p6074
tp6075
a(S'go west'
p6076
S'Left 1'
p6077
tp6078
a(S'left'
p6079
S'Left 1'
p6080
tp6081
a(S', up'
p6082
S'Up 1'
p6083
tp6084
a(S'go down three spaces'
p6085
S'Down 3'
p6086
tp6087
a(S'then south'
p6088
S'Down 1'
p6089
tp6090
a(S', up two'
p6091
S'Up 2'
p6092
tp6093
a(S', one step east'
p6094
S'Right 1'
p6095
tp6096
a(S'then down'
p6097
S'Down 1'
p6098
tp6099
a(S'move down once'
p6100
S'Down 1'
p6101
tp6102
a(S'go down'
p6103
S'Down 1'
p6104
tp6105
a(S'take a step left'
p6106
S'Left 1'
p6107
tp6108
a(S'and then go right four steps'
p6109
S'Right 4'
p6110
tp6111
a(S'left'
p6112
S'Left 1'
p6113
tp6114
a(S'one step left'
p6115
S'Left 1'
p6116
tp6117
a(S'down'
p6118
S'Down 1'
p6119
tp6120
a(S'then go south one pace'
p6121
S'Down 1'
p6122
tp6123
a(S'east'
p6124
S'Right 1'
p6125
tp6126
a(S'down'
p6127
S'Down 1'
p6128
tp6129
a(S'up'
p6130
S'Up 1'
p6131
tp6132
a(S'go down five spaces'
p6133
S'Down 5'
p6134
tp6135
a(S'then go up two steps'
p6136
S'Up 2'
p6137
tp6138
a(S'left'
p6139
S'Left 1'
p6140
tp6141
a(S'go down five times'
p6142
S'Down 5'
p6143
tp6144
a(S'left four'
p6145
S'Left 4'
p6146
tp6147
a(S'then move east four steps'
p6148
S'Right 4'
p6149
tp6150
a(S'go down'
p6151
S'Down 1'
p6152
tp6153
a(S'move left four spaces'
p6154
S'Left 4'
p6155
tp6156
a(S'east'
p6157
S'Right 1'
p6158
tp6159
a(S'go south'
p6160
S'Down 1'
p6161
tp6162
a(S'go up'
p6163
S'Up 1'
p6164
tp6165
a(S', right'
p6166
S'Right 1'
p6167
tp6168
a(S', one step south'
p6169
S'Down 1'
p6170
tp6171
a(S'one down'
p6172
S'Down 1'
p6173
tp6174
a(S'go south for three steps'
p6175
S'Down 3'
p6176
tp6177
a(S'go right'
p6178
S'Right 1'
p6179
tp6180
a(S', go right'
p6181
S'Right 1'
p6182
tp6183
a(S'five steps to the left'
p6184
S'Left 5'
p6185
tp6186
a(S'move north three steps'
p6187
S'Up 3'
p6188
tp6189
a(S', and then go east for four spaces'
p6190
S'Right 4'
p6191
tp6192
a(S', down'
p6193
S'Down 1'
p6194
tp6195
a(S'go right'
p6196
S'Right 1'
p6197
tp6198
a(S'go down'
p6199
S'Down 1'
p6200
tp6201
a(S'down'
p6202
S'Down 1'
p6203
tp6204
a(S'left'
p6205
S'Left 1'
p6206
tp6207
a(S'then move north three steps'
p6208
S'Up 3'
p6209
tp6210
a(S'up'
p6211
S'Up 1'
p6212
tp6213
a(S'step once to the east'
p6214
S'Right 1'
p6215
tp6216
a(S'then up'
p6217
S'Up 1'
p6218
tp6219
a(S'proceed by moving yourself east one movement'
p6220
S'Right 1'
p6221
tp6222
a(S', go straight up'
p6223
S'Up 1'
p6224
tp6225
a(S'east'
p6226
S'Right 1'
p6227
tp6228
a(S'turn and travel north'
p6229
S'Up 1'
p6230
tp6231
a(S'go west for three steps'
p6232
S'Right 3'
p6233
tp6234
a(S'and then up'
p6235
S'Up 1'
p6236
tp6237
a(S'left'
p6238
S'Left 1'
p6239
tp6240
a(S'up'
p6241
S'Up 1'
p6242
tp6243
a(S'go up'
p6244
S'Up 1'
p6245
tp6246
a(S'go up'
p6247
S'Up 1'
p6248
tp6249
a(S'down'
p6250
S'Down 1'
p6251
tp6252
a(S'go north'
p6253
S'Up 1'
p6254
tp6255
a(S'down'
p6256
S'Down 1'
p6257
tp6258
a(S'move south four moves'
p6259
S'Down 4'
p6260
tp6261
a(S'go right'
p6262
S'Right 1'
p6263
tp6264
a(S'down'
p6265
S'Down 1'
p6266
tp6267
a(S', south'
p6268
S'Down 1'
p6269
tp6270
a(S'then go one step west'
p6271
S'Left 1'
p6272
tp6273
a(S'up'
p6274
S'Up 1'
p6275
tp6276
a(S'go right'
p6277
S'Right 1'
p6278
tp6279
a(S'turn yourself right and move one square forward'
p6280
S'Right 1'
p6281
tp6282
a(S', go down one time'
p6283
S'Down 1'
p6284
tp6285
a(S'go down'
p6286
S'Down 1'
p6287
tp6288
a(S'go up'
p6289
S'Up 1'
p6290
tp6291
a(S'north'
p6292
S'Up 1'
p6293
tp6294
a(S'go down'
p6295
S'Down 1'
p6296
tp6297
a(S'then left one step'
p6298
S'Left 1'
p6299
tp6300
a(S'go down'
p6301
S'Down 1'
p6302
tp6303
a(S'down'
p6304
S'Down 1'
p6305
tp6306
a(S'take three steps south'
p6307
S'Down 3'
p6308
tp6309
a(S'move right one space'
p6310
S'Right 1'
p6311
tp6312
a(S'then left'
p6313
S'Left 1'
p6314
tp6315
a(S', then go right four times'
p6316
S'Right 4'
p6317
tp6318
a(S'go east for one space'
p6319
S'Left 1'
p6320
tp6321
a(S'right four'
p6322
S'Right 4'
p6323
tp6324
a(S'go right'
p6325
S'Right 1'
p6326
tp6327
a(S', move north three units'
p6328
S'Up 3'
p6329
tp6330
a(S', west'
p6331
S'Left 1'
p6332
tp6333
a(S'move west four units'
p6334
S'Left 4'
p6335
tp6336
a(S'down'
p6337
S'Down 1'
p6338
tp6339
a(S'go east'
p6340
S'Right 1'
p6341
tp6342
a(S'go north'
p6343
S'Up 1'
p6344
tp6345
a(S'move north three times'
p6346
S'Up 3'
p6347
tp6348
a(S'go left once'
p6349
S'Left 1'
p6350
tp6351
a(S', then go down once'
p6352
S'Down 1'
p6353
tp6354
a(S'go down'
p6355
S'Down 1'
p6356
tp6357
a(S'one step south'
p6358
S'Down 1'
p6359
tp6360
a(S'left'
p6361
S'Left 1'
p6362
tp6363
a(S'up'
p6364
S'Up 1'
p6365
tp6366
a(S'up'
p6367
S'Up 1'
p6368
tp6369
a(S'and go north for three spaces'
p6370
S'Up 3'
p6371
tp6372
a(S'move north one time'
p6373
S'Up 1'
p6374
tp6375
a(S'up three times'
p6376
S'Up 3'
p6377
tp6378
a(S'go west'
p6379
S'Left 1'
p6380
tp6381
a(S', go left five times'
p6382
S'Left 5'
p6383
tp6384
a(S'go west one'
p6385
S'Left 1'
p6386
tp6387
a(S'left'
p6388
S'Left 1'
p6389
tp6390
a(S'move south five times'
p6391
S'Down 5'
p6392
tp6393
a(S'go south'
p6394
S'Down 1'
p6395
tp6396
a(S'right'
p6397
S'Right 1'
p6398
tp6399
a(S'go left'
p6400
S'Left 1'
p6401
tp6402
a(S'go south for four spaces'
p6403
S'Down 4'
p6404
tp6405
a(S'right'
p6406
S'Right 1'
p6407
tp6408
a(S'then north'
p6409
S'Up 1'
p6410
tp6411
a(S'go down'
p6412
S'Down 1'
p6413
tp6414
a(S'move east'
p6415
S'Right 1'
p6416
tp6417
a(S'go left'
p6418
S'Left 1'
p6419
tp6420
a(S'then go down'
p6421
S'Down 1'
p6422
tp6423
a(S'down one space'
p6424
S'Down 1'
p6425
tp6426
a(S', go west for three spaces'
p6427
S'West 3'
p6428
tp6429
a(S'up one'
p6430
S'Up 1'
p6431
tp6432
a(S'then go south one pace'
p6433
S'Down 1'
p6434
tp6435
a(S', go north'
p6436
S'Up 1'
p6437
tp6438
a(S'down'
p6439
S'Down 1'
p6440
tp6441
a(S', north'
p6442
S'Up 1'
p6443
tp6444
a(S'move to the right'
p6445
S'Right 1'
p6446
tp6447
a(S'go left'
p6448
S'Left 1'
p6449
tp6450
a(S'left'
p6451
S'Left 1'
p6452
tp6453
a(S'go down'
p6454
S'Down 1'
p6455
tp6456
a(S', right four times'
p6457
S'Right 4'
p6458
tp6459
a(S'turn to your right and move forward'
p6460
S'Right 1'
p6461
tp6462
a(S'then up two steps'
p6463
S'Up 2'
p6464
tp6465
a(S'then right'
p6466
S'Right 1'
p6467
tp6468
a(S', up'
p6469
S'Up 1'
p6470
tp6471
a(S'go up'
p6472
S'Up 1'
p6473
tp6474
a(S'go down'
p6475
S'Down 1'
p6476
tp6477
a(S'turn around and go up'
p6478
S'Up 1'
p6479
tp6480
a(S', left'
p6481
S'Left 1'
p6482
tp6483
a(S'move one space down'
p6484
S'Down 1'
p6485
tp6486
a(S'go right'
p6487
S'Right 1'
p6488
tp6489
a(S'travel south'
p6490
S'Down 1'
p6491
tp6492
a(S'go down two times'
p6493
S'Down 2'
p6494
tp6495
a(S', up'
p6496
S'Up 1'
p6497
tp6498
a(S'go down three times'
p6499
S'Down 3'
p6500
tp6501
a(S'move north three steps'
p6502
S'Up 3'
p6503
tp6504
a(S'then north'
p6505
S'Up 1'
p6506
tp6507
a(S'left'
p6508
S'Left 1'
p6509
tp6510
a(S'right one'
p6511
S'Right 1'
p6512
tp6513
a(S'west'
p6514
S'Left 1'
p6515
tp6516
a(S'up'
p6517
S'Up 1'
p6518
tp6519
a(S'right five'
p6520
S'Right 5'
p6521
tp6522
a(S'and left'
p6523
S'Left 1'
p6524
tp6525
a(S'right'
p6526
S'Right 1'
p6527
tp6528
a(S'go down'
p6529
S'Down 1'
p6530
tp6531
a(S'go left'
p6532
S'Left 1'
p6533
tp6534
a(S'north four'
p6535
S'Up 4'
p6536
tp6537
a(S'left'
p6538
S'Left 1'
p6539
tp6540
a(S'go south'
p6541
S'Down 1'
p6542
tp6543
a(S'right'
p6544
S'Right 1'
p6545
tp6546
a(S'up one'
p6547
S'Up 1'
p6548
tp6549
a(S'go south'
p6550
S'Down 1'
p6551
tp6552
a(S'go down'
p6553
S'Down 1'
p6554
tp6555
a(S'left'
p6556
S'Left 1'
p6557
tp6558
a(S'left'
p6559
S'Left 1'
p6560
tp6561
a(S'go down'
p6562
S'Down 1'
p6563
tp6564
a(S', down one'
p6565
S'Down 1'
p6566
tp6567
a(S'go left'
p6568
S'Left 1'
p6569
tp6570
a(S', north one time'
p6571
S'Up 1'
p6572
tp6573
a(S'go west'
p6574
S'Left 1'
p6575
tp6576
a(S'down one'
p6577
S'Down 1'
p6578
tp6579
a(S'down'
p6580
S'Down 1'
p6581
tp6582
a(S', left'
p6583
S'Left 1'
p6584
tp6585
a(S'go up'
p6586
S'Up 1'
p6587
tp6588
a(S'right'
p6589
S'Right 1'
p6590
tp6591
a(S'move up'
p6592
S'Up 1'
p6593
tp6594
a(S'go up one space'
p6595
S'Up 1'
p6596
tp6597
a(S'move right'
p6598
S'Right 1'
p6599
tp6600
a(S'then go up'
p6601
S'Up 1'
p6602
tp6603
a(S'down'
p6604
S'Down 1'
p6605
tp6606
a(S'right'
p6607
S'Right 1'
p6608
tp6609
a(S'move right'
p6610
S'Right 1'
p6611
tp6612
a(S', left'
p6613
S'Left 1'
p6614
tp6615
a(S'up two'
p6616
S'Up 2'
p6617
tp6618
a(S'go down three times'
p6619
S'Down 3'
p6620
tp6621
a(S'east'
p6622
S'Right 1'
p6623
tp6624
a(S'go south'
p6625
S'Down 1'
p6626
tp6627
a(S'left'
p6628
S'Left 1'
p6629
tp6630
a(S'down'
p6631
S'Down 1'
p6632
tp6633
a(S'go down'
p6634
S'Down 1'
p6635
tp6636
a(S'down'
p6637
S'Down 1'
p6638
tp6639
a(S'go down'
p6640
S'Down 1'
p6641
tp6642
a(S'step once to the right'
p6643
S'Right 1'
p6644
tp6645
a(S'move down five'
p6646
S'Down 5'
p6647
tp6648
a(S', north'
p6649
S'Up 1'
p6650
tp6651
a(S', north'
p6652
S'Up 1'
p6653
tp6654
a(S'go east'
p6655
S'Right 1'
p6656
tp6657
a(S'then up'
p6658
S'Up 1'
p6659
tp6660
a(S', go left'
p6661
S'Left 1'
p6662
tp6663
a(S'east four'
p6664
S'Right 4'
p6665
tp6666
a(S'down'
p6667
S'Down 1'
p6668
tp6669
a(S'go down'
p6670
S'Down 1'
p6671
tp6672
a(S'down'
p6673
S'Down 1'
p6674
tp6675
a(S'then go down'
p6676
S'Down 1'
p6677
tp6678
a(S', down'
p6679
S'Down 1'
p6680
tp6681
a(S'then left'
p6682
S'Left 1'
p6683
tp6684
a(S'up'
p6685
S'Up 1'
p6686
tp6687
a(S'down'
p6688
S'Down 1'
p6689
tp6690
a(S'one step down'
p6691
S'Down 1'
p6692
tp6693
a(S'left'
p6694
S'Left 1'
p6695
tp6696
a(S'go left'
p6697
S'Left 1'
p6698
tp6699
a(S'move left'
p6700
S'Left 1'
p6701
tp6702
a(S'one down'
p6703
S'Down 1'
p6704
tp6705
a(S'east one step'
p6706
S'Right 1'
p6707
tp6708
a(S'up'
p6709
S'Up 1'
p6710
tp6711
a(S'go left'
p6712
S'Left 1'
p6713
tp6714
a(S'go down'
p6715
S'Down 1'
p6716
tp6717
a(S'move one step to west'
p6718
S'Left 1'
p6719
tp6720
a(S'then right'
p6721
S'Right 1'
p6722
tp6723
a(S'then west'
p6724
S'Left 1'
p6725
tp6726
a(S', left'
p6727
S'Left 1'
p6728
tp6729
a(S'down five'
p6730
S'Down 5'
p6731
tp6732
a(S'left'
p6733
S'Left 1'
p6734
tp6735
a(S'left five'
p6736
S'Left 5'
p6737
tp6738
a(S', go down'
p6739
S'Down 1'
p6740
tp6741
a(S'move up one'
p6742
S'Up 1'
p6743
tp6744
a(S'left'
p6745
S'Left 1'
p6746
tp6747
a(S'left'
p6748
S'Left 1'
p6749
tp6750
a(S', go right'
p6751
S'Right 1'
p6752
tp6753
a(S'and then go north'
p6754
S'Up 1'
p6755
tp6756
a(S', up three times'
p6757
S'Up 3'
p6758
tp6759
a(S'left five'
p6760
S'Left 5'
p6761
tp6762
a(S'go down five times'
p6763
S'Down 5'
p6764
tp6765
a(S'go north'
p6766
S'Up 1'
p6767
tp6768
a(S'down'
p6769
S'Down 1'
p6770
tp6771
a(S'go down five spaces'
p6772
S'Down 5'
p6773
tp6774
a(S'three up'
p6775
S'Up 3'
p6776
tp6777
a(S'up'
p6778
S'Up 1'
p6779
tp6780
a(S'go up one step'
p6781
S'Up 1'
p6782
tp6783
a(S'and go down one step'
p6784
S'Down 1'
p6785
tp6786
a(S', down'
p6787
S'Down 1'
p6788
tp6789
a(S'go left'
p6790
S'Left 1'
p6791
tp6792
a(S'go left'
p6793
S'Left 1'
p6794
tp6795
a(S'move south three times'
p6796
S'Down 3'
p6797
tp6798
a(S'down'
p6799
S'Down 1'
p6800
tp6801
a(S'right'
p6802
S'Right 1'
p6803
tp6804
a(S'west three spaces'
p6805
S'Left 3'
p6806
tp6807
a(S', go right'
p6808
S'Right 1'
p6809
tp6810
a(S', move north one units'
p6811
S'Up 1'
p6812
tp6813
a(S'left x5'
p6814
S'Left 5'
p6815
tp6816
a(S'left'
p6817
S'Left 1'
p6818
tp6819
a(S'up two'
p6820
S'Up 2'
p6821
tp6822
a(S'move west five times'
p6823
S'Left 5'
p6824
tp6825
a(S', west'
p6826
S'Left 1'
p6827
tp6828
a(S'left'
p6829
S'Left 1'
p6830
tp6831
a(S'up one'
p6832
S'Up 1'
p6833
tp6834
a(S'three steps up'
p6835
S'Up 3'
p6836
tp6837
a(S'right'
p6838
S'Right 1'
p6839
tp6840
a(S'then go up'
p6841
S'Up 1'
p6842
tp6843
a(S'go south three moves'
p6844
S'Down 3'
p6845
tp6846
a(S'and then down again'
p6847
S'Down 1'
p6848
tp6849
a(S'move up'
p6850
S'Up 1'
p6851
tp6852
a(S'up'
p6853
S'Up 1'
p6854
tp6855
a(S'down'
p6856
S'Down 1'
p6857
tp6858
a(S'go up'
p6859
S'Up 1'
p6860
tp6861
a(S'go down'
p6862
S'Down 1'
p6863
tp6864
a(S'and two north'
p6865
S'Up 2'
p6866
tp6867
a(S'up'
p6868
S'Up 1'
p6869
tp6870
a(S'go south'
p6871
S'Down 1'
p6872
tp6873
a(S'go south'
p6874
S'Down 1'
p6875
tp6876
a(S'left four times'
p6877
S'Left 4'
p6878
tp6879
a(S'left six five units'
p6880
S'Left 5'
p6881
tp6882
a(S'go south'
p6883
S'Down 1'
p6884
tp6885
a(S', west five units'
p6886
S'Left 5'
p6887
tp6888
a(S'go right one step'
p6889
S'Right 1'
p6890
tp6891
a(S'right'
p6892
S'Right 1'
p6893
tp6894
a(S'go down'
p6895
S'Down 1'
p6896
tp6897
a(S'up three'
p6898
S'Up 3'
p6899
tp6900
a(S'go down'
p6901
S'Down 1'
p6902
tp6903
a(S'go down'
p6904
S'Down 1'
p6905
tp6906
a(S'and then up'
p6907
S'Up 1'
p6908
tp6909
a(S'one south'
p6910
S'Down 1'
p6911
tp6912
a(S'down ,'
p6913
S'Down 1'
p6914
tp6915
a(S'go left'
p6916
S'Left 1'
p6917
tp6918
a(S'then up four times'
p6919
S'Up 4'
p6920
tp6921
a(S'turn to your right and advance a space'
p6922
S'Right 1'
p6923
tp6924
a(S', down'
p6925
S'Down 1'
p6926
tp6927
a(S'turn left and move once'
p6928
S'Left 1'
p6929
tp6930
a(S'left five space'
p6931
S'Left 5'
p6932
tp6933
a(S'move south five steps'
p6934
S'Down 5'
p6935
tp6936
a(S'move right one space'
p6937
S'Right 1'
p6938
tp6939
a(S'move up one'
p6940
S'Up 1'
p6941
tp6942
a(S'left'
p6943
S'Left 1'
p6944
tp6945
a(S'south three'
p6946
S'Down 3'
p6947
tp6948
a(S'left four'
p6949
S'Left 4'
p6950
tp6951
a(S'down'
p6952
S'Down 1'
p6953
tp6954
a(S'left'
p6955
S'Left 1'
p6956
tp6957
a(S'then go left'
p6958
S'Left 1'
p6959
tp6960
a(S'go up'
p6961
S'Up 1'
p6962
tp6963
a(S'go down'
p6964
S'Down 1'
p6965
tp6966
a(S', north'
p6967
S'Right 1'
p6968
tp6969
a(S'left four'
p6970
S'Left 4'
p6971
tp6972
a(S'down'
p6973
S'Down 1'
p6974
tp6975
a(S'north'
p6976
S'Up 1'
p6977
tp6978
a(S'go four steps south'
p6979
S'Down 4'
p6980
tp6981
a(S'down'
p6982
S'Down 1'
p6983
tp6984
a(S'up'
p6985
S'Up 1'
p6986
tp6987
a(S'head south five steps'
p6988
S'Down 5'
p6989
tp6990
a(S'go down'
p6991
S'Down 1'
p6992
tp6993
a(S', go down'
p6994
S'Down 3'
p6995
tp6996
a(S'move south four times'
p6997
S'Down 4'
p6998
tp6999
a(S'four left'
p7000
S'Left 4'
p7001
tp7002
a(S', then move down once'
p7003
S'Down 1'
p7004
tp7005
a(S'then north'
p7006
S'Up 1'
p7007
tp7008
a(S'left five steps'
p7009
S'Left 5'
p7010
tp7011
a(S'move north two times'
p7012
S'Up 2'
p7013
tp7014
a(S'go up'
p7015
S'Up 1'
p7016
tp7017
a(S'then go left'
p7018
S'Left 1'
p7019
tp7020
a(S'go down'
p7021
S'Down 1'
p7022
tp7023
a(S'left'
p7024
S'Left 1'
p7025
tp7026
a(S'go down'
p7027
S'Down 1'
p7028
tp7029
a(S'down one'
p7030
S'Down 1'
p7031
tp7032
a(S'go left'
p7033
S'Left 1'
p7034
tp7035
a(S'up'
p7036
S'Up 1'
p7037
tp7038
a(S'go up'
p7039
S'Up 1'
p7040
tp7041
a(S'down'
p7042
S'Down 1'
p7043
tp7044
a(S'right'
p7045
S'Right 1'
p7046
tp7047
a(S'and then go west'
p7048
S'Left 1'
p7049
tp7050
a(S'then up'
p7051
S'Up 1'
p7052
tp7053
a(S'down'
p7054
S'Down 1'
p7055
tp7056
a(S'go south'
p7057
S'Down 1'
p7058
tp7059
a(S'down'
p7060
S'Down 1'
p7061
tp7062
a(S'east'
p7063
S'Right 1'
p7064
tp7065
a(S'go south three paces'
p7066
S'Down 3'
p7067
tp7068
a(S'up'
p7069
S'Up 1'
p7070
tp7071
a(S'move north two spaces'
p7072
S'Up 2'
p7073
tp7074
a(S'go down'
p7075
S'Down 1'
p7076
tp7077
a(S'go down five'
p7078
S'Down 5'
p7079
tp7080
a(S'go left until even with doorway'
p7081
S'Left 1'
p7082
tp7083
a(S'down'
p7084
S'Down 1'
p7085
tp7086
a(S'west five steps'
p7087
S'Left 5'
p7088
tp7089
a(S'go down three steps'
p7090
S'Down 3'
p7091
tp7092
a(S'then go down'
p7093
S'Down 1'
p7094
tp7095
a(S'and then right'
p7096
S'Right 1'
p7097
tp7098
a(S'south one step'
p7099
S'Down 1'
p7100
tp7101
a(S'one step down'
p7102
S'Down 1'
p7103
tp7104
a(S'go south three spaces'
p7105
S'Down 3'
p7106
tp7107
a(S'up three'
p7108
S'Up 3'
p7109
tp7110
a(S'down'
p7111
S'Down 1'
p7112
tp7113
a(S'please go down'
p7114
S'Down 1'
p7115
tp7116
a(S'then east'
p7117
S'Left 1'
p7118
tp7119
a(S'go up'
p7120
S'Up 1'
p7121
tp7122
a(S'go up'
p7123
S'Up 1'
p7124
tp7125
a(S'left'
p7126
S'Left 1'
p7127
tp7128
a(S'go south'
p7129
S'Down 1'
p7130
tp7131
a(S'west'
p7132
S'Left 1'
p7133
tp7134
a(S'go down'
p7135
S'Down 1'
p7136
tp7137
a(S'and to the left'
p7138
S'Left 1'
p7139
tp7140
a(S'go right'
p7141
S'Right 1'
p7142
tp7143
a(S'left'
p7144
S'Left 1'
p7145
tp7146
a(S'up two'
p7147
S'Up 2'
p7148
tp7149
a(S'move south five times'
p7150
S'Down 5'
p7151
tp7152
a(S'then down'
p7153
S'Down 1'
p7154
tp7155
a(S'go south three time'
p7156
S'Down 3'
p7157
tp7158
a(S', go up'
p7159
S'Up 1'
p7160
tp7161
a(S'then go right five times'
p7162
S'Right 5'
p7163
tp7164
a(S'then go west one pace'
p7165
S'Right 1'
p7166
tp7167
a(S'turn to your right and take one step forward'
p7168
S'Right 1'
p7169
tp7170
a(S'go up'
p7171
S'Up 1'
p7172
tp7173
a(S'go south'
p7174
S'Down 1'
p7175
tp7176
a(S'go west four moves'
p7177
S'Left 4'
p7178
tp7179
a(S'and go up'
p7180
S'Up 1'
p7181
tp7182
a(S'left one space'
p7183
S'Left 1'
p7184
tp7185
a(S'go down'
p7186
S'Down 1'
p7187
tp7188
a(S'move left'
p7189
S'Left 1'
p7190
tp7191
a(S'move down three times'
p7192
S'Down 3'
p7193
tp7194
a(S'right'
p7195
S'Right 1'
p7196
tp7197
a(S'up'
p7198
S'Up 1'
p7199
tp7200
a(S'go down three spaces'
p7201
S'Down 3'
p7202
tp7203
a(S'go down'
p7204
S'Down 1'
p7205
tp7206
a(S'north'
p7207
S'Up 1'
p7208
tp7209
a(S'go left'
p7210
S'Left 1'
p7211
tp7212
a(S'then up three steps'
p7213
S'Up 3'
p7214
tp7215
a(S'one step up'
p7216
S'Up 1'
p7217
tp7218
a(S'move east one unit'
p7219
S'Right 1'
p7220
tp7221
a(S'down'
p7222
S'Down 1'
p7223
tp7224
a(S'left'
p7225
S'Left 1'
p7226
tp7227
a(S'then go left four times'
p7228
S'Left 4'
p7229
tp7230
a(S'up'
p7231
S'Up 1'
p7232
tp7233
a(S'right'
p7234
S'Right 1'
p7235
tp7236
a(S'move down'
p7237
S'Down 1'
p7238
tp7239
a(S'down'
p7240
S'Down 1'
p7241
tp7242
a(S'move south once'
p7243
S'Down 1'
p7244
tp7245
a(S'move right'
p7246
S'Right 1'
p7247
tp7248
a(S'east four spaces'
p7249
S'Right 4'
p7250
tp7251
a(S', down'
p7252
S'Down 1'
p7253
tp7254
a(S', go up'
p7255
S'Up 1'
p7256
tp7257
a(S'then down one step'
p7258
S'Down 1'
p7259
tp7260
a(S'then take two steps up'
p7261
S'Up 2'
p7262
tp7263
a(S'down'
p7264
S'Down 1'
p7265
tp7266
a(S'go down ,'
p7267
S'Down 1'
p7268
tp7269
a(S', three steps north'
p7270
S'Up 3'
p7271
tp7272
a(S'right'
p7273
S'Right 1'
p7274
tp7275
a(S'go up'
p7276
S'Up 1'
p7277
tp7278
a(S', north'
p7279
S'Up 1'
p7280
tp7281
a(S', north'
p7282
S'Up 1'
p7283
tp7284
a(S'up'
p7285
S'Up 1'
p7286
tp7287
a(S'move north'
p7288
S'Up 1'
p7289
tp7290
a(S'left'
p7291
S'Left 1'
p7292
tp7293
a(S'up'
p7294
S'Up 1'
p7295
tp7296
a(S'down'
p7297
S'Down 1'
p7298
tp7299
a(S'up one'
p7300
S'Up 1'
p7301
tp7302
a(S'south'
p7303
S'Down 1'
p7304
tp7305
a(S'right four spaces'
p7306
S'Right 4'
p7307
tp7308
a(S'move west four times'
p7309
S'Left 4'
p7310
tp7311
a(S'move down four times'
p7312
S'Down 4'
p7313
tp7314
a(S'right'
p7315
S'Right 1'
p7316
tp7317
a(S'right one without chair'
p7318
S'Right 1'
p7319
tp7320
a(S'move down'
p7321
S'Down 1'
p7322
tp7323
a(S'go down'
p7324
S'Down 1'
p7325
tp7326
a(S'down one'
p7327
S'Down 1'
p7328
tp7329
a(S'four steps right'
p7330
S'Right 4'
p7331
tp7332
a(S'go down'
p7333
S'Down 3'
p7334
tp7335
a(S'move to your right and face the rightmost wall'
p7336
S'Right 1'
p7337
tp7338
a(S'one step up'
p7339
S'Up 1'
p7340
tp7341
a(S', move east one unit'
p7342
S'Right 1'
p7343
tp7344
a(S'go east'
p7345
S'Right 1'
p7346
tp7347
a(S'go east'
p7348
S'Right 1'
p7349
tp7350
a(S'east four'
p7351
S'Right 4'
p7352
tp7353
a(S'then up'
p7354
S'Up 1'
p7355
tp7356
a(S'go left'
p7357
S'Left 1'
p7358
tp7359
a(S'move down five spaces'
p7360
S'Down 5'
p7361
tp7362
a(S'go left'
p7363
S'Left 1'
p7364
tp7365
a(S'west'
p7366
S'Left 1'
p7367
tp7368
a(S'take one step down'
p7369
S'Down 1'
p7370
tp7371
a(S'go down'
p7372
S'Down 1'
p7373
tp7374
a(S'left'
p7375
S'Left 1'
p7376
tp7377
a(S'go east'
p7378
S'Right 1'
p7379
tp7380
a(S'go five south'
p7381
S'Down 5'
p7382
tp7383
a(S'go right'
p7384
S'Right 1'
p7385
tp7386
a(S', down'
p7387
S'Down 1'
p7388
tp7389
a(S'right four'
p7390
S'Right 4'
p7391
tp7392
a(S'then up'
p7393
S'Up 1'
p7394
tp7395
a(S'up'
p7396
S'Up 1'
p7397
tp7398
a(S'with chair go down one'
p7399
S'Down 1'
p7400
tp7401
a(S'down one'
p7402
S'Down 1'
p7403
tp7404
a(S'left three times'
p7405
S'Left 3'
p7406
tp7407
a(S'and north'
p7408
S'Up 1'
p7409
tp7410
a(S'left'
p7411
S'Left 1'
p7412
tp7413
a(S'then go right'
p7414
S'Right 1'
p7415
tp7416
a(S'down'
p7417
S'Down 1'
p7418
tp7419
a(S'west'
p7420
S'Left 1'
p7421
tp7422
a(S'move down one'
p7423
S'Down 1'
p7424
tp7425
a(S'right'
p7426
S'Right 1'
p7427
tp7428
a(S'go up'
p7429
S'Up 1'
p7430
tp7431
a(S'go south for three steps'
p7432
S'Down 3'
p7433
tp7434
a(S'then right'
p7435
S'Right 1'
p7436
tp7437
a(S'go up three times'
p7438
S'Up 3'
p7439
tp7440
a(S'left four'
p7441
S'Left 4'
p7442
tp7443
a(S'then move north three times'
p7444
S'Up 3'
p7445
tp7446
a(S'go right'
p7447
S'Right 1'
p7448
tp7449
a(S'down three'
p7450
S'Down 3'
p7451
tp7452
a(S', west'
p7453
S'Left 1'
p7454
tp7455
a(S'go down one time'
p7456
S'Down 1'
p7457
tp7458
a(S'down'
p7459
S'Down 1'
p7460
tp7461
a(S'north'
p7462
S'Up 1'
p7463
tp7464
a(S'down'
p7465
S'Down 1'
p7466
tp7467
a(S'move three steps down'
p7468
S'Down 3'
p7469
tp7470
a(S'go up'
p7471
S'Up 1'
p7472
tp7473
a(S'three steps  up'
p7474
S'Up 3'
p7475
tp7476
a(S'go left five times'
p7477
S'Left 5'
p7478
tp7479
a(S'move east four units'
p7480
S'Right 4'
p7481
tp7482
a(S'go right'
p7483
S'Right 1'
p7484
tp7485
a(S'face left and move forward one spot'
p7486
S'Left 1'
p7487
tp7488
a(S', move west five times'
p7489
S'Left 5'
p7490
tp7491
a(S', then go left one time'
p7492
S'Left 1'
p7493
tp7494
a(S'go five steps down'
p7495
S'Down 5'
p7496
tp7497
a(S'left four'
p7498
S'Left 4'
p7499
tp7500
a(S', five steps west'
p7501
S'Left 5'
p7502
tp7503
a(S'go up'
p7504
S'Up 1'
p7505
tp7506
a(S'down'
p7507
S'Down 1'
p7508
tp7509
a(S'west'
p7510
S'Left 1'
p7511
tp7512
a(S'then go up three times'
p7513
S'Up 3'
p7514
tp7515
a(S'south'
p7516
S'Down 1'
p7517
tp7518
a(S'up two steps'
p7519
S'Up 2'
p7520
tp7521
a(S'west one space'
p7522
S'Left 1'
p7523
tp7524
a(S'go up'
p7525
S'Up 1'
p7526
tp7527
a(S'left'
p7528
S'Left 1'
p7529
tp7530
a(S'right one step'
p7531
S'Right 1'
p7532
tp7533
a(S'move south five steps'
p7534
S'Down 5'
p7535
tp7536
a(S'south'
p7537
S'Down 1'
p7538
tp7539
a(S'go east'
p7540
S'Right 1'
p7541
tp7542
a(S', four steps east'
p7543
S'Right 4'
p7544
tp7545
a(S', east'
p7546
S'Left 1'
p7547
tp7548
a(S'down'
p7549
S'Down 1'
p7550
tp7551
a(S'go down'
p7552
S'Down 1'
p7553
tp7554
a(S'go right'
p7555
S'Right 1'
p7556
tp7557
a(S'left once'
p7558
S'Left 1'
p7559
tp7560
a(S'go down'
p7561
S'Down 1'
p7562
tp7563
a(S'up'
p7564
S'Up 1'
p7565
tp7566
a(S'down'
p7567
S'Down 1'
p7568
tp7569
a(S'down one'
p7570
S'Down 1'
p7571
tp7572
a(S'then left one time'
p7573
S'Left 1'
p7574
tp7575
a(S'down three'
p7576
S'Down 3'
p7577
tp7578
a(S'down'
p7579
S'Down 1'
p7580
tp7581
a(S'move to the left side one space'
p7582
S'Left 1'
p7583
tp7584
a(S', four steps west'
p7585
S'Left 4'
p7586
tp7587
a(S'move north one time'
p7588
S'Up 1'
p7589
tp7590
a(S'go down four spaces'
p7591
S'Down 4'
p7592
tp7593
a(S'go up'
p7594
S'Up 1'
p7595
tp7596
a(S'go north three moves'
p7597
S'Up 3'
p7598
tp7599
a(S'left'
p7600
S'Left 1'
p7601
tp7602
a(S'go down one time'
p7603
S'Down 1'
p7604
tp7605
a(S'go down'
p7606
S'Down 1'
p7607
tp7608
a(S'go down'
p7609
S'Down 1'
p7610
tp7611
a(S'move right four times'
p7612
S'Right 4'
p7613
tp7614
a(S'move to the right one step'
p7615
S'Right 1'
p7616
tp7617
a(S', go right'
p7618
S'Right 1'
p7619
tp7620
a(S'go south three paces'
p7621
S'Down 3'
p7622
tp7623
a(S'down one'
p7624
S'Down 1'
p7625
tp7626
a(S'up'
p7627
S'Up 1'
p7628
tp7629
a(S'move slightly to the right'
p7630
S'Right 1'
p7631
tp7632
a(S'right'
p7633
S'Right 1'
p7634
tp7635
a(S'west four steps'
p7636
S'Left 4'
p7637
tp7638
a(S', up'
p7639
S'Up 1'
p7640
tp7641
a(S', west'
p7642
S'Left 1'
p7643
tp7644
a(S'go right'
p7645
S'Right 1'
p7646
tp7647
a(S'left'
p7648
S'Left 1'
p7649
tp7650
a(S'down'
p7651
S'Down 1'
p7652
tp7653
a(S'east'
p7654
S'Right 1'
p7655
tp7656
a(S'go south five spaces'
p7657
S'Down 1'
p7658
tp7659
a(S'right'
p7660
S'Right 1'
p7661
tp7662
a(S'move north three'
p7663
S'Up 3'
p7664
tp7665
a(S'face your left side'
p7666
S'Left 1'
p7667
tp7668
a(S'left ,'
p7669
S'Left 1'
p7670
tp7671
a(S'go up'
p7672
S'Up 1'
p7673
tp7674
a(S'go south for one space'
p7675
S'Down 1'
p7676
tp7677
a(S', south'
p7678
S'Down 1'
p7679
tp7680
a(S'up'
p7681
S'Up 1'
p7682
tp7683
a(S'go down'
p7684
S'Down 1'
p7685
tp7686
a(S'move north two units'
p7687
S'Up 2'
p7688
tp7689
a(S'then south'
p7690
S'Down 1'
p7691
tp7692
a(S'up'
p7693
S'Up 1'
p7694
tp7695
a(S'and then to the right five steps'
p7696
S'Right 5'
p7697
tp7698
a(S'down'
p7699
S'Down 1'
p7700
tp7701
a(S'then west'
p7702
S'Left 1'
p7703
tp7704
a(S'go east one square'
p7705
S'Right 1'
p7706
tp7707
a(S'down'
p7708
S'Down 1'
p7709
tp7710
a(S'go down'
p7711
S'Down 1'
p7712
tp7713
a(S'west'
p7714
S'Left 1'
p7715
tp7716
a(S', go up'
p7717
S'Up 1'
p7718
tp7719
a(S'right'
p7720
S'Right 1'
p7721
tp7722
a(S'go south five steps'
p7723
S'Down 5'
p7724
tp7725
a(S'down'
p7726
S'Down 1'
p7727
tp7728
a(S'move south one step'
p7729
S'Down 1'
p7730
tp7731
a(S'step sideways to the right one space'
p7732
S'Right 1'
p7733
tp7734
a(S'left'
p7735
S'Left 1'
p7736
tp7737
a(S'and go north for three spaces'
p7738
S'Up 3'
p7739
tp7740
a(S'left'
p7741
S'Left 1'
p7742
tp7743
a(S'move down again'
p7744
S'Down 1'
p7745
tp7746
a(S'go down three'
p7747
S'Down 3'
p7748
tp7749
a(S'go west'
p7750
S'Left 1'
p7751
tp7752
a(S', up'
p7753
S'Up 1'
p7754
tp7755
a(S'north'
p7756
S'Up 1'
p7757
tp7758
a(S'north three spaces'
p7759
S'Up 3'
p7760
tp7761
a(S'go left'
p7762
S'Left 1'
p7763
tp7764
a(S'left'
p7765
S'Left 1'
p7766
tp7767
a(S', east'
p7768
S'Left 1'
p7769
tp7770
a(S'down'
p7771
S'Down 1'
p7772
tp7773
a(S'go down three times'
p7774
S'Down 3'
p7775
tp7776
a(S'west'
p7777
S'Left 1'
p7778
tp7779
a(S'right'
p7780
S'Right 1'
p7781
tp7782
a(S'north'
p7783
S'Up 1'
p7784
tp7785
a(S'up one'
p7786
S'Up 1'
p7787
tp7788
a(S', left'
p7789
S'Left 1'
p7790
tp7791
a(S'west'
p7792
S'Left 1'
p7793
tp7794
a(S'down one step'
p7795
S'Down 1'
p7796
tp7797
a(S'up three'
p7798
S'Up 3'
p7799
tp7800
a(S'north two steps'
p7801
S'Up 2'
p7802
tp7803
a(S'down'
p7804
S'Down 1'
p7805
tp7806
a(S'move north'
p7807
S'Up 1'
p7808
tp7809
a(S'go up'
p7810
S'Up 1'
p7811
tp7812
a(S'go west'
p7813
S'Left 1'
p7814
tp7815
a(S'down'
p7816
S'Down 1'
p7817
tp7818
a(S', south'
p7819
S'Down 1'
p7820
tp7821
a(S'turn east and move forward in that direction'
p7822
S'Right 1'
p7823
tp7824
a(S'left'
p7825
S'Left 1'
p7826
tp7827
a(S'go down'
p7828
S'Down 1'
p7829
tp7830
a(S'go down'
p7831
S'Down 1'
p7832
tp7833
a(S'north three moves'
p7834
S'Up 3'
p7835
tp7836
a(S'south'
p7837
S'Down 1'
p7838
tp7839
a(S'then left'
p7840
S'Left 1'
p7841
tp7842
a(S'go down'
p7843
S'Down 1'
p7844
tp7845
a(S'move east one time'
p7846
S'Right 1'
p7847
tp7848
a(S'go left five times'
p7849
S'Left 5'
p7850
tp7851
a(S'up'
p7852
S'Up 1'
p7853
tp7854
a(S'down one space'
p7855
S'Down 1'
p7856
tp7857
a(S'up'
p7858
S'Up 1'
p7859
tp7860
a(S'right'
p7861
S'Right 1'
p7862
tp7863
a(S', up'
p7864
S'Up 1'
p7865
tp7866
a(S'slide left'
p7867
S'Left 1'
p7868
tp7869
a(S'left'
p7870
S'Left 1'
p7871
tp7872
a(S'then go west'
p7873
S'Left 1'
p7874
tp7875
a(S'then move left four times'
p7876
S'Left 4'
p7877
tp7878
a(S'up'
p7879
S'Up 1'
p7880
tp7881
a(S'up two'
p7882
S'Up 2'
p7883
tp7884
a(S'up two'
p7885
S'Up 2'
p7886
tp7887
a(S'left five'
p7888
S'Left 5'
p7889
tp7890
a(S'go down once'
p7891
S'Down 1'
p7892
tp7893
a(S'south one'
p7894
S'Down 1'
p7895
tp7896
a(S'right'
p7897
S'Right 1'
p7898
tp7899
a(S', then go down one time'
p7900
S'Down 1'
p7901
tp7902
a(S'then west'
p7903
S'Right 1'
p7904
tp7905
a(S'go up'
p7906
S'Up 1'
p7907
tp7908
a(S'go five steps down'
p7909
S'Down 5'
p7910
tp7911
a(S'move one space to the left'
p7912
S'Left 1'
p7913
tp7914
a(S'up one step'
p7915
S'Up 1'
p7916
tp7917
a(S'down one'
p7918
S'Down 1'
p7919
tp7920
a(S'go to the left'
p7921
S'Left 1'
p7922
tp7923
a(S'go right'
p7924
S'Right 1'
p7925
tp7926
a(S'four steps to the left'
p7927
S'Left 4'
p7928
tp7929
a(S', up two'
p7930
S'Up 2'
p7931
tp7932
a(S'left'
p7933
S'Left 1'
p7934
tp7935
a(S'up'
p7936
S'Up 1'
p7937
tp7938
a(S'go down five times'
p7939
S'Down 5'
p7940
tp7941
a(S'go down'
p7942
S'Down 1'
p7943
tp7944
a(S'move north once'
p7945
S'Up 1'
p7946
tp7947
a(S'right one'
p7948
S'Right 1'
p7949
tp7950
a(S', right'
p7951
S'Right 1'
p7952
tp7953
a(S'go down'
p7954
S'Down 1'
p7955
tp7956
a(S'then go right five times'
p7957
S'Right 5'
p7958
tp7959
a(S'up'
p7960
S'Up 1'
p7961
tp7962
a(S'go north two moves'
p7963
S'Up 2'
p7964
tp7965
a(S'up one step'
p7966
S'Up 1'
p7967
tp7968
a(S'down'
p7969
S'Down 1'
p7970
tp7971
a(S'move west five times'
p7972
S'Left 5'
p7973
tp7974
a(S'right'
p7975
S'Right 1'
p7976
tp7977
a(S'go left five steps'
p7978
S'Left 5'
p7979
tp7980
a.