(lp0
(S'move east four steps'
p1
S'Right 4'
p2
tp3
a(S'go down'
p4
S'Down 1'
p5
tp6
a(S'go east four moves'
p7
S'Right 4'
p8
tp9
a(S'move west one'
p10
S'Left 1'
p11
tp12
a(S'and up three spaces'
p13
S'Up 3'
p14
tp15
a(S'south one step'
p16
S'Down 1'
p17
tp18
a(S'go up three times'
p19
S'Up 3'
p20
tp21
a(S', then go down once'
p22
S'Down 1'
p23
tp24
a(S'then north'
p25
S'Up 1'
p26
tp27
a(S'down one space'
p28
S'Down 1'
p29
tp30
a(S'then go right'
p31
S'Right 1'
p32
tp33
a(S', go left'
p34
S'Left 1'
p35
tp36
a(S'left'
p37
S'Left 1'
p38
tp39
a(S'move five steps south'
p40
S'Down 5'
p41
tp42
a(S', south'
p43
S'Down 1'
p44
tp45
a(S', south'
p46
S'Down 1'
p47
tp48
a(S'south'
p49
S'Down 1'
p50
tp51
a(S'north one step'
p52
S'Up 1'
p53
tp54
a(S'move down'
p55
S'Down 1'
p56
tp57
a(S', then go up two times'
p58
S'Up 2'
p59
tp60
a(S'move north'
p61
S'Up 1'
p62
tp63
a(S'up three'
p64
S'Up 3'
p65
tp66
a(S'right'
p67
S'Right 1'
p68
tp69
a(S'move up one'
p70
S'Up 1'
p71
tp72
a(S'go west'
p73
S'Left 1'
p74
tp75
a(S'one step left'
p76
S'Left 1'
p77
tp78
a(S', go up'
p79
S'Up 1'
p80
tp81
a(S', down'
p82
S'Down 1'
p83
tp84
a(S', move south one unit'
p85
S'Down 1'
p86
tp87
a(S'up'
p88
S'Up 1'
p89
tp90
a(S'and move left'
p91
S'Left 1'
p92
tp93
a(S'go down three'
p94
S'Down 3'
p95
tp96
a(S'go right'
p97
S'Right 1'
p98
tp99
a(S'left four spaces'
p100
S'Left 4'
p101
tp102
a(S'go east one'
p103
S'Right 1'
p104
tp105
a(S'move up twice'
p106
S'Up 2'
p107
tp108
a(S'left four'
p109
S'Left 4'
p110
tp111
a(S', go west'
p112
S'Left 1'
p113
tp114
a(S'go up one time'
p115
S'Up 1'
p116
tp117
a(S', north'
p118
S'Up 1'
p119
tp120
a(S'move south one space'
p121
S'Down 1'
p122
tp123
a(S'up'
p124
S'Up 1'
p125
tp126
a(S'east four steps'
p127
S'Right 4'
p128
tp129
a(S'right four'
p130
S'Right 4'
p131
tp132
a(S'go up'
p133
S'Up 1'
p134
tp135
a(S'and then go north'
p136
S'Up 1'
p137
tp138
a(S'. move north two spaces'
p139
S'Up 2'
p140
tp141
a(S'down'
p142
S'Down 1'
p143
tp144
a(S'take a single step to the right'
p145
S'Right 1'
p146
tp147
a(S'and down'
p148
S'Down 1'
p149
tp150
a(S'left'
p151
S'Left 1'
p152
tp153
a(S'right'
p154
S'Right 1'
p155
tp156
a(S', west'
p157
S'Left 1'
p158
tp159
a(S'and then two up'
p160
S'Up 2'
p161
tp162
a(S'then down three times'
p163
S'Down 3'
p164
tp165
a(S'head south'
p166
S'Down 1'
p167
tp168
a(S'go right'
p169
S'Right 1'
p170
tp171
a(S'then go up once'
p172
S'Up 1'
p173
tp174
a(S'move one space up'
p175
S'Up 1'
p176
tp177
a(S', right'
p178
S'Right 1'
p179
tp180
a(S'down'
p181
S'Down 1'
p182
tp183
a(S'north'
p184
S'Up 1'
p185
tp186
a(S'left'
p187
S'Left 1'
p188
tp189
a(S'go down'
p190
S'Down 1'
p191
tp192
a(S'down'
p193
S'Down 1'
p194
tp195
a(S'left'
p196
S'Left 1'
p197
tp198
a(S'slide right'
p199
S'Right 1'
p200
tp201
a(S'move down five times'
p202
S'Down 5'
p203
tp204
a(S'up'
p205
S'Up 1'
p206
tp207
a(S'down'
p208
S'Down 1'
p209
tp210
a(S'go down three spots'
p211
S'Down 3'
p212
tp213
a(S'left'
p214
S'Left 1'
p215
tp216
a(S'go down'
p217
S'Down 1'
p218
tp219
a(S'move down'
p220
S'Down 1'
p221
tp222
a(S'go up'
p223
S'Up 1'
p224
tp225
a(S'up'
p226
S'Up 1'
p227
tp228
a(S'move south three times'
p229
S'Down 3'
p230
tp231
a(S'turn left'
p232
S'Left 1'
p233
tp234
a(S'turn and move to the east'
p235
S'Right 1'
p236
tp237
a(S'and right'
p238
S'Right 1'
p239
tp240
a(S'up'
p241
S'Up 1'
p242
tp243
a(S'down'
p244
S'Down 1'
p245
tp246
a(S'go down'
p247
S'Down 1'
p248
tp249
a(S'go right four times'
p250
S'Right 4'
p251
tp252
a(S'then down'
p253
S'Down 1'
p254
tp255
a(S', left twice'
p256
S'Left 2'
p257
tp258
a(S'go up'
p259
S'Up 1'
p260
tp261
a(S'and up'
p262
S'Up 1'
p263
tp264
a(S', go north one for space'
p265
S'Up 1'
p266
tp267
a(S'north'
p268
S'Up 1'
p269
tp270
a(S'down one'
p271
S'Down 1'
p272
tp273
a(S'then north'
p274
S'Up 1'
p275
tp276
a(S'down five'
p277
S'Down 5'
p278
tp279
a(S'move up one space'
p280
S'Up 1'
p281
tp282
a(S'right'
p283
S'Right 1'
p284
tp285
a(S'go south one move'
p286
S'Down 1'
p287
tp288
a(S'left'
p289
S'Left 1'
p290
tp291
a(S'go left'
p292
S'Left 1'
p293
tp294
a(S'up'
p295
S'Up 1'
p296
tp297
a(S'move up'
p298
S'Up 1'
p299
tp300
a(S'down'
p301
S'Down 1'
p302
tp303
a(S', up'
p304
S'Up 1'
p305
tp306
a(S'left ,'
p307
S'Left 1'
p308
tp309
a(S'right'
p310
S'Right 1'
p311
tp312
a(S'up three'
p313
S'Up 3'
p314
tp315
a(S'then south'
p316
S'Down 1'
p317
tp318
a(S'left ,'
p319
S'Left 1'
p320
tp321
a(S', down one'
p322
S'Down 1'
p323
tp324
a(S'go left'
p325
S'Left 1'
p326
tp327
a(S'up one'
p328
S'Up 1'
p329
tp330
a(S'go west'
p331
S'Left 1'
p332
tp333
a(S'go south'
p334
S'Down 1'
p335
tp336
a(S'four steps right'
p337
S'Right 4'
p338
tp339
a(S'step once to the west'
p340
S'Left 1'
p341
tp342
a(S'move down three'
p343
S'Down 3'
p344
tp345
a(S'and up'
p346
S'Up 1'
p347
tp348
a(S', left'
p349
S'Left 1'
p350
tp351
a(S'left x4'
p352
S'Left 4'
p353
tp354
a(S'down'
p355
S'Down 1'
p356
tp357
a(S'go down three steps'
p358
S'Down 3'
p359
tp360
a(S'then go up'
p361
S'Up 1'
p362
tp363
a(S'right'
p364
S'Right 1'
p365
tp366
a(S'go right'
p367
S'Right 1'
p368
tp369
a(S'move east one step'
p370
S'Right 1'
p371
tp372
a(S'and finally up three spaces'
p373
S'Up 3'
p374
tp375
a(S'left'
p376
S'Left 1'
p377
tp378
a(S'right one space'
p379
S'Right 1'
p380
tp381
a(S'right'
p382
S'Right 1'
p383
tp384
a(S', go left'
p385
S'Left 1'
p386
tp387
a(S'down'
p388
S'Down 1'
p389
tp390
a(S', west'
p391
S'Left 1'
p392
tp393
a(S', down'
p394
S'Down 1'
p395
tp396
a(S', up'
p397
S'Up 1'
p398
tp399
a(S'go right'
p400
S'Right 1'
p401
tp402
a(S'then go up'
p403
S'Up 1'
p404
tp405
a(S'move right four'
p406
S'Right 4'
p407
tp408
a(S'move down'
p409
S'Down 1'
p410
tp411
a(S'down'
p412
S'Down 1'
p413
tp414
a(S', right'
p415
S'Right 1'
p416
tp417
a(S'move down five steps'
p418
S'Down 5'
p419
tp420
a(S'right four spaces'
p421
S'Right 4'
p422
tp423
a(S'left four'
p424
S'Left 4'
p425
tp426
a(S', down'
p427
S'Down 1'
p428
tp429
a(S'then go up two steps into the green room'
p430
S'Up 2'
p431
tp432
a(S'five steps right'
p433
S'Right 5'
p434
tp435
a(S'north'
p436
S'Up 1'
p437
tp438
a(S'turn east'
p439
S'Right 1'
p440
tp441
a(S'go left'
p442
S'Left 1'
p443
tp444
a(S'go up'
p445
S'Up 1'
p446
tp447
a(S'go right four spaces'
p448
S'Right 4'
p449
tp450
a(S'down'
p451
S'Down 1'
p452
tp453
a(S'left'
p454
S'Left 1'
p455
tp456
a(S', up'
p457
S'Up 1'
p458
tp459
a(S'go up'
p460
S'Up 1'
p461
tp462
a(S'up'
p463
S'Up 1'
p464
tp465
a(S'down'
p466
S'Down 1'
p467
tp468
a(S'left'
p469
S'Left 1'
p470
tp471
a(S'left'
p472
S'Left 1'
p473
tp474
a(S'north'
p475
S'Up 1'
p476
tp477
a(S', right'
p478
S'Right 1'
p479
tp480
a(S', go south'
p481
S'Down 1'
p482
tp483
a(S'west two moves'
p484
S'Left 2'
p485
tp486
a(S'move down five spaces'
p487
S'Down 5'
p488
tp489
a(S'then move west one time'
p490
S'Left 1'
p491
tp492
a(S'move left five'
p493
S'Left 5'
p494
tp495
a(S', east'
p496
S'Left 1'
p497
tp498
a(S'left'
p499
S'Left 1'
p500
tp501
a(S', then up twice'
p502
S'Up 2'
p503
tp504
a(S'go down'
p505
S'Down 1'
p506
tp507
a(S'go up'
p508
S'Up 1'
p509
tp510
a(S'down one'
p511
S'Down 1'
p512
tp513
a(S'go right'
p514
S'Right 1'
p515
tp516
a(S'go right one time'
p517
S'Right 1'
p518
tp519
a(S'go left'
p520
S'Left 1'
p521
tp522
a(S'take one step to left'
p523
S'Left 1'
p524
tp525
a(S'go right'
p526
S'Right 1'
p527
tp528
a(S'and up'
p529
S'Up 1'
p530
tp531
a(S'go left'
p532
S'Left 1'
p533
tp534
a(S'go down'
p535
S'Down 1'
p536
tp537
a(S'south one step'
p538
S'Down 1'
p539
tp540
a(S'left'
p541
S'Left 1'
p542
tp543
a(S'up'
p544
S'Up 1'
p545
tp546
a(S'go down'
p547
S'Down 1'
p548
tp549
a(S'then down one time'
p550
S'Down 1'
p551
tp552
a(S'up three'
p553
S'Up 3'
p554
tp555
a(S'then go west four spaces'
p556
S'Left 4'
p557
tp558
a(S'go down'
p559
S'Down 1'
p560
tp561
a(S'move down'
p562
S'Down 1'
p563
tp564
a(S'go east'
p565
S'Right 1'
p566
tp567
a(S'move one step left and face the wall'
p568
S'Left 1'
p569
tp570
a(S'three north'
p571
S'Up 3'
p572
tp573
a(S'then move east four steps'
p574
S'Right 4'
p575
tp576
a(S'then west four squares'
p577
S'Left 4'
p578
tp579
a(S'right'
p580
S'Right 1'
p581
tp582
a(S', down'
p583
S'Down 1'
p584
tp585
a(S'left'
p586
S'Left 1'
p587
tp588
a(S'down'
p589
S'Down 1'
p590
tp591
a(S'back east'
p592
S'Right 1'
p593
tp594
a(S'go up two'
p595
S'Up 2'
p596
tp597
a(S'right four spaces'
p598
S'Right 4'
p599
tp600
a(S'move down again'
p601
S'Down 1'
p602
tp603
a(S', down'
p604
S'Down 1'
p605
tp606
a(S'four to the right'
p607
S'Right 4'
p608
tp609
a(S'right five spaces'
p610
S'Right 1'
p611
tp612
a(S'right'
p613
S'Right 1'
p614
tp615
a(S'turn and go one space left'
p616
S'Left 1'
p617
tp618
a(S'then go down'
p619
S'Down 1'
p620
tp621
a(S'go south'
p622
S'Down 1'
p623
tp624
a(S'up'
p625
S'Up 1'
p626
tp627
a(S'move east'
p628
S'Right 1'
p629
tp630
a(S'go south'
p631
S'Down 1'
p632
tp633
a(S'then up'
p634
S'Up 1'
p635
tp636
a(S'down'
p637
S'Down 1'
p638
tp639
a(S'move down one space'
p640
S'Down 1'
p641
tp642
a(S'down'
p643
S'Down 1'
p644
tp645
a(S'move south one times'
p646
S'Down 1'
p647
tp648
a(S'go up'
p649
S'Up 1'
p650
tp651
a(S'one down'
p652
S'Down 1'
p653
tp654
a(S'right four'
p655
S'Right 4'
p656
tp657
a(S'go down'
p658
S'Down 1'
p659
tp660
a(S'go south'
p661
S'Down 1'
p662
tp663
a(S'left'
p664
S'Left 1'
p665
tp666
a(S'go up'
p667
S'Up 1'
p668
tp669
a(S', go up'
p670
S'Up 1'
p671
tp672
a(S'then south'
p673
S'Down 1'
p674
tp675
a(S'go west'
p676
S'Left 1'
p677
tp678
a(S'right'
p679
S'Right 1'
p680
tp681
a(S'go down'
p682
S'Down 1'
p683
tp684
a(S'right'
p685
S'Right 1'
p686
tp687
a(S'move down'
p688
S'Down 1'
p689
tp690
a(S'step up'
p691
S'Up 1'
p692
tp693
a(S'left'
p694
S'Left 1'
p695
tp696
a(S'then west'
p697
S'Left 1'
p698
tp699
a(S'one move upward'
p700
S'Up 1'
p701
tp702
a(S'left'
p703
S'Left 1'
p704
tp705
a(S'turn left then advance one space'
p706
S'Left 1'
p707
tp708
a(S'up'
p709
S'Up 1'
p710
tp711
a(S'move south'
p712
S'Down 1'
p713
tp714
a(S', go west for five spaces'
p715
S'Left 5'
p716
tp717
a(S', right'
p718
S'Right 1'
p719
tp720
a(S'move east one step'
p721
S'Right 1'
p722
tp723
a(S'down one'
p724
S'Down 1'
p725
tp726
a(S'down'
p727
S'Down 1'
p728
tp729
a(S'down'
p730
S'Down 1'
p731
tp732
a(S'then left'
p733
S'Left 1'
p734
tp735
a(S'left'
p736
S'Left 1'
p737
tp738
a(S'take one step south'
p739
S'Down 1'
p740
tp741
a(S'right'
p742
S'Right 1'
p743
tp744
a(S'one step up'
p745
S'Up 1'
p746
tp747
a(S'left'
p748
S'Left 1'
p749
tp750
a(S'up'
p751
S'Up 1'
p752
tp753
a(S'down'
p754
S'Down 1'
p755
tp756
a(S'left'
p757
S'Left 1'
p758
tp759
a(S'move left'
p760
S'Left 1'
p761
tp762
a(S'go up'
p763
S'Up 1'
p764
tp765
a(S'up'
p766
S'Up 1'
p767
tp768
a(S'pushing the chair take one step down'
p769
S'Down 1'
p770
tp771
a(S', north three times'
p772
S'Up 3'
p773
tp774
a(S', east'
p775
S'Right 1'
p776
tp777
a(S'down'
p778
S'Down 1'
p779
tp780
a(S'move south three moves'
p781
S'Down 3'
p782
tp783
a(S'and then right four units'
p784
S'Right 4'
p785
tp786
a(S'go right one square'
p787
S'Right 1'
p788
tp789
a(S'right'
p790
S'Right 1'
p791
tp792
a(S', east'
p793
S'Left 1'
p794
tp795
a(S'then go down'
p796
S'Down 1'
p797
tp798
a(S', south'
p799
S'Down 1'
p800
tp801
a(S'go down'
p802
S'Down 1'
p803
tp804
a(S', left'
p805
S'Down 1'
p806
tp807
a(S'step over one spot to the right'
p808
S'Right 1'
p809
tp810
a(S'. move up two times'
p811
S'Up 2'
p812
tp813
a(S'up one'
p814
S'Up 1'
p815
tp816
a(S'go south until you hit the wall'
p817
S'Down 1'
p818
tp819
a(S'go south'
p820
S'Down 1'
p821
tp822
a(S'five down'
p823
S'Down 5'
p824
tp825
a(S'up'
p826
S'Up 1'
p827
tp828
a(S'move right one space'
p829
S'Right 1'
p830
tp831
a(S'turn east and make one move forward'
p832
S'Right 1'
p833
tp834
a(S'go down'
p835
S'Down 1'
p836
tp837
a(S'down'
p838
S'Down 1'
p839
tp840
a(S'and then north two times'
p841
S'Up 2'
p842
tp843
a(S'go down'
p844
S'Down 1'
p845
tp846
a(S'move west two'
p847
S'Left 2'
p848
tp849
a(S'go down'
p850
S'Down 1'
p851
tp852
a(S'west two more spaces'
p853
S'Left 2'
p854
tp855
a(S'then go north one motion'
p856
S'Up 1'
p857
tp858
a(S'right'
p859
S'Right 1'
p860
tp861
a(S'north one step'
p862
S'Up 1'
p863
tp864
a(S'then go left four steps'
p865
S'Left 4'
p866
tp867
a(S'left'
p868
S'Left 1'
p869
tp870
a(S'go south'
p871
S'Down 1'
p872
tp873
a(S'down'
p874
S'Down 1'
p875
tp876
a(S'left'
p877
S'Left 1'
p878
tp879
a(S'move right'
p880
S'Right 1'
p881
tp882
a(S'left four'
p883
S'Left 4'
p884
tp885
a(S'down'
p886
S'Down 1'
p887
tp888
a(S'left'
p889
S'Left 1'
p890
tp891
a(S'go down'
p892
S'Down 1'
p893
tp894
a(S'right'
p895
S'Right 1'
p896
tp897
a(S'move right four spaces'
p898
S'Right 4'
p899
tp900
a(S'then go three steps north'
p901
S'Up 3'
p902
tp903
a(S', down one'
p904
S'Down 1'
p905
tp906
a(S'go west'
p907
S'Right 1'
p908
tp909
a(S'and two through green door'
p910
S'Up 2'
p911
tp912
a(S'move east one step'
p913
S'Right 1'
p914
tp915
a(S'go west'
p916
S'Left 1'
p917
tp918
a(S'right'
p919
S'Right 1'
p920
tp921
a(S'left'
p922
S'Left 1'
p923
tp924
a(S'go down'
p925
S'Down 1'
p926
tp927
a(S'move south three times'
p928
S'Down 3'
p929
tp930
a(S'take three steps south'
p931
S'Down 3'
p932
tp933
a(S'go down three'
p934
S'Down 3'
p935
tp936
a(S'north'
p937
S'Up 1'
p938
tp939
a(S'and right'
p940
S'Right 1'
p941
tp942
a(S'down'
p943
S'Down 1'
p944
tp945
a(S'up'
p946
S'Up 1'
p947
tp948
a(S'go east'
p949
S'Right 1'
p950
tp951
a(S'go down and wait'
p952
S'Down 1'
p953
tp954
a(S'west'
p955
S'Left 1'
p956
tp957
a(S', west'
p958
S'Left 1'
p959
tp960
a(S'four right'
p961
S'Right 4'
p962
tp963
a(S'go south five spaces'
p964
S'Down 5'
p965
tp966
a(S'left'
p967
S'Left 1'
p968
tp969
a(S'then up again'
p970
S'Up 1'
p971
tp972
a(S'left'
p973
S'Left 1'
p974
tp975
a(S'go down'
p976
S'Down 1'
p977
tp978
a(S'then turn west'
p979
S'Left 1'
p980
tp981
a(S'turn to your left and take a step'
p982
S'Left 1'
p983
tp984
a(S', left'
p985
S'Left 1'
p986
tp987
a(S'go south three spots to the other room'
p988
S'Down 3'
p989
tp990
a(S'go up three steps with chair'
p991
S'Up 3'
p992
tp993
a(S', down'
p994
S'Down 1'
p995
tp996
a(S'up'
p997
S'Up 1'
p998
tp999
a(S'down'
p1000
S'Down 1'
p1001
tp1002
a(S'right four spaces'
p1003
S'Right 4'
p1004
tp1005
a(S', left'
p1006
S'Left 1'
p1007
tp1008
a(S'go down'
p1009
S'Down 1'
p1010
tp1011
a(S'up'
p1012
S'Up 1'
p1013
tp1014
a(S', go straight down'
p1015
S'Down 1'
p1016
tp1017
a(S'down'
p1018
S'Down 1'
p1019
tp1020
a(S'and then down'
p1021
S'Down 1'
p1022
tp1023
a(S'travel east'
p1024
S'Right 1'
p1025
tp1026
a(S'left five'
p1027
S'Left 5'
p1028
tp1029
a(S'then up two times'
p1030
S'Up 2'
p1031
tp1032
a(S'go south one move'
p1033
S'Down 1'
p1034
tp1035
a(S'go up'
p1036
S'Up 1'
p1037
tp1038
a(S'right one'
p1039
S'Right 1'
p1040
tp1041
a(S'west'
p1042
S'Left 1'
p1043
tp1044
a(S'down'
p1045
S'Down 1'
p1046
tp1047
a(S'down'
p1048
S'Down 1'
p1049
tp1050
a(S', north'
p1051
S'Up 1'
p1052
tp1053
a(S'north three steps'
p1054
S'Up 3'
p1055
tp1056
a(S'go right four steps'
p1057
S'Right 4'
p1058
tp1059
a(S'move east four spaces'
p1060
S'Right 4'
p1061
tp1062
a(S'left'
p1063
S'Left 1'
p1064
tp1065
a(S'go west'
p1066
S'Left 1'
p1067
tp1068
a(S'and then left'
p1069
S'Left 1'
p1070
tp1071
a(S'left'
p1072
S'Left 1'
p1073
tp1074
a(S'turn right ,'
p1075
S'Right 1'
p1076
tp1077
a(S'left'
p1078
S'Left 1'
p1079
tp1080
a(S'right four spaces'
p1081
S'Right 4'
p1082
tp1083
a(S'up one'
p1084
S'Up 1'
p1085
tp1086
a(S'up'
p1087
S'Up 1'
p1088
tp1089
a(S'right one step'
p1090
S'Right 1'
p1091
tp1092
a(S'left'
p1093
S'Left 1'
p1094
tp1095
a(S'take one step forward going north'
p1096
S'Up 1'
p1097
tp1098
a(S'up'
p1099
S'Up 1'
p1100
tp1101
a(S'then north'
p1102
S'Up 1'
p1103
tp1104
a(S'go up'
p1105
S'Left 1'
p1106
tp1107
a(S'down'
p1108
S'Down 1'
p1109
tp1110
a(S'up'
p1111
S'Up 1'
p1112
tp1113
a(S'go left'
p1114
S'Left 1'
p1115
tp1116
a(S'left four'
p1117
S'Left 4'
p1118
tp1119
a(S'right'
p1120
S'Right 1'
p1121
tp1122
a(S'up'
p1123
S'Up 1'
p1124
tp1125
a(S'then north'
p1126
S'Up 1'
p1127
tp1128
a(S'go down'
p1129
S'Down 1'
p1130
tp1131
a(S'turn left'
p1132
S'Left 1'
p1133
tp1134
a(S'up three'
p1135
S'Up 3'
p1136
tp1137
a(S'go down five steps'
p1138
S'Down 5'
p1139
tp1140
a(S'up one'
p1141
S'Up 1'
p1142
tp1143
a(S'down'
p1144
S'Down 1'
p1145
tp1146
a(S'go left'
p1147
S'Left 1'
p1148
tp1149
a(S'right'
p1150
S'Right 1'
p1151
tp1152
a(S'move south one time'
p1153
S'Down 1'
p1154
tp1155
a(S'then move up three times'
p1156
S'Up 3'
p1157
tp1158
a(S'left'
p1159
S'Left 1'
p1160
tp1161
a(S'take five steps south'
p1162
S'Down 5'
p1163
tp1164
a(S'down'
p1165
S'Down 1'
p1166
tp1167
a(S'go south'
p1168
S'Down 1'
p1169
tp1170
a(S'move east one time'
p1171
S'Right 1'
p1172
tp1173
a(S'go left'
p1174
S'Left 1'
p1175
tp1176
a(S'up'
p1177
S'Up 1'
p1178
tp1179
a(S'down three'
p1180
S'Down 3'
p1181
tp1182
a(S'go down five'
p1183
S'Down 5'
p1184
tp1185
a(S'left'
p1186
S'Left 1'
p1187
tp1188
a(S'go left'
p1189
S'Left 1'
p1190
tp1191
a(S'up'
p1192
S'Up 1'
p1193
tp1194
a(S'right four steps'
p1195
S'Right 4'
p1196
tp1197
a(S'go south'
p1198
S'Down 1'
p1199
tp1200
a(S'down'
p1201
S'Down 1'
p1202
tp1203
a(S'left four steps'
p1204
S'Left 4'
p1205
tp1206
a(S'left'
p1207
S'Left 1'
p1208
tp1209
a(S'go up'
p1210
S'Up 1'
p1211
tp1212
a(S'go down'
p1213
S'Down 1'
p1214
tp1215
a(S'up three spaces'
p1216
S'Up 3'
p1217
tp1218
a(S'go right four times'
p1219
S'Right 4'
p1220
tp1221
a(S'move down one space'
p1222
S'Down 1'
p1223
tp1224
a(S'go right'
p1225
S'Right 1'
p1226
tp1227
a(S'south'
p1228
S'Down 1'
p1229
tp1230
a(S'go south'
p1231
S'Down 1'
p1232
tp1233
a(S'down'
p1234
S'Down 1'
p1235
tp1236
a(S'right'
p1237
S'Right 1'
p1238
tp1239
a(S'go north'
p1240
S'Up 1'
p1241
tp1242
a(S'one step to the right'
p1243
S'Right 1'
p1244
tp1245
a(S'go down'
p1246
S'Down 1'
p1247
tp1248
a(S'north one'
p1249
S'Up 1'
p1250
tp1251
a(S'down'
p1252
S'Down 1'
p1253
tp1254
a(S'right'
p1255
S'Right 1'
p1256
tp1257
a(S'up'
p1258
S'Up 1'
p1259
tp1260
a(S'down'
p1261
S'Down 1'
p1262
tp1263
a(S'go down'
p1264
S'Down 1'
p1265
tp1266
a(S'go down'
p1267
S'Down 1'
p1268
tp1269
a(S'right'
p1270
S'Right 1'
p1271
tp1272
a(S', then go down once'
p1273
S'Down 1'
p1274
tp1275
a(S'left four steps'
p1276
S'Left 4'
p1277
tp1278
a(S'south one space'
p1279
S'Down 1'
p1280
tp1281
a(S'move south five times'
p1282
S'Down 5'
p1283
tp1284
a(S'move down five times'
p1285
S'Down 5'
p1286
tp1287
a(S'left'
p1288
S'Left 1'
p1289
tp1290
a(S'and up'
p1291
S'Up 1'
p1292
tp1293
a(S'go west'
p1294
S'Left 1'
p1295
tp1296
a(S', up'
p1297
S'Up 1'
p1298
tp1299
a(S'go down'
p1300
S'Down 1'
p1301
tp1302
a(S'go north'
p1303
S'Up 1'
p1304
tp1305
a(S'left'
p1306
S'Left 1'
p1307
tp1308
a(S'move left five spaces'
p1309
S'Left 5'
p1310
tp1311
a(S'left'
p1312
S'Left 1'
p1313
tp1314
a(S'go south five steps'
p1315
S'Down 5'
p1316
tp1317
a(S'go up'
p1318
S'Up 1'
p1319
tp1320
a(S'move north three spaces'
p1321
S'Up 3'
p1322
tp1323
a(S'go south'
p1324
S'Down 1'
p1325
tp1326
a(S'travel up'
p1327
S'Up 1'
p1328
tp1329
a(S'go up one time'
p1330
S'Up 1'
p1331
tp1332
a(S'go down'
p1333
S'Down 1'
p1334
tp1335
a(S'up'
p1336
S'Up 1'
p1337
tp1338
a(S'right five'
p1339
S'Right 5'
p1340
tp1341
a(S'south five'
p1342
S'Down 5'
p1343
tp1344
a(S'and then two steps north'
p1345
S'Up 2'
p1346
tp1347
a(S'and then west'
p1348
S'Left 1'
p1349
tp1350
a(S'left one'
p1351
S'Left 1'
p1352
tp1353
a(S', go down'
p1354
S'Down 1'
p1355
tp1356
a(S'south another space'
p1357
S'Down 1'
p1358
tp1359
a(S'west'
p1360
S'Right 1'
p1361
tp1362
a(S'go down three steps'
p1363
S'Down 3'
p1364
tp1365
a(S'up'
p1366
S'Up 1'
p1367
tp1368
a(S', south'
p1369
S'Down 1'
p1370
tp1371
a(S', go left'
p1372
S'Left 1'
p1373
tp1374
a(S'move towards right'
p1375
S'Right 1'
p1376
tp1377
a(S'down'
p1378
S'Down 1'
p1379
tp1380
a(S'move west five times'
p1381
S'Left 5'
p1382
tp1383
a(S'go south'
p1384
S'Down 1'
p1385
tp1386
a(S'take a step towards left'
p1387
S'Left 1'
p1388
tp1389
a(S', down'
p1390
S'Down 1'
p1391
tp1392
a(S'go down'
p1393
S'Down 1'
p1394
tp1395
a(S'then go right'
p1396
S'Right 1'
p1397
tp1398
a(S'four steps to the right'
p1399
S'Right 4'
p1400
tp1401
a(S'then east'
p1402
S'Right 1'
p1403
tp1404
a(S'right'
p1405
S'Right 1'
p1406
tp1407
a(S', go down'
p1408
S'Down 1'
p1409
tp1410
a(S'south'
p1411
S'Down 1'
p1412
tp1413
a(S'go down'
p1414
S'Down 1'
p1415
tp1416
a(S'down'
p1417
S'Down 1'
p1418
tp1419
a(S'go down'
p1420
S'Down 1'
p1421
tp1422
a(S'down'
p1423
S'Down 1'
p1424
tp1425
a(S'down one'
p1426
S'Down 1'
p1427
tp1428
a(S'go down'
p1429
S'Down 1'
p1430
tp1431
a(S'move south one'
p1432
S'Down 1'
p1433
tp1434
a(S'go left'
p1435
S'Left 1'
p1436
tp1437
a(S', five steps west'
p1438
S'Left 5'
p1439
tp1440
a(S'left'
p1441
S'Left 1'
p1442
tp1443
a(S'go east'
p1444
S'Right 1'
p1445
tp1446
a(S'down'
p1447
S'Down 1'
p1448
tp1449
a(S'turn to your right'
p1450
S'Right 1'
p1451
tp1452
a(S'up three spaces'
p1453
S'Up 3'
p1454
tp1455
a(S'move right one spaces'
p1456
S'Right 1'
p1457
tp1458
a(S'go down five steps'
p1459
S'Down 5'
p1460
tp1461
a(S'move north one space'
p1462
S'Up 1'
p1463
tp1464
a(S'up'
p1465
S'Up 1'
p1466
tp1467
a(S'and up'
p1468
S'Up 1'
p1469
tp1470
a(S'turn west'
p1471
S'Left 1'
p1472
tp1473
a(S'go left'
p1474
S'Left 1'
p1475
tp1476
a(S', left'
p1477
S'Left 1'
p1478
tp1479
a(S'move west five steps'
p1480
S'Left 5'
p1481
tp1482
a(S', right'
p1483
S'Right 1'
p1484
tp1485
a(S'south'
p1486
S'Down 1'
p1487
tp1488
a(S'go up'
p1489
S'Up 1'
p1490
tp1491
a(S'go west one pace'
p1492
S'Left 1'
p1493
tp1494
a(S', down'
p1495
S'Down 1'
p1496
tp1497
a(S'south'
p1498
S'Down 1'
p1499
tp1500
a(S'up'
p1501
S'Up 1'
p1502
tp1503
a(S'down ,'
p1504
S'Down 1'
p1505
tp1506
a(S'north'
p1507
S'Up 1'
p1508
tp1509
a(S'and then down once more'
p1510
S'Down 1'
p1511
tp1512
a(S'go south'
p1513
S'Down 1'
p1514
tp1515
a(S'left'
p1516
S'Left 1'
p1517
tp1518
a(S'go right'
p1519
S'Right 1'
p1520
tp1521
a(S'go south'
p1522
S'Down 1'
p1523
tp1524
a(S'to the right'
p1525
S'Right 1'
p1526
tp1527
a(S'left'
p1528
S'Left 1'
p1529
tp1530
a(S'move south one time'
p1531
S'Down 1'
p1532
tp1533
a(S'up two steps'
p1534
S'Up 2'
p1535
tp1536
a(S'then right'
p1537
S'Right 1'
p1538
tp1539
a(S'robot a , go straight down'
p1540
S'Down 1'
p1541
tp1542
a(S'left'
p1543
S'Left 1'
p1544
tp1545
a(S'down'
p1546
S'Down 1'
p1547
tp1548
a(S'then right four steps'
p1549
S'Right 4'
p1550
tp1551
a(S'up'
p1552
S'Up 1'
p1553
tp1554
a(S', go left four times'
p1555
S'Left 4'
p1556
tp1557
a(S'go down'
p1558
S'Down 1'
p1559
tp1560
a(S'go left'
p1561
S'Left 1'
p1562
tp1563
a(S'go west'
p1564
S'Left 1'
p1565
tp1566
a(S', west'
p1567
S'Left 1'
p1568
tp1569
a(S'go down'
p1570
S'Down 1'
p1571
tp1572
a(S', east four times'
p1573
S'Right 4'
p1574
tp1575
a(S'go down'
p1576
S'Down 1'
p1577
tp1578
a(S'go south three steps'
p1579
S'Down 3'
p1580
tp1581
a(S'down'
p1582
S'Down 1'
p1583
tp1584
a(S'look right , move right'
p1585
S'Right 1'
p1586
tp1587
a(S'and then up two steps'
p1588
S'Up 2'
p1589
tp1590
a(S', go right'
p1591
S'Right 1'
p1592
tp1593
a(S'up'
p1594
S'Up 1'
p1595
tp1596
a(S'then go north two paces'
p1597
S'Up 2'
p1598
tp1599
a(S'one step right'
p1600
S'Right 1'
p1601
tp1602
a(S'go north'
p1603
S'Up 1'
p1604
tp1605
a(S'right one'
p1606
S'Right 1'
p1607
tp1608
a(S', down'
p1609
S'Down 1'
p1610
tp1611
a(S'move down one'
p1612
S'Down 1'
p1613
tp1614
a(S'down'
p1615
S'Down 1'
p1616
tp1617
a(S', south one time'
p1618
S'Down 1'
p1619
tp1620
a(S'go south'
p1621
S'Down 1'
p1622
tp1623
a(S'up one space'
p1624
S'Up 1'
p1625
tp1626
a(S'go down one square'
p1627
S'Down 1'
p1628
tp1629
a(S'left five spaces'
p1630
S'Left 5'
p1631
tp1632
a(S'left'
p1633
S'Left 1'
p1634
tp1635
a(S'go south'
p1636
S'Down 1'
p1637
tp1638
a(S'right'
p1639
S'Right 1'
p1640
tp1641
a(S'left five'
p1642
S'Left 5'
p1643
tp1644
a(S'down'
p1645
S'Down 1'
p1646
tp1647
a(S'go down'
p1648
S'Down 1'
p1649
tp1650
a(S'go south three steps'
p1651
S'Down 3'
p1652
tp1653
a(S', left'
p1654
S'Left 1'
p1655
tp1656
a(S'down'
p1657
S'Down 1'
p1658
tp1659
a(S'up one'
p1660
S'Up 1'
p1661
tp1662
a(S'left'
p1663
S'Left 1'
p1664
tp1665
a(S'move down'
p1666
S'Down 1'
p1667
tp1668
a(S'then go right'
p1669
S'Right 1'
p1670
tp1671
a(S', north'
p1672
S'Up 1'
p1673
tp1674
a(S'and finally up three times'
p1675
S'Up 3'
p1676
tp1677
a(S'up'
p1678
S'Up 1'
p1679
tp1680
a(S'left'
p1681
S'Left 1'
p1682
tp1683
a(S'right'
p1684
S'Right 1'
p1685
tp1686
a(S'move south once'
p1687
S'Down 1'
p1688
tp1689
a(S'move east four times'
p1690
S'Right 4'
p1691
tp1692
a(S'three north'
p1693
S'Up 3'
p1694
tp1695
a(S'left one'
p1696
S'Left 1'
p1697
tp1698
a(S'down'
p1699
S'Down 1'
p1700
tp1701
a(S'go up'
p1702
S'Left 1'
p1703
tp1704
a(S', west'
p1705
S'Left 1'
p1706
tp1707
a(S', then go left once'
p1708
S'Left 1'
p1709
tp1710
a(S'down'
p1711
S'Down 1'
p1712
tp1713
a(S'go south three times'
p1714
S'Down 3'
p1715
tp1716
a(S'turn your body to the right and move one step'
p1717
S'Right 1'
p1718
tp1719
a(S'up'
p1720
S'Up 1'
p1721
tp1722
a(S'left'
p1723
S'Left 1'
p1724
tp1725
a(S'down'
p1726
S'Down 1'
p1727
tp1728
a(S'then go one step south'
p1729
S'Down 1'
p1730
tp1731
a(S'go west one move'
p1732
S'Left 1'
p1733
tp1734
a(S'down one space'
p1735
S'Down 1'
p1736
tp1737
a(S'then move north two steps'
p1738
S'Up 2'
p1739
tp1740
a(S'right'
p1741
S'Right 1'
p1742
tp1743
a(S'left'
p1744
S'Left 1'
p1745
tp1746
a(S'right'
p1747
S'Right 1'
p1748
tp1749
a(S'right'
p1750
S'Right 1'
p1751
tp1752
a(S'up'
p1753
S'Up 1'
p1754
tp1755
a(S'west'
p1756
S'Left 1'
p1757
tp1758
a(S'go down five'
p1759
S'Down 5'
p1760
tp1761
a(S'north'
p1762
S'Up 1'
p1763
tp1764
a(S'go up'
p1765
S'Up 1'
p1766
tp1767
a(S'go left'
p1768
S'Left 1'
p1769
tp1770
a(S'go south'
p1771
S'Down 1'
p1772
tp1773
a(S'go left four steps'
p1774
S'Left 4'
p1775
tp1776
a(S'left'
p1777
S'Left 1'
p1778
tp1779
a(S'up'
p1780
S'Up 1'
p1781
tp1782
a(S'west'
p1783
S'Left 1'
p1784
tp1785
a(S'east four steps'
p1786
S'Right 4'
p1787
tp1788
a(S'down one space'
p1789
S'Down 1'
p1790
tp1791
a(S'left'
p1792
S'Left 1'
p1793
tp1794
a(S', go right'
p1795
S'Right 1'
p1796
tp1797
a(S'go down one time'
p1798
S'Down 1'
p1799
tp1800
a(S'left four'
p1801
S'Left 4'
p1802
tp1803
a(S'go right'
p1804
S'Right 1'
p1805
tp1806
a(S'move up two'
p1807
S'Up 2'
p1808
tp1809
a(S'then down one step'
p1810
S'Down 1'
p1811
tp1812
a(S'then go right'
p1813
S'Right 1'
p1814
tp1815
a(S'take a step to your right'
p1816
S'Right 1'
p1817
tp1818
a(S'move north two times'
p1819
S'Up 2'
p1820
tp1821
a(S'right'
p1822
S'Right 1'
p1823
tp1824
a(S'down'
p1825
S'Down 1'
p1826
tp1827
a(S'turn to your right and move ahead one space'
p1828
S'Right 1'
p1829
tp1830
a(S'left four'
p1831
S'Left 4'
p1832
tp1833
a(S'go three paces south'
p1834
S'Down 3'
p1835
tp1836
a(S'south'
p1837
S'Down 1'
p1838
tp1839
a(S'right'
p1840
S'Right 1'
p1841
tp1842
a(S'one step down'
p1843
S'Down 1'
p1844
tp1845
a(S', go south'
p1846
S'Down 1'
p1847
tp1848
a(S', left'
p1849
S'Left 1'
p1850
tp1851
a(S'north'
p1852
S'Up 1'
p1853
tp1854
a(S'go east'
p1855
S'Right 1'
p1856
tp1857
a(S'go up one step'
p1858
S'Up 1'
p1859
tp1860
a(S'and then north'
p1861
S'Up 1'
p1862
tp1863
a(S'left two'
p1864
S'Left 2'
p1865
tp1866
a(S'go right'
p1867
S'Right 1'
p1868
tp1869
a(S'go right'
p1870
S'Right 1'
p1871
tp1872
a(S'go down three steps'
p1873
S'Down 3'
p1874
tp1875
a(S'down'
p1876
S'Down 1'
p1877
tp1878
a(S'right'
p1879
S'Right 1'
p1880
tp1881
a(S'go down three steps'
p1882
S'Down 3'
p1883
tp1884
a(S'move up'
p1885
S'Up 1'
p1886
tp1887
a(S'move down five times'
p1888
S'Down 5'
p1889
tp1890
a(S'west four steps'
p1891
S'Left 4'
p1892
tp1893
a(S', go up'
p1894
S'Right 1'
p1895
tp1896
a(S'move south one unit'
p1897
S'Down 1'
p1898
tp1899
a(S', then go up three times'
p1900
S'Up 3'
p1901
tp1902
a(S'south one step'
p1903
S'Down 1'
p1904
tp1905
a(S'and move north two times'
p1906
S'Up 2'
p1907
tp1908
a(S'down'
p1909
S'Down 1'
p1910
tp1911
a(S'left'
p1912
S'Left 1'
p1913
tp1914
a(S', up'
p1915
S'Up 1'
p1916
tp1917
a(S'and up'
p1918
S'Up 1'
p1919
tp1920
a(S'and then go down'
p1921
S'Down 1'
p1922
tp1923
a(S'go left four steps'
p1924
S'Left 4'
p1925
tp1926
a(S'go down'
p1927
S'Down 1'
p1928
tp1929
a(S', down'
p1930
S'Down 1'
p1931
tp1932
a(S'go down'
p1933
S'Down 1'
p1934
tp1935
a(S'move north'
p1936
S'Up 1'
p1937
tp1938
a(S'south'
p1939
S'Down 1'
p1940
tp1941
a(S', go left'
p1942
S'Left 1'
p1943
tp1944
a(S', west'
p1945
S'Left 1'
p1946
tp1947
a(S'down five'
p1948
S'Down 5'
p1949
tp1950
a(S'up three'
p1951
S'Up 3'
p1952
tp1953
a(S'move right one'
p1954
S'Right 1'
p1955
tp1956
a(S'go right'
p1957
S'Right 1'
p1958
tp1959
a(S'move north two'
p1960
S'Up 2'
p1961
tp1962
a(S'up three'
p1963
S'Up 3'
p1964
tp1965
a(S'left'
p1966
S'Left 1'
p1967
tp1968
a(S'right'
p1969
S'Right 1'
p1970
tp1971
a(S'then up'
p1972
S'Up 1'
p1973
tp1974
a(S'go right'
p1975
S'Right 1'
p1976
tp1977
a(S'go down'
p1978
S'Down 1'
p1979
tp1980
a(S'go down'
p1981
S'Down 1'
p1982
tp1983
a(S', one step north'
p1984
S'Up 1'
p1985
tp1986
a(S'go down'
p1987
S'Down 1'
p1988
tp1989
a(S'move east one space'
p1990
S'Right 1'
p1991
tp1992
a(S'then go right'
p1993
S'Right 1'
p1994
tp1995
a(S'south one space'
p1996
S'Down 1'
p1997
tp1998
a(S'two more steps west'
p1999
S'Left 1'
p2000
tp2001
a(S'down'
p2002
S'Down 1'
p2003
tp2004
a(S'west three moves'
p2005
S'Left 1'
p2006
tp2007
a(S'move down'
p2008
S'Down 1'
p2009
tp2010
a(S'move up'
p2011
S'Up 2'
p2012
tp2013
a(S'go down three steps'
p2014
S'Down 3'
p2015
tp2016
a(S'and then north'
p2017
S'Up 1'
p2018
tp2019
a(S', down once'
p2020
S'Down 1'
p2021
tp2022
a(S'north'
p2023
S'Up 1'
p2024
tp2025
a(S'right'
p2026
S'Right 1'
p2027
tp2028
a(S'north'
p2029
S'Up 1'
p2030
tp2031
a(S'five steps to the right'
p2032
S'Right 5'
p2033
tp2034
a(S'go south'
p2035
S'Down 1'
p2036
tp2037
a(S'move up once'
p2038
S'Up 1'
p2039
tp2040
a(S', left'
p2041
S'Left 1'
p2042
tp2043
a(S'then north'
p2044
S'Up 1'
p2045
tp2046
a(S'five steps west'
p2047
S'Left 5'
p2048
tp2049
a(S'right'
p2050
S'Right 1'
p2051
tp2052
a(S'up three'
p2053
S'Up 3'
p2054
tp2055
a(S'and go up'
p2056
S'Up 1'
p2057
tp2058
a(S'go west for four steps'
p2059
S'Left 4'
p2060
tp2061
a(S'go down'
p2062
S'Down 1'
p2063
tp2064
a(S'go right'
p2065
S'Right 1'
p2066
tp2067
a(S'down'
p2068
S'Down 1'
p2069
tp2070
a(S', left'
p2071
S'Left 1'
p2072
tp2073
a(S'left'
p2074
S'Left 1'
p2075
tp2076
a(S', left'
p2077
S'Left 1'
p2078
tp2079
a(S'then down a step'
p2080
S'Down 1'
p2081
tp2082
a(S'and go right'
p2083
S'Right 1'
p2084
tp2085
a(S'down'
p2086
S'Down 3'
p2087
tp2088
a(S'go down'
p2089
S'Down 1'
p2090
tp2091
a(S'left five'
p2092
S'Left 5'
p2093
tp2094
a(S'then left'
p2095
S'Left 1'
p2096
tp2097
a(S', west'
p2098
S'Left 1'
p2099
tp2100
a(S'left'
p2101
S'Left 1'
p2102
tp2103
a(S'left'
p2104
S'Left 1'
p2105
tp2106
a(S'go down'
p2107
S'Down 1'
p2108
tp2109
a(S'go south'
p2110
S'Down 1'
p2111
tp2112
a(S'left five'
p2113
S'Left 5'
p2114
tp2115
a(S'right'
p2116
S'Right 1'
p2117
tp2118
a(S'move down'
p2119
S'Down 1'
p2120
tp2121
a(S'then right'
p2122
S'Right 1'
p2123
tp2124
a(S'go right'
p2125
S'Right 1'
p2126
tp2127
a(S', up'
p2128
S'Up 1'
p2129
tp2130
a(S'north two'
p2131
S'Up 2'
p2132
tp2133
a(S'east one'
p2134
S'Right 1'
p2135
tp2136
a(S'move right one'
p2137
S'Right 1'
p2138
tp2139
a(S'down'
p2140
S'Down 1'
p2141
tp2142
a(S'go down'
p2143
S'Down 1'
p2144
tp2145
a(S'go south'
p2146
S'Down 1'
p2147
tp2148
a(S', left'
p2149
S'Left 1'
p2150
tp2151
a(S'move south five spaces'
p2152
S'Down 5'
p2153
tp2154
a(S'left'
p2155
S'Left 1'
p2156
tp2157
a(S'south'
p2158
S'Down 1'
p2159
tp2160
a(S'move left'
p2161
S'Left 1'
p2162
tp2163
a(S'right'
p2164
S'Right 1'
p2165
tp2166
a(S'go down'
p2167
S'Down 1'
p2168
tp2169
a(S', go right'
p2170
S'Right 1'
p2171
tp2172
a(S'move right one'
p2173
S'Right 1'
p2174
tp2175
a(S'down'
p2176
S'Down 1'
p2177
tp2178
a(S'right'
p2179
S'Right 1'
p2180
tp2181
a(S'take a step to your left'
p2182
S'Left 1'
p2183
tp2184
a(S'down'
p2185
S'Down 1'
p2186
tp2187
a(S'north one step'
p2188
S'Up 1'
p2189
tp2190
a(S'go south'
p2191
S'Down 1'
p2192
tp2193
a(S'go right four times'
p2194
S'Right 4'
p2195
tp2196
a(S'take three steps south'
p2197
S'Down 1'
p2198
tp2199
a(S'four steps right'
p2200
S'Right 4'
p2201
tp2202
a(S'go to down'
p2203
S'Down 1'
p2204
tp2205
a(S'up three'
p2206
S'Up 3'
p2207
tp2208
a(S'move south five times'
p2209
S'Down 5'
p2210
tp2211
a(S'go down'
p2212
S'Down 1'
p2213
tp2214
a(S'and finally up three steps'
p2215
S'Up 3'
p2216
tp2217
a(S'go west two moves'
p2218
S'Left 2'
p2219
tp2220
a(S'go down'
p2221
S'Down 3'
p2222
tp2223
a(S', west'
p2224
S'Left 1'
p2225
tp2226
a(S'up three'
p2227
S'Up 3'
p2228
tp2229
a(S'go left five times'
p2230
S'Left 5'
p2231
tp2232
a(S'right one'
p2233
S'Right 1'
p2234
tp2235
a(S'up'
p2236
S'Up 1'
p2237
tp2238
a(S'east four steps'
p2239
S'Right 4'
p2240
tp2241
a(S', left'
p2242
S'Left 1'
p2243
tp2244
a(S'and move north three times'
p2245
S'Up 3'
p2246
tp2247
a(S'left'
p2248
S'Left 1'
p2249
tp2250
a(S'move to the right a single step'
p2251
S'Right 1'
p2252
tp2253
a(S', down'
p2254
S'Down 1'
p2255
tp2256
a(S'right'
p2257
S'Right 1'
p2258
tp2259
a(S'another step south'
p2260
S'Down 1'
p2261
tp2262
a(S'go up'
p2263
S'Up 1'
p2264
tp2265
a(S'then right'
p2266
S'Right 1'
p2267
tp2268
a(S'then go up'
p2269
S'Up 1'
p2270
tp2271
a(S', left one'
p2272
S'Left 1'
p2273
tp2274
a(S'go east'
p2275
S'Right 1'
p2276
tp2277
a(S', then go up three times'
p2278
S'Up 3'
p2279
tp2280
a(S'go west'
p2281
S'Left 1'
p2282
tp2283
a(S'go right four times'
p2284
S'Right 4'
p2285
tp2286
a(S'move up'
p2287
S'Up 1'
p2288
tp2289
a(S'right'
p2290
S'Right 1'
p2291
tp2292
a(S'left'
p2293
S'Left 1'
p2294
tp2295
a(S', go south'
p2296
S'Down 1'
p2297
tp2298
a(S'move five steps down'
p2299
S'Down 5'
p2300
tp2301
a(S'go left'
p2302
S'Left 1'
p2303
tp2304
a(S', right'
p2305
S'Right 1'
p2306
tp2307
a(S'left'
p2308
S'Left 1'
p2309
tp2310
a(S'left'
p2311
S'Left 1'
p2312
tp2313
a(S'move east'
p2314
S'Right 1'
p2315
tp2316
a(S'west'
p2317
S'Left 1'
p2318
tp2319
a(S'go down'
p2320
S'Down 1'
p2321
tp2322
a(S'then move up two times'
p2323
S'Up 2'
p2324
tp2325
a(S'go down three spaces'
p2326
S'Down 3'
p2327
tp2328
a(S'and move one step up'
p2329
S'Up 1'
p2330
tp2331
a(S'up'
p2332
S'Up 1'
p2333
tp2334
a(S', one step east'
p2335
S'Left 1'
p2336
tp2337
a(S'four east'
p2338
S'Right 4'
p2339
tp2340
a(S'pick up chair go east'
p2341
S'Right 1'
p2342
tp2343
a(S'down'
p2344
S'Down 1'
p2345
tp2346
a(S'move left four'
p2347
S'Left 4'
p2348
tp2349
a(S'up'
p2350
S'Up 1'
p2351
tp2352
a(S'up'
p2353
S'Up 1'
p2354
tp2355
a(S'then go right four times'
p2356
S'Right 4'
p2357
tp2358
a(S'then go up once'
p2359
S'Up 1'
p2360
tp2361
a(S'then up three times'
p2362
S'Up 3'
p2363
tp2364
a(S'go up'
p2365
S'Up 1'
p2366
tp2367
a(S'left'
p2368
S'Left 1'
p2369
tp2370
a(S'move south one'
p2371
S'Down 1'
p2372
tp2373
a(S'left'
p2374
S'Left 1'
p2375
tp2376
a(S'go down'
p2377
S'Down 1'
p2378
tp2379
a(S', south'
p2380
S'Down 1'
p2381
tp2382
a(S'left'
p2383
S'Left 1'
p2384
tp2385
a(S'move down one spaces'
p2386
S'Down 1'
p2387
tp2388
a(S'go down three'
p2389
S'Down 3'
p2390
tp2391
a(S'go down five spaces'
p2392
S'Down 5'
p2393
tp2394
a(S'west one move'
p2395
S'Left 1'
p2396
tp2397
a(S'and go north'
p2398
S'Up 1'
p2399
tp2400
a(S'left'
p2401
S'Left 1'
p2402
tp2403
a(S'left ,'
p2404
S'Left 1'
p2405
tp2406
a(S'go down once'
p2407
S'Down 1'
p2408
tp2409
a(S'right'
p2410
S'Right 1'
p2411
tp2412
a(S'north three step'
p2413
S'Up 3'
p2414
tp2415
a(S'down one'
p2416
S'Down 1'
p2417
tp2418
a(S'go right'
p2419
S'Right 1'
p2420
tp2421
a(S', left'
p2422
S'Left 1'
p2423
tp2424
a(S'go down'
p2425
S'Down 1'
p2426
tp2427
a(S'go down'
p2428
S'Down 1'
p2429
tp2430
a(S'east four steps'
p2431
S'Right 4'
p2432
tp2433
a(S'move south three'
p2434
S'Down 1'
p2435
tp2436
a(S'turn right and move forward one space'
p2437
S'Right 1'
p2438
tp2439
a(S'down'
p2440
S'Down 1'
p2441
tp2442
a(S'move left four times'
p2443
S'Left 4'
p2444
tp2445
a(S'left'
p2446
S'Left 1'
p2447
tp2448
a(S'left'
p2449
S'Left 1'
p2450
tp2451
a(S'step one space to the left'
p2452
S'Left 1'
p2453
tp2454
a(S', go east for one space'
p2455
S'Left 1'
p2456
tp2457
a(S'up two'
p2458
S'Up 2'
p2459
tp2460
a(S'then down one step'
p2461
S'Down 1'
p2462
tp2463
a(S'and right'
p2464
S'Right 1'
p2465
tp2466
a(S'left'
p2467
S'Left 1'
p2468
tp2469
a(S'and up'
p2470
S'Up 1'
p2471
tp2472
a(S', left once'
p2473
S'Left 1'
p2474
tp2475
a(S'then left one step'
p2476
S'Left 1'
p2477
tp2478
a(S'up'
p2479
S'Up 1'
p2480
tp2481
a(S'up'
p2482
S'Up 1'
p2483
tp2484
a(S'up'
p2485
S'Up 1'
p2486
tp2487
a(S'move down three times'
p2488
S'Down 3'
p2489
tp2490
a(S'then up'
p2491
S'Up 1'
p2492
tp2493
a(S', west'
p2494
S'Left 1'
p2495
tp2496
a(S'go up'
p2497
S'Up 1'
p2498
tp2499
a(S'east'
p2500
S'Right 1'
p2501
tp2502
a(S'left'
p2503
S'Left 1'
p2504
tp2505
a(S'move south one movement'
p2506
S'Down 1'
p2507
tp2508
a(S'go up leave chair'
p2509
S'Up 1'
p2510
tp2511
a(S'go down'
p2512
S'Down 1'
p2513
tp2514
a(S'go south'
p2515
S'Down 1'
p2516
tp2517
a(S'down'
p2518
S'Down 1'
p2519
tp2520
a(S'go down'
p2521
S'Down 1'
p2522
tp2523
a(S'left'
p2524
S'Left 1'
p2525
tp2526
a(S'right'
p2527
S'Right 1'
p2528
tp2529
a(S'down'
p2530
S'Down 1'
p2531
tp2532
a(S'west'
p2533
S'Left 1'
p2534
tp2535
a(S'then down'
p2536
S'Down 1'
p2537
tp2538
a(S'go south'
p2539
S'Down 1'
p2540
tp2541
a(S'go up two steps'
p2542
S'Up 2'
p2543
tp2544
a(S'left five spaces'
p2545
S'Left 5'
p2546
tp2547
a(S'move east once'
p2548
S'Right 1'
p2549
tp2550
a(S'go south one motion'
p2551
S'Down 1'
p2552
tp2553
a(S'and right'
p2554
S'Right 1'
p2555
tp2556
a(S'go down three steps'
p2557
S'Down 3'
p2558
tp2559
a(S'up two'
p2560
S'Up 2'
p2561
tp2562
a(S', east'
p2563
S'Right 1'
p2564
tp2565
a(S'turn and move north one spot'
p2566
S'Up 1'
p2567
tp2568
a(S'go up'
p2569
S'Up 1'
p2570
tp2571
a(S'right'
p2572
S'Right 1'
p2573
tp2574
a(S'move north three times'
p2575
S'Up 3'
p2576
tp2577
a(S'then right five times'
p2578
S'Right 5'
p2579
tp2580
a(S'west five steps'
p2581
S'Left 5'
p2582
tp2583
a(S'and then go west'
p2584
S'Left 1'
p2585
tp2586
a(S'then up'
p2587
S'Up 1'
p2588
tp2589
a(S', go down'
p2590
S'Down 1'
p2591
tp2592
a(S'go east'
p2593
S'Right 1'
p2594
tp2595
a(S'go down'
p2596
S'Down 1'
p2597
tp2598
a(S'up'
p2599
S'Up 1'
p2600
tp2601
a(S'one more step west'
p2602
S'Left 1'
p2603
tp2604
a(S'up one space'
p2605
S'Up 1'
p2606
tp2607
a(S'down'
p2608
S'Down 1'
p2609
tp2610
a(S'and up two times'
p2611
S'Up 2'
p2612
tp2613
a(S'south'
p2614
S'Down 1'
p2615
tp2616
a(S'up'
p2617
S'Up 1'
p2618
tp2619
a(S'and go north for two spaces'
p2620
S'Up 2'
p2621
tp2622
a(S', down'
p2623
S'Down 1'
p2624
tp2625
a(S'move south five steps'
p2626
S'Down 5'
p2627
tp2628
a(S'up'
p2629
S'Up 1'
p2630
tp2631
a(S'go up'
p2632
S'Up 1'
p2633
tp2634
a(S'move south three steps then stop'
p2635
S'Down 3'
p2636
tp2637
a(S'right four'
p2638
S'Right 4'
p2639
tp2640
a(S'go down'
p2641
S'Down 1'
p2642
tp2643
a(S'left'
p2644
S'Left 1'
p2645
tp2646
a(S'down'
p2647
S'Down 1'
p2648
tp2649
a(S'two up'
p2650
S'Up 2'
p2651
tp2652
a(S'north three steps'
p2653
S'Up 3'
p2654
tp2655
a(S'down one'
p2656
S'Down 1'
p2657
tp2658
a(S'go left'
p2659
S'Left 1'
p2660
tp2661
a(S'down'
p2662
S'Down 1'
p2663
tp2664
a(S'face east and make one move forward'
p2665
S'Down 1'
p2666
tp2667
a(S'then north'
p2668
S'Up 1'
p2669
tp2670
a(S'then right'
p2671
S'Right 1'
p2672
tp2673
a(S'move left five'
p2674
S'Left 5'
p2675
tp2676
a(S'right one space'
p2677
S'Right 1'
p2678
tp2679
a(S'down'
p2680
S'Down 1'
p2681
tp2682
a(S'go south'
p2683
S'Down 1'
p2684
tp2685
a(S'right'
p2686
S'Right 1'
p2687
tp2688
a(S'go right'
p2689
S'Right 1'
p2690
tp2691
a(S'then go north three paces'
p2692
S'Up 3'
p2693
tp2694
a(S'down'
p2695
S'Down 1'
p2696
tp2697
a(S'turn one step left'
p2698
S'Left 1'
p2699
tp2700
a(S'move west one step'
p2701
S'Left 1'
p2702
tp2703
a(S'move left'
p2704
S'Left 1'
p2705
tp2706
a(S'three up'
p2707
S'Up 3'
p2708
tp2709
a(S'up'
p2710
S'Up 1'
p2711
tp2712
a(S'go down'
p2713
S'Down 1'
p2714
tp2715
a(S'west'
p2716
S'Left 1'
p2717
tp2718
a(S'down'
p2719
S'Down 1'
p2720
tp2721
a(S'up'
p2722
S'Up 1'
p2723
tp2724
a(S'go south three steps'
p2725
S'Down 3'
p2726
tp2727
a(S'go down three steps'
p2728
S'Down 3'
p2729
tp2730
a(S'left'
p2731
S'Left 1'
p2732
tp2733
a(S'left twice'
p2734
S'Left 2'
p2735
tp2736
a(S'go down !'
p2737
S'Down 1'
p2738
tp2739
a(S'right'
p2740
S'Right 1'
p2741
tp2742
a(S'go south three squares'
p2743
S'Down 3'
p2744
tp2745
a(S'right'
p2746
S'Right 1'
p2747
tp2748
a(S'down'
p2749
S'Down 1'
p2750
tp2751
a(S'down'
p2752
S'Down 1'
p2753
tp2754
a(S'move down'
p2755
S'Down 1'
p2756
tp2757
a(S'east'
p2758
S'Right 1'
p2759
tp2760
a(S'go right'
p2761
S'Right 1'
p2762
tp2763
a(S'left'
p2764
S'Left 1'
p2765
tp2766
a(S'go north one square'
p2767
S'Up 1'
p2768
tp2769
a(S'go north for two steps'
p2770
S'Up 2'
p2771
tp2772
a(S'west two'
p2773
S'Left 2'
p2774
tp2775
a(S'go south'
p2776
S'Down 1'
p2777
tp2778
a(S'go left'
p2779
S'Left 1'
p2780
tp2781
a(S'go west'
p2782
S'Left 1'
p2783
tp2784
a(S'then go west two paces'
p2785
S'Right 2'
p2786
tp2787
a(S'left four spaces'
p2788
S'Left 4'
p2789
tp2790
a(S'down'
p2791
S'Down 1'
p2792
tp2793
a(S'go down'
p2794
S'Down 1'
p2795
tp2796
a(S'left'
p2797
S'Left 1'
p2798
tp2799
a(S'then south'
p2800
S'Down 1'
p2801
tp2802
a(S'go west for four spaces'
p2803
S'Left 4'
p2804
tp2805
a(S'left'
p2806
S'Left 1'
p2807
tp2808
a(S'south'
p2809
S'Down 1'
p2810
tp2811
a(S'west'
p2812
S'Left 1'
p2813
tp2814
a(S'left'
p2815
S'Left 1'
p2816
tp2817
a(S'then east'
p2818
S'Right 1'
p2819
tp2820
a(S'up'
p2821
S'Up 1'
p2822
tp2823
a(S'up'
p2824
S'Up 1'
p2825
tp2826
a(S'right'
p2827
S'Right 1'
p2828
tp2829
a(S'turn right and take a step'
p2830
S'Right 1'
p2831
tp2832
a(S'north'
p2833
S'Up 1'
p2834
tp2835
a(S'right'
p2836
S'Right 1'
p2837
tp2838
a(S', left'
p2839
S'Left 1'
p2840
tp2841
a(S'down one'
p2842
S'Down 1'
p2843
tp2844
a(S'then move north two times'
p2845
S'Up 2'
p2846
tp2847
a(S'up'
p2848
S'Up 1'
p2849
tp2850
a(S'down'
p2851
S'Down 1'
p2852
tp2853
a(S'up'
p2854
S'Up 1'
p2855
tp2856
a(S'go down three steps'
p2857
S'Down 3'
p2858
tp2859
a(S'. go up three times'
p2860
S'Up 3'
p2861
tp2862
a(S'and go down'
p2863
S'Down 1'
p2864
tp2865
a(S'right one'
p2866
S'Right 1'
p2867
tp2868
a(S', turn left'
p2869
S'Left 1'
p2870
tp2871
a(S'west five steps'
p2872
S'Left 5'
p2873
tp2874
a(S'go down'
p2875
S'Down 1'
p2876
tp2877
a(S'left'
p2878
S'Left 1'
p2879
tp2880
a(S', up'
p2881
S'Up 1'
p2882
tp2883
a(S'then up'
p2884
S'Up 1'
p2885
tp2886
a(S'move up one spaces'
p2887
S'Up 1'
p2888
tp2889
a(S'then move south one step'
p2890
S'Down 1'
p2891
tp2892
a(S'four steps to the right'
p2893
S'Right 4'
p2894
tp2895
a(S'right'
p2896
S'Right 1'
p2897
tp2898
a(S'go down'
p2899
S'Down 1'
p2900
tp2901
a(S'left'
p2902
S'Left 1'
p2903
tp2904
a(S'then go up three times'
p2905
S'Up 3'
p2906
tp2907
a(S', north'
p2908
S'Up 1'
p2909
tp2910
a(S'right'
p2911
S'Right 1'
p2912
tp2913
a(S'down'
p2914
S'Down 1'
p2915
tp2916
a(S'left'
p2917
S'Left 1'
p2918
tp2919
a(S'south one'
p2920
S'Down 1'
p2921
tp2922
a(S'move west one'
p2923
S'Left 1'
p2924
tp2925
a(S'down one'
p2926
S'Down 1'
p2927
tp2928
a(S'go east'
p2929
S'Right 1'
p2930
tp2931
a(S'go south'
p2932
S'Down 1'
p2933
tp2934
a(S'north'
p2935
S'Up 1'
p2936
tp2937
a(S'go left'
p2938
S'Left 1'
p2939
tp2940
a(S'then go west four paces'
p2941
S'Left 4'
p2942
tp2943
a(S'go down three steps'
p2944
S'Down 3'
p2945
tp2946
a(S'down'
p2947
S'Down 1'
p2948
tp2949
a(S', go down'
p2950
S'Down 1'
p2951
tp2952
a(S'go down three spaces'
p2953
S'Down 3'
p2954
tp2955
a(S'up two'
p2956
S'Up 2'
p2957
tp2958
a(S'move up two spaces'
p2959
S'Up 2'
p2960
tp2961
a(S'and then move right four times'
p2962
S'Right 4'
p2963
tp2964
a(S'north two'
p2965
S'Up 2'
p2966
tp2967
a(S'and up'
p2968
S'Up 1'
p2969
tp2970
a(S'go north'
p2971
S'Up 1'
p2972
tp2973
a(S'then go down'
p2974
S'Down 1'
p2975
tp2976
a(S'right'
p2977
S'Right 1'
p2978
tp2979
a(S'up three'
p2980
S'Up 3'
p2981
tp2982
a(S'up'
p2983
S'Up 1'
p2984
tp2985
a(S'up ,'
p2986
S'Up 1'
p2987
tp2988
a(S'go down'
p2989
S'Down 1'
p2990
tp2991
a(S'up three steps'
p2992
S'Up 3'
p2993
tp2994
a(S'go down'
p2995
S'Down 1'
p2996
tp2997
a(S'go straight down'
p2998
S'Down 1'
p2999
tp3000
a(S'down one'
p3001
S'Down 1'
p3002
tp3003
a(S'right'
p3004
S'Right 1'
p3005
tp3006
a(S'then right four times'
p3007
S'Right 4'
p3008
tp3009
a(S'right'
p3010
S'Right 1'
p3011
tp3012
a(S'then right fives times'
p3013
S'Right 5'
p3014
tp3015
a(S'up'
p3016
S'Up 1'
p3017
tp3018
a(S'move up'
p3019
S'Up 1'
p3020
tp3021
a(S'west five steps'
p3022
S'Left 5'
p3023
tp3024
a(S', south'
p3025
S'Down 1'
p3026
tp3027
a(S'move down'
p3028
S'Down 1'
p3029
tp3030
a(S'go south'
p3031
S'Down 1'
p3032
tp3033
a(S'go down five units'
p3034
S'Down 5'
p3035
tp3036
a(S'down one'
p3037
S'Down 1'
p3038
tp3039
a(S'go up'
p3040
S'Up 1'
p3041
tp3042
a(S'down'
p3043
S'Down 1'
p3044
tp3045
a(S'move down once'
p3046
S'Down 1'
p3047
tp3048
a(S'down'
p3049
S'Down 1'
p3050
tp3051
a(S'one step west'
p3052
S'Left 1'
p3053
tp3054
a(S'go east one step'
p3055
S'Right 1'
p3056
tp3057
a(S'go up'
p3058
S'Up 1'
p3059
tp3060
a(S'south one move'
p3061
S'Down 1'
p3062
tp3063
a(S'go east'
p3064
S'Right 1'
p3065
tp3066
a(S'right one'
p3067
S'Right 1'
p3068
tp3069
a(S'and up'
p3070
S'Up 1'
p3071
tp3072
a(S'west'
p3073
S'Left 1'
p3074
tp3075
a(S'move south five units'
p3076
S'Down 5'
p3077
tp3078
a(S'right four'
p3079
S'Right 4'
p3080
tp3081
a(S'go east'
p3082
S'Right 1'
p3083
tp3084
a(S', down'
p3085
S'Down 1'
p3086
tp3087
a(S'south'
p3088
S'Down 1'
p3089
tp3090
a(S'west one space'
p3091
S'Left 1'
p3092
tp3093
a(S'go north for three spaces'
p3094
S'Up 3'
p3095
tp3096
a(S'and then go east for four spaces'
p3097
S'Right 4'
p3098
tp3099
a(S'down'
p3100
S'Down 1'
p3101
tp3102
a(S'right'
p3103
S'Right 1'
p3104
tp3105
a(S'left'
p3106
S'Left 1'
p3107
tp3108
a(S'then to the left a little'
p3109
S'Left 1'
p3110
tp3111
a(S'go south'
p3112
S'Down 1'
p3113
tp3114
a(S'go north'
p3115
S'Up 1'
p3116
tp3117
a(S'up'
p3118
S'Up 1'
p3119
tp3120
a(S'left'
p3121
S'Left 1'
p3122
tp3123
a(S'up'
p3124
S'Up 1'
p3125
tp3126
a(S'go west'
p3127
S'Left 1'
p3128
tp3129
a(S'down'
p3130
S'Down 1'
p3131
tp3132
a(S'then go up'
p3133
S'Up 1'
p3134
tp3135
a(S'right'
p3136
S'Right 1'
p3137
tp3138
a(S'move right'
p3139
S'Right 1'
p3140
tp3141
a(S'up'
p3142
S'Up 1'
p3143
tp3144
a(S'down ,'
p3145
S'Down 1'
p3146
tp3147
a(S'east four steps'
p3148
S'Right 4'
p3149
tp3150
a(S'down'
p3151
S'Down 1'
p3152
tp3153
a(S'move north'
p3154
S'Up 1'
p3155
tp3156
a(S'and come down once'
p3157
S'Down 1'
p3158
tp3159
a(S'west'
p3160
S'Left 1'
p3161
tp3162
a(S'go west'
p3163
S'Left 1'
p3164
tp3165
a(S'right four'
p3166
S'Right 4'
p3167
tp3168
a(S'down one space'
p3169
S'Down 1'
p3170
tp3171
a(S'down five'
p3172
S'Down 5'
p3173
tp3174
a(S'go down'
p3175
S'Down 1'
p3176
tp3177
a(S', up'
p3178
S'Up 1'
p3179
tp3180
a(S'then go up a step'
p3181
S'Up 1'
p3182
tp3183
a(S'then up'
p3184
S'Up 1'
p3185
tp3186
a(S'move down three spaces'
p3187
S'Down 3'
p3188
tp3189
a(S'and north three times'
p3190
S'Up 3'
p3191
tp3192
a(S'west'
p3193
S'Left 1'
p3194
tp3195
a(S'move up'
p3196
S'Up 1'
p3197
tp3198
a(S'up'
p3199
S'Up 1'
p3200
tp3201
a(S'move to the right one pace'
p3202
S'Right 1'
p3203
tp3204
a(S'go up'
p3205
S'Up 1'
p3206
tp3207
a(S'south'
p3208
S'Down 1'
p3209
tp3210
a(S'south'
p3211
S'Down 1'
p3212
tp3213
a(S'north'
p3214
S'Up 1'
p3215
tp3216
a(S'robot a , go straight down'
p3217
S'Down 1'
p3218
tp3219
a(S'go right'
p3220
S'Right 1'
p3221
tp3222
a(S'go north for two steps'
p3223
S'Up 2'
p3224
tp3225
a(S'go three steps down'
p3226
S'Down 3'
p3227
tp3228
a(S'and finally go north three spaces'
p3229
S'Up 3'
p3230
tp3231
a(S'left'
p3232
S'Left 1'
p3233
tp3234
a(S'then west'
p3235
S'Left 1'
p3236
tp3237
a(S'move down'
p3238
S'Down 1'
p3239
tp3240
a(S'one up'
p3241
S'Up 1'
p3242
tp3243
a(S'left'
p3244
S'Left 1'
p3245
tp3246
a(S'south one move'
p3247
S'Down 1'
p3248
tp3249
a(S'go right'
p3250
S'Right 1'
p3251
tp3252
a(S'go down five times'
p3253
S'Down 5'
p3254
tp3255
a(S'turn right'
p3256
S'Right 1'
p3257
tp3258
a(S'one step to the right'
p3259
S'Right 1'
p3260
tp3261
a(S'go down'
p3262
S'Down 1'
p3263
tp3264
a(S'up'
p3265
S'Up 1'
p3266
tp3267
a(S'down'
p3268
S'Down 1'
p3269
tp3270
a(S'east'
p3271
S'Right 1'
p3272
tp3273
a(S'right'
p3274
S'Right 1'
p3275
tp3276
a(S'left five spaces'
p3277
S'Left 5'
p3278
tp3279
a(S'right'
p3280
S'Right 1'
p3281
tp3282
a(S'then go up'
p3283
S'Up 1'
p3284
tp3285
a(S'up'
p3286
S'Up 1'
p3287
tp3288
a(S'right one'
p3289
S'Right 1'
p3290
tp3291
a(S'left'
p3292
S'Left 1'
p3293
tp3294
a(S'down'
p3295
S'Down 1'
p3296
tp3297
a(S'go left'
p3298
S'Left 1'
p3299
tp3300
a(S'down'
p3301
S'Down 1'
p3302
tp3303
a(S'right four spaces'
p3304
S'Right 4'
p3305
tp3306
a(S', up'
p3307
S'Up 1'
p3308
tp3309
a(S'go east'
p3310
S'Right 1'
p3311
tp3312
a(S'down'
p3313
S'Down 1'
p3314
tp3315
a(S', go down'
p3316
S'Down 1'
p3317
tp3318
a(S'then down'
p3319
S'Down 1'
p3320
tp3321
a(S'move west five spaces'
p3322
S'Left 5'
p3323
tp3324
a(S'right'
p3325
S'Right 1'
p3326
tp3327
a(S'right'
p3328
S'Right 1'
p3329
tp3330
a(S'then up three spaces'
p3331
S'Up 3'
p3332
tp3333
a(S'then go west'
p3334
S'Left 1'
p3335
tp3336
a(S'go left four times'
p3337
S'Left 4'
p3338
tp3339
a(S'go north'
p3340
S'Up 1'
p3341
tp3342
a(S'go down'
p3343
S'Down 1'
p3344
tp3345
a(S'go down'
p3346
S'Down 1'
p3347
tp3348
a(S'then north two steps'
p3349
S'Up 2'
p3350
tp3351
a(S'go down three'
p3352
S'Down 3'
p3353
tp3354
a(S'go up'
p3355
S'Up 1'
p3356
tp3357
a(S'go down'
p3358
S'Down 1'
p3359
tp3360
a(S'up one'
p3361
S'Up 1'
p3362
tp3363
a(S'lastly go up three times'
p3364
S'Up 3'
p3365
tp3366
a(S'south one step'
p3367
S'Down 1'
p3368
tp3369
a(S'down'
p3370
S'Down 1'
p3371
tp3372
a(S'go down five times'
p3373
S'Down 5'
p3374
tp3375
a(S'up'
p3376
S'Up 1'
p3377
tp3378
a(S', left once'
p3379
S'Left 1'
p3380
tp3381
a(S'four west'
p3382
S'Left 4'
p3383
tp3384
a(S', down'
p3385
S'Down 1'
p3386
tp3387
a(S'up three'
p3388
S'Up 3'
p3389
tp3390
a(S'up'
p3391
S'Up 1'
p3392
tp3393
a(S'up three spots'
p3394
S'Up 3'
p3395
tp3396
a(S'push the chair up'
p3397
S'Up 1'
p3398
tp3399
a(S', and then go west'
p3400
S'Left 1'
p3401
tp3402
a(S'and right'
p3403
S'Right 1'
p3404
tp3405
a(S'and up'
p3406
S'Up 1'
p3407
tp3408
a(S'move south three spaces'
p3409
S'Down 3'
p3410
tp3411
a(S'right one space'
p3412
S'Right 1'
p3413
tp3414
a(S'left'
p3415
S'Left 1'
p3416
tp3417
a(S'south'
p3418
S'Down 1'
p3419
tp3420
a(S'one step up'
p3421
S'Up 1'
p3422
tp3423
a(S'then left five times'
p3424
S'Left 5'
p3425
tp3426
a(S', west'
p3427
S'Left 1'
p3428
tp3429
a(S'right'
p3430
S'Right 1'
p3431
tp3432
a(S'go up'
p3433
S'Up 1'
p3434
tp3435
a(S', left'
p3436
S'Left 1'
p3437
tp3438
a(S', up'
p3439
S'Up 1'
p3440
tp3441
a(S'move south three steps'
p3442
S'Down 3'
p3443
tp3444
a(S'north one step'
p3445
S'Up 1'
p3446
tp3447
a(S'right'
p3448
S'Right 1'
p3449
tp3450
a(S'left five'
p3451
S'Left 5'
p3452
tp3453
a(S'take a single step to your left'
p3454
S'Left 1'
p3455
tp3456
a(S', go south for one space'
p3457
S'Down 1'
p3458
tp3459
a(S', down'
p3460
S'Down 1'
p3461
tp3462
a(S'then head north for two paces'
p3463
S'Up 2'
p3464
tp3465
a(S'go down five spots'
p3466
S'Down 5'
p3467
tp3468
a(S'go south three paces'
p3469
S'Down 3'
p3470
tp3471
a(S'left four'
p3472
S'Left 4'
p3473
tp3474
a(S'down one step'
p3475
S'Down 1'
p3476
tp3477
a(S'and up three spaces'
p3478
S'Up 3'
p3479
tp3480
a(S'up'
p3481
S'Up 1'
p3482
tp3483
a(S'go south one move'
p3484
S'Down 1'
p3485
tp3486
a(S'west one move'
p3487
S'Left 1'
p3488
tp3489
a(S'go down'
p3490
S'Down 1'
p3491
tp3492
a(S'down'
p3493
S'Down 1'
p3494
tp3495
a(S'south'
p3496
S'Down 1'
p3497
tp3498
a(S'then go right'
p3499
S'Right 1'
p3500
tp3501
a(S', left one'
p3502
S'Left 1'
p3503
tp3504
a(S'go right'
p3505
S'Right 1'
p3506
tp3507
a(S'right one'
p3508
S'Right 1'
p3509
tp3510
a(S'down'
p3511
S'Down 1'
p3512
tp3513
a(S'move east once'
p3514
S'Right 1'
p3515
tp3516
a(S'right'
p3517
S'Right 1'
p3518
tp3519
a(S'go south'
p3520
S'Down 1'
p3521
tp3522
a(S'down one'
p3523
S'Down 1'
p3524
tp3525
a(S'right'
p3526
S'Right 1'
p3527
tp3528
a(S'go down'
p3529
S'Down 1'
p3530
tp3531
a(S'go south'
p3532
S'Down 1'
p3533
tp3534
a(S'left five steps'
p3535
S'Left 5'
p3536
tp3537
a(S'up'
p3538
S'Up 1'
p3539
tp3540
a(S'and move left one step'
p3541
S'Left 1'
p3542
tp3543
a(S'move down three times'
p3544
S'Down 3'
p3545
tp3546
a(S'go south'
p3547
S'Down 1'
p3548
tp3549
a(S'down one step'
p3550
S'Down 1'
p3551
tp3552
a(S'go south for one step'
p3553
S'Down 1'
p3554
tp3555
a(S', move north three times'
p3556
S'Up 3'
p3557
tp3558
a(S'right four spaces'
p3559
S'Right 4'
p3560
tp3561
a(S'go north'
p3562
S'Up 1'
p3563
tp3564
a(S'left'
p3565
S'Left 1'
p3566
tp3567
a(S'then west'
p3568
S'Left 1'
p3569
tp3570
a(S', then north'
p3571
S'Up 1'
p3572
tp3573
a(S'go north'
p3574
S'Up 1'
p3575
tp3576
a(S'down'
p3577
S'Down 1'
p3578
tp3579
a(S'left'
p3580
S'Left 1'
p3581
tp3582
a(S'down once'
p3583
S'Down 1'
p3584
tp3585
a(S'down one'
p3586
S'Down 1'
p3587
tp3588
a(S'and then left'
p3589
S'Left 1'
p3590
tp3591
a(S'go left twice'
p3592
S'Left 2'
p3593
tp3594
a(S'up one space'
p3595
S'Up 1'
p3596
tp3597
a(S'then north two times'
p3598
S'Up 2'
p3599
tp3600
a(S'then go down'
p3601
S'Down 1'
p3602
tp3603
a(S'slide over one space to the right'
p3604
S'Right 1'
p3605
tp3606
a(S'up'
p3607
S'Up 1'
p3608
tp3609
a(S'then move west four steps'
p3610
S'Left 4'
p3611
tp3612
a(S'go down three steps into the red room'
p3613
S'Down 3'
p3614
tp3615
a(S'west four steps'
p3616
S'Left 4'
p3617
tp3618
a(S'up'
p3619
S'Up 1'
p3620
tp3621
a(S'go down five'
p3622
S'Down 5'
p3623
tp3624
a(S', go west for one space'
p3625
S'Left 1'
p3626
tp3627
a(S'west one space'
p3628
S'Left 1'
p3629
tp3630
a(S'go north'
p3631
S'Up 1'
p3632
tp3633
a(S'north'
p3634
S'Up 1'
p3635
tp3636
a(S'go down'
p3637
S'Down 1'
p3638
tp3639
a(S', go right'
p3640
S'Right 1'
p3641
tp3642
a(S'move west'
p3643
S'Left 1'
p3644
tp3645
a(S'move up'
p3646
S'Up 1'
p3647
tp3648
a(S'and up three'
p3649
S'Up 3'
p3650
tp3651
a(S'go west for one step'
p3652
S'Left 1'
p3653
tp3654
a(S'down one step'
p3655
S'Down 1'
p3656
tp3657
a(S'left'
p3658
S'Left 1'
p3659
tp3660
a(S'left'
p3661
S'Left 1'
p3662
tp3663
a(S'down'
p3664
S'Down 1'
p3665
tp3666
a(S'down'
p3667
S'Down 1'
p3668
tp3669
a(S', go south for one space'
p3670
S'Down 1'
p3671
tp3672
a(S'south one move'
p3673
S'Down 1'
p3674
tp3675
a(S'down'
p3676
S'Down 1'
p3677
tp3678
a(S'go down'
p3679
S'Down 1'
p3680
tp3681
a(S'down'
p3682
S'Down 1'
p3683
tp3684
a(S'turn right and move forward once'
p3685
S'Right 1'
p3686
tp3687
a(S'up'
p3688
S'Up 1'
p3689
tp3690
a(S'up'
p3691
S'Up 1'
p3692
tp3693
a(S', go down'
p3694
S'Left 1'
p3695
tp3696
a(S'go down'
p3697
S'Down 1'
p3698
tp3699
a(S'left'
p3700
S'Left 1'
p3701
tp3702
a(S', then go left once'
p3703
S'Left 1'
p3704
tp3705
a(S'go down'
p3706
S'Down 1'
p3707
tp3708
a(S', south'
p3709
S'Down 1'
p3710
tp3711
a(S'up'
p3712
S'Up 1'
p3713
tp3714
a(S'go down'
p3715
S'Down 1'
p3716
tp3717
a(S'right four'
p3718
S'Right 4'
p3719
tp3720
a(S'right one step'
p3721
S'Right 1'
p3722
tp3723
a(S'and then move right four times'
p3724
S'Right 4'
p3725
tp3726
a(S'go up'
p3727
S'Up 1'
p3728
tp3729
a(S'three down'
p3730
S'Down 3'
p3731
tp3732
a(S', up'
p3733
S'Up 1'
p3734
tp3735
a(S'down one'
p3736
S'Down 1'
p3737
tp3738
a(S'and then three steps up'
p3739
S'Up 3'
p3740
tp3741
a(S'go down'
p3742
S'Down 1'
p3743
tp3744
a(S', right'
p3745
S'Right 1'
p3746
tp3747
a(S'move south five units'
p3748
S'Down 5'
p3749
tp3750
a(S'move west four spaces'
p3751
S'Left 4'
p3752
tp3753
a(S'move one step , turn left , and face the wall'
p3754
S'Left 1'
p3755
tp3756
a(S'down five'
p3757
S'Down 5'
p3758
tp3759
a(S'then down one time'
p3760
S'Down 1'
p3761
tp3762
a(S'move south one time'
p3763
S'Down 1'
p3764
tp3765
a(S'north'
p3766
S'Up 1'
p3767
tp3768
a(S'go down'
p3769
S'Down 1'
p3770
tp3771
a(S'go up'
p3772
S'Up 1'
p3773
tp3774
a(S'and then three steps up'
p3775
S'Up 3'
p3776
tp3777
a(S'go down once'
p3778
S'Down 1'
p3779
tp3780
a(S'down'
p3781
S'Down 1'
p3782
tp3783
a(S'right one'
p3784
S'Right 1'
p3785
tp3786
a(S'west'
p3787
S'Left 1'
p3788
tp3789
a(S'up one'
p3790
S'Up 1'
p3791
tp3792
a(S'west'
p3793
S'Left 1'
p3794
tp3795
a(S'move west one block'
p3796
S'Left 1'
p3797
tp3798
a(S'then go up'
p3799
S'Up 1'
p3800
tp3801
a(S'turn left , then wait'
p3802
S'Left 1'
p3803
tp3804
a(S'one step down'
p3805
S'Down 1'
p3806
tp3807
a(S'down one'
p3808
S'Down 1'
p3809
tp3810
a(S'up three'
p3811
S'Up 3'
p3812
tp3813
a(S'down'
p3814
S'Down 1'
p3815
tp3816
a(S', left'
p3817
S'Left 1'
p3818
tp3819
a(S'and go down'
p3820
S'Down 1'
p3821
tp3822
a(S'go right'
p3823
S'Right 1'
p3824
tp3825
a(S'then go right'
p3826
S'Right 1'
p3827
tp3828
a(S'go left'
p3829
S'Left 1'
p3830
tp3831
a(S'go left'
p3832
S'Left 1'
p3833
tp3834
a(S'up'
p3835
S'Up 1'
p3836
tp3837
a(S'up 3x'
p3838
S'Up 3'
p3839
tp3840
a(S'take five steps down'
p3841
S'Down 5'
p3842
tp3843
a(S'go west'
p3844
S'Left 1'
p3845
tp3846
a(S'move south five steps'
p3847
S'Down 5'
p3848
tp3849
a(S'right'
p3850
S'Right 1'
p3851
tp3852
a(S'two steps up'
p3853
S'Up 2'
p3854
tp3855
a(S'left five'
p3856
S'Left 5'
p3857
tp3858
a(S'down once'
p3859
S'Down 1'
p3860
tp3861
a(S'move west'
p3862
S'Left 1'
p3863
tp3864
a(S'down'
p3865
S'Down 1'
p3866
tp3867
a(S'and then up'
p3868
S'Up 1'
p3869
tp3870
a(S'then up once'
p3871
S'Up 1'
p3872
tp3873
a(S'down one space'
p3874
S'Down 1'
p3875
tp3876
a(S'go left'
p3877
S'Left 1'
p3878
tp3879
a(S'go down'
p3880
S'Down 1'
p3881
tp3882
a(S'go down'
p3883
S'Down 1'
p3884
tp3885
a(S'go down three'
p3886
S'Down 3'
p3887
tp3888
a(S', go down'
p3889
S'Down 1'
p3890
tp3891
a(S'then go up once'
p3892
S'Up 1'
p3893
tp3894
a(S'go right'
p3895
S'Right 1'
p3896
tp3897
a(S'turn left'
p3898
S'Left 1'
p3899
tp3900
a(S'and west one move'
p3901
S'Left 1'
p3902
tp3903
a(S'and down'
p3904
S'Down 1'
p3905
tp3906
a(S'go down'
p3907
S'Down 1'
p3908
tp3909
a(S', right'
p3910
S'Right 1'
p3911
tp3912
a(S'go down'
p3913
S'Down 1'
p3914
tp3915
a(S'move east four times'
p3916
S'Right 4'
p3917
tp3918
a(S'right'
p3919
S'Right 1'
p3920
tp3921
a(S'right one space'
p3922
S'Right 1'
p3923
tp3924
a(S'up'
p3925
S'Up 1'
p3926
tp3927
a(S'move east one step'
p3928
S'Right 1'
p3929
tp3930
a(S'move east one space'
p3931
S'Right 1'
p3932
tp3933
a(S'go south'
p3934
S'Down 1'
p3935
tp3936
a(S'left'
p3937
S'Left 1'
p3938
tp3939
a(S'move down in a straight line'
p3940
S'Down 1'
p3941
tp3942
a(S'down one step'
p3943
S'Down 1'
p3944
tp3945
a(S'right'
p3946
S'Right 1'
p3947
tp3948
a(S', up'
p3949
S'Up 1'
p3950
tp3951
a(S'then up three squares'
p3952
S'Up 3'
p3953
tp3954
a(S', right'
p3955
S'Right 1'
p3956
tp3957
a(S'west'
p3958
S'Left 1'
p3959
tp3960
a(S'left one'
p3961
S'Left 1'
p3962
tp3963
a(S'turn slight right and stop , facing forward'
p3964
S'Right 1'
p3965
tp3966
a(S'north'
p3967
S'Up 1'
p3968
tp3969
a(S'south one step'
p3970
S'Down 1'
p3971
tp3972
a(S'then down a step'
p3973
S'Down 1'
p3974
tp3975
a(S'go north one'
p3976
S'Up 1'
p3977
tp3978
a(S', go right'
p3979
S'Right 1'
p3980
tp3981
a(S', go straight up'
p3982
S'Up 1'
p3983
tp3984
a(S', up'
p3985
S'Up 1'
p3986
tp3987
a(S'and then to the left'
p3988
S'Left 1'
p3989
tp3990
a(S'go up'
p3991
S'Up 1'
p3992
tp3993
a(S'north'
p3994
S'Up 1'
p3995
tp3996
a(S'go north'
p3997
S'Up 1'
p3998
tp3999
a(S'go south'
p4000
S'Down 1'
p4001
tp4002
a(S'right'
p4003
S'Right 1'
p4004
tp4005
a(S'left'
p4006
S'Left 1'
p4007
tp4008
a(S'then up two steps'
p4009
S'Up 2'
p4010
tp4011
a(S'move down three'
p4012
S'Down 3'
p4013
tp4014
a(S'west'
p4015
S'Left 1'
p4016
tp4017
a(S'go down three times'
p4018
S'Down 3'
p4019
tp4020
a(S'move north'
p4021
S'Up 1'
p4022
tp4023
a(S'down'
p4024
S'Down 1'
p4025
tp4026
a(S'left one'
p4027
S'Left 1'
p4028
tp4029
a(S'north'
p4030
S'Up 1'
p4031
tp4032
a(S'south five'
p4033
S'Down 5'
p4034
tp4035
a(S', go up one time'
p4036
S'Up 1'
p4037
tp4038
a(S'one step down'
p4039
S'Down 1'
p4040
tp4041
a(S'then go left'
p4042
S'Left 1'
p4043
tp4044
a(S'go north'
p4045
S'Up 1'
p4046
tp4047
a(S'down'
p4048
S'Down 1'
p4049
tp4050
a(S'go up twice'
p4051
S'Up 2'
p4052
tp4053
a(S'up two spaces'
p4054
S'Up 2'
p4055
tp4056
a(S'then go up'
p4057
S'Up 1'
p4058
tp4059
a(S'right'
p4060
S'Right 1'
p4061
tp4062
a(S'go left'
p4063
S'Left 1'
p4064
tp4065
a(S'down'
p4066
S'Down 1'
p4067
tp4068
a(S'and four steps to the right'
p4069
S'Right 4'
p4070
tp4071
a(S'left'
p4072
S'Left 1'
p4073
tp4074
a(S'move left'
p4075
S'Left 1'
p4076
tp4077
a(S'left'
p4078
S'Left 1'
p4079
tp4080
a(S'move south'
p4081
S'Down 1'
p4082
tp4083
a(S'left'
p4084
S'Left 1'
p4085
tp4086
a(S'right four'
p4087
S'Right 4'
p4088
tp4089
a(S'then west four times'
p4090
S'Left 4'
p4091
tp4092
a(S', left'
p4093
S'Left 1'
p4094
tp4095
a(S'then go up'
p4096
S'Up 1'
p4097
tp4098
a(S'then left'
p4099
S'Left 1'
p4100
tp4101
a(S'move south five times'
p4102
S'Down 5'
p4103
tp4104
a(S'down'
p4105
S'Down 1'
p4106
tp4107
a(S'down x5'
p4108
S'Down 5'
p4109
tp4110
a(S'then go up two times'
p4111
S'Up 2'
p4112
tp4113
a(S'go down three'
p4114
S'Down 3'
p4115
tp4116
a(S', left'
p4117
S'Left 1'
p4118
tp4119
a(S'left'
p4120
S'Left 1'
p4121
tp4122
a(S'left'
p4123
S'Left 1'
p4124
tp4125
a(S'then right'
p4126
S'Right 1'
p4127
tp4128
a(S', go east'
p4129
S'Right 1'
p4130
tp4131
a(S'left'
p4132
S'Left 1'
p4133
tp4134
a(S'go left'
p4135
S'Left 1'
p4136
tp4137
a(S'right'
p4138
S'Right 1'
p4139
tp4140
a(S', then west'
p4141
S'Left 1'
p4142
tp4143
a(S'go south three spaces'
p4144
S'Down 3'
p4145
tp4146
a(S'move one step on right'
p4147
S'Right 1'
p4148
tp4149
a(S'move down three steps'
p4150
S'Down 3'
p4151
tp4152
a(S'go south'
p4153
S'Down 1'
p4154
tp4155
a(S'move up three'
p4156
S'Up 3'
p4157
tp4158
a(S'up'
p4159
S'Up 1'
p4160
tp4161
a(S', one step north'
p4162
S'Up 1'
p4163
tp4164
a(S'move right four spaces'
p4165
S'Right 4'
p4166
tp4167
a(S'move west five times'
p4168
S'Left 5'
p4169
tp4170
a(S'left four spots'
p4171
S'Left 4'
p4172
tp4173
a(S'south'
p4174
S'Down 1'
p4175
tp4176
a(S'down'
p4177
S'Down 1'
p4178
tp4179
a(S'down'
p4180
S'Down 1'
p4181
tp4182
a(S'down'
p4183
S'Down 1'
p4184
tp4185
a(S'right'
p4186
S'Right 1'
p4187
tp4188
a(S', left one'
p4189
S'Left 1'
p4190
tp4191
a(S'up'
p4192
S'Up 1'
p4193
tp4194
a(S'go up two times'
p4195
S'Up 2'
p4196
tp4197
a(S', north'
p4198
S'Up 1'
p4199
tp4200
a(S'go right'
p4201
S'Right 1'
p4202
tp4203
a(S'move down three times'
p4204
S'Down 3'
p4205
tp4206
a(S'go right'
p4207
S'Right 1'
p4208
tp4209
a(S'go right'
p4210
S'Right 1'
p4211
tp4212
a(S'move left five spaces'
p4213
S'Left 5'
p4214
tp4215
a(S'then go up'
p4216
S'Up 1'
p4217
tp4218
a(S'right one'
p4219
S'Right 1'
p4220
tp4221
a(S'go down'
p4222
S'Down 1'
p4223
tp4224
a(S'south one step'
p4225
S'Down 1'
p4226
tp4227
a(S'up'
p4228
S'Up 1'
p4229
tp4230
a(S', south'
p4231
S'Down 1'
p4232
tp4233
a(S'go left'
p4234
S'Left 1'
p4235
tp4236
a(S'right'
p4237
S'Right 1'
p4238
tp4239
a(S'down'
p4240
S'Down 1'
p4241
tp4242
a(S'down'
p4243
S'Down 1'
p4244
tp4245
a(S'go down'
p4246
S'Down 1'
p4247
tp4248
a(S'down'
p4249
S'Down 1'
p4250
tp4251
a(S'up one'
p4252
S'Up 1'
p4253
tp4254
a(S'left one space'
p4255
S'Left 1'
p4256
tp4257
a(S'go north for one space'
p4258
S'Up 1'
p4259
tp4260
a(S'up three'
p4261
S'Up 3'
p4262
tp4263
a(S'and move left'
p4264
S'Left 1'
p4265
tp4266
a(S'then left two steps'
p4267
S'Left 2'
p4268
tp4269
a(S'go up'
p4270
S'Up 1'
p4271
tp4272
a(S'go right'
p4273
S'Right 1'
p4274
tp4275
a(S'move down'
p4276
S'Down 1'
p4277
tp4278
a(S'then move left'
p4279
S'Left 1'
p4280
tp4281
a(S'go right'
p4282
S'Right 1'
p4283
tp4284
a(S'east one step'
p4285
S'Right 1'
p4286
tp4287
a(S'down one'
p4288
S'Down 1'
p4289
tp4290
a(S', north'
p4291
S'Up 1'
p4292
tp4293
a(S'left'
p4294
S'Left 1'
p4295
tp4296
a(S'right'
p4297
S'Right 1'
p4298
tp4299
a(S', move south one time'
p4300
S'Down 1'
p4301
tp4302
a(S'one down'
p4303
S'Down 1'
p4304
tp4305
a(S'go north'
p4306
S'Up 1'
p4307
tp4308
a(S'and down'
p4309
S'Down 1'
p4310
tp4311
a(S'west five units'
p4312
S'Left 5'
p4313
tp4314
a(S'right one'
p4315
S'Right 1'
p4316
tp4317
a(S', go up two times'
p4318
S'Up 2'
p4319
tp4320
a(S'one down'
p4321
S'Down 1'
p4322
tp4323
a(S'right four steps'
p4324
S'Right 4'
p4325
tp4326
a(S'go left'
p4327
S'Left 1'
p4328
tp4329
a(S'move south once'
p4330
S'Down 1'
p4331
tp4332
a(S', left'
p4333
S'Left 1'
p4334
tp4335
a(S'then left'
p4336
S'Left 1'
p4337
tp4338
a(S'up'
p4339
S'Up 1'
p4340
tp4341
a(S'go south'
p4342
S'Down 1'
p4343
tp4344
a(S'five steps to the left'
p4345
S'Left 5'
p4346
tp4347
a(S'east one step'
p4348
S'Right 1'
p4349
tp4350
a(S'go right'
p4351
S'Right 1'
p4352
tp4353
a(S'then turn right'
p4354
S'Right 1'
p4355
tp4356
a(S'go down five'
p4357
S'Down 5'
p4358
tp4359
a(S'down'
p4360
S'Down 1'
p4361
tp4362
a(S'then go west one pace'
p4363
S'Left 1'
p4364
tp4365
a(S'one step up'
p4366
S'Up 1'
p4367
tp4368
a(S'go left'
p4369
S'Left 1'
p4370
tp4371
a(S'go down three steps'
p4372
S'Down 3'
p4373
tp4374
a(S'down'
p4375
S'Down 1'
p4376
tp4377
a(S'move south five steps'
p4378
S'Down 5'
p4379
tp4380
a(S', down'
p4381
S'Down 1'
p4382
tp4383
a(S'right four'
p4384
S'Right 4'
p4385
tp4386
a(S'then right'
p4387
S'Right 1'
p4388
tp4389
a(S'go right'
p4390
S'Right 1'
p4391
tp4392
a(S'then move south one time'
p4393
S'Down 1'
p4394
tp4395
a(S'then go left five times'
p4396
S'Left 5'
p4397
tp4398
a(S', move east four units'
p4399
S'Right 4'
p4400
tp4401
a(S', north'
p4402
S'Up 1'
p4403
tp4404
a(S'go south'
p4405
S'Down 1'
p4406
tp4407
a(S'down'
p4408
S'Down 1'
p4409
tp4410
a(S'and lastly go up twice'
p4411
S'Up 2'
p4412
tp4413
a(S'go down three times'
p4414
S'Down 3'
p4415
tp4416
a(S'and then go north'
p4417
S'Up 1'
p4418
tp4419
a(S'right'
p4420
S'Right 1'
p4421
tp4422
a(S'up two'
p4423
S'Up 2'
p4424
tp4425
a(S', right'
p4426
S'Right 1'
p4427
tp4428
a(S'go right'
p4429
S'Right 1'
p4430
tp4431
a(S'down'
p4432
S'Down 1'
p4433
tp4434
a(S'left'
p4435
S'Left 1'
p4436
tp4437
a(S'down'
p4438
S'Down 1'
p4439
tp4440
a(S'go down'
p4441
S'Down 1'
p4442
tp4443
a(S'go right'
p4444
S'Right 1'
p4445
tp4446
a(S'then up'
p4447
S'Up 1'
p4448
tp4449
a(S'move east one spot'
p4450
S'Right 1'
p4451
tp4452
a(S', down'
p4453
S'Down 1'
p4454
tp4455
a(S'head down'
p4456
S'Down 1'
p4457
tp4458
a(S'then up'
p4459
S'Up 1'
p4460
tp4461
a(S'up two'
p4462
S'Up 2'
p4463
tp4464
a(S'move up two'
p4465
S'Up 2'
p4466
tp4467
a(S'up'
p4468
S'Up 1'
p4469
tp4470
a(S'left'
p4471
S'Left 1'
p4472
tp4473
a(S'go up'
p4474
S'Up 1'
p4475
tp4476
a(S'go left'
p4477
S'Left 1'
p4478
tp4479
a(S'then go up behind the chair'
p4480
S'Up 1'
p4481
tp4482
a(S'right four'
p4483
S'Right 4'
p4484
tp4485
a(S', south'
p4486
S'Down 1'
p4487
tp4488
a(S'go down five spaces'
p4489
S'Down 5'
p4490
tp4491
a(S'then north'
p4492
S'Up 1'
p4493
tp4494
a(S'then go down'
p4495
S'Down 1'
p4496
tp4497
a(S'left'
p4498
S'Left 1'
p4499
tp4500
a(S'down'
p4501
S'Down 1'
p4502
tp4503
a(S', up'
p4504
S'Up 1'
p4505
tp4506
a(S'go south'
p4507
S'Down 1'
p4508
tp4509
a(S'then west'
p4510
S'Left 1'
p4511
tp4512
a(S'take one step south from your current point'
p4513
S'Down 1'
p4514
tp4515
a(S'down one'
p4516
S'Down 1'
p4517
tp4518
a(S'move down five spaces'
p4519
S'Down 5'
p4520
tp4521
a(S'left'
p4522
S'Left 1'
p4523
tp4524
a(S'move north three steps'
p4525
S'Up 3'
p4526
tp4527
a(S'east'
p4528
S'Right 1'
p4529
tp4530
a(S'turn left and move forward one space'
p4531
S'Left 1'
p4532
tp4533
a(S'up'
p4534
S'Up 1'
p4535
tp4536
a(S'right one'
p4537
S'Right 1'
p4538
tp4539
a(S'down'
p4540
S'Down 1'
p4541
tp4542
a(S'down'
p4543
S'Down 1'
p4544
tp4545
a(S', turn right'
p4546
S'Right 1'
p4547
tp4548
a(S'go down three spaces'
p4549
S'Down 3'
p4550
tp4551
a(S'up'
p4552
S'Up 1'
p4553
tp4554
a(S'five left'
p4555
S'Left 5'
p4556
tp4557
a(S', left two'
p4558
S'Left 2'
p4559
tp4560
a(S'then south'
p4561
S'Down 1'
p4562
tp4563
a(S'then right'
p4564
S'Right 1'
p4565
tp4566
a(S'go east push the chair'
p4567
S'Right 1'
p4568
tp4569
a(S'up'
p4570
S'Up 1'
p4571
tp4572
a(S'south'
p4573
S'Down 1'
p4574
tp4575
a(S'right'
p4576
S'Right 1'
p4577
tp4578
a(S'move down once'
p4579
S'Down 1'
p4580
tp4581
a(S'right'
p4582
S'Right 1'
p4583
tp4584
a(S'up'
p4585
S'Up 1'
p4586
tp4587
a(S'right'
p4588
S'Right 1'
p4589
tp4590
a(S'go down'
p4591
S'Down 1'
p4592
tp4593
a(S'go down'
p4594
S'Down 1'
p4595
tp4596
a(S'left five spaces'
p4597
S'Left 5'
p4598
tp4599
a(S'go south'
p4600
S'Down 1'
p4601
tp4602
a(S'go down five spaces'
p4603
S'Down 5'
p4604
tp4605
a(S'go south three moves'
p4606
S'Down 3'
p4607
tp4608
a(S'move north one time'
p4609
S'Up 1'
p4610
tp4611
a(S'left'
p4612
S'Left 1'
p4613
tp4614
a(S'down once'
p4615
S'Down 1'
p4616
tp4617
a(S'up'
p4618
S'Up 1'
p4619
tp4620
a(S'turn right'
p4621
S'Right 1'
p4622
tp4623
a(S'left'
p4624
S'Left 1'
p4625
tp4626
a(S'down'
p4627
S'Down 1'
p4628
tp4629
a(S'down'
p4630
S'Down 1'
p4631
tp4632
a(S'and north two moves'
p4633
S'Up 2'
p4634
tp4635
a(S'go north'
p4636
S'Up 1'
p4637
tp4638
a(S'go west'
p4639
S'Left 1'
p4640
tp4641
a(S', down'
p4642
S'Down 1'
p4643
tp4644
a(S'right'
p4645
S'Right 1'
p4646
tp4647
a(S'go right'
p4648
S'Right 1'
p4649
tp4650
a(S'move north three times'
p4651
S'Up 3'
p4652
tp4653
a(S'three steps up'
p4654
S'Up 3'
p4655
tp4656
a(S'west'
p4657
S'Left 1'
p4658
tp4659
a(S'then right'
p4660
S'Right 1'
p4661
tp4662
a(S'and then north'
p4663
S'Up 1'
p4664
tp4665
a(S', up'
p4666
S'Up 1'
p4667
tp4668
a(S'go down three spaces'
p4669
S'Down 3'
p4670
tp4671
a(S'up three spaces'
p4672
S'Up 3'
p4673
tp4674
a(S'up'
p4675
S'Up 1'
p4676
tp4677
a(S'step right'
p4678
S'Right 1'
p4679
tp4680
a(S'go up one'
p4681
S'Up 1'
p4682
tp4683
a(S'and left'
p4684
S'Left 1'
p4685
tp4686
a(S'down'
p4687
S'Down 1'
p4688
tp4689
a(S'go take three steps down'
p4690
S'Down 3'
p4691
tp4692
a(S'and up three steps'
p4693
S'Up 3'
p4694
tp4695
a(S', left'
p4696
S'Left 1'
p4697
tp4698
a(S'move west five steps'
p4699
S'Left 5'
p4700
tp4701
a(S'up'
p4702
S'Up 1'
p4703
tp4704
a(S'go left'
p4705
S'Left 1'
p4706
tp4707
a(S'move south three spaces'
p4708
S'Down 3'
p4709
tp4710
a(S'and one step to the left'
p4711
S'Left 1'
p4712
tp4713
a(S'up'
p4714
S'Up 1'
p4715
tp4716
a(S'then go left'
p4717
S'Left 1'
p4718
tp4719
a(S'move south one unit'
p4720
S'Down 1'
p4721
tp4722
a(S'go five steps down'
p4723
S'Down 5'
p4724
tp4725
a(S'west'
p4726
S'Left 1'
p4727
tp4728
a(S'and move two steps up'
p4729
S'Up 2'
p4730
tp4731
a(S'down one'
p4732
S'Down 1'
p4733
tp4734
a(S'then down'
p4735
S'Down 1'
p4736
tp4737
a(S'and go north for two spaces'
p4738
S'Up 2'
p4739
tp4740
a(S'left'
p4741
S'Left 1'
p4742
tp4743
a(S'up three'
p4744
S'Up 3'
p4745
tp4746
a(S'go up'
p4747
S'Up 1'
p4748
tp4749
a(S'right'
p4750
S'Right 1'
p4751
tp4752
a(S'then move down one time'
p4753
S'Down 1'
p4754
tp4755
a(S'south'
p4756
S'Down 1'
p4757
tp4758
a(S'go down three steps'
p4759
S'Down 3'
p4760
tp4761
a(S'down'
p4762
S'Down 1'
p4763
tp4764
a(S'right one space'
p4765
S'Right 1'
p4766
tp4767
a(S'go up'
p4768
S'Up 1'
p4769
tp4770
a(S'go down five spaces'
p4771
S'Down 5'
p4772
tp4773
a(S', west'
p4774
S'Left 1'
p4775
tp4776
a(S', up'
p4777
S'Up 1'
p4778
tp4779
a(S', up'
p4780
S'Up 1'
p4781
tp4782
a(S'go east for four steps'
p4783
S'Right 4'
p4784
tp4785
a(S'then up three times'
p4786
S'Up 3'
p4787
tp4788
a(S'then left four times'
p4789
S'Left 4'
p4790
tp4791
a(S'and four times to the right'
p4792
S'Right 4'
p4793
tp4794
a(S'move down'
p4795
S'Down 1'
p4796
tp4797
a(S', go up three times'
p4798
S'Up 3'
p4799
tp4800
a(S'down'
p4801
S'Down 1'
p4802
tp4803
a(S'then down one time'
p4804
S'Down 1'
p4805
tp4806
a(S'then left'
p4807
S'Left 1'
p4808
tp4809
a(S'left'
p4810
S'Left 1'
p4811
tp4812
a(S'down'
p4813
S'Down 1'
p4814
tp4815
a(S'move south'
p4816
S'Down 1'
p4817
tp4818
a(S', down'
p4819
S'Down 1'
p4820
tp4821
a(S'left'
p4822
S'Left 1'
p4823
tp4824
a(S'then move west five steps'
p4825
S'Left 5'
p4826
tp4827
a(S'go down five steps'
p4828
S'Down 5'
p4829
tp4830
a(S'down'
p4831
S'Down 1'
p4832
tp4833
a(S'left'
p4834
S'Left 1'
p4835
tp4836
a(S'move left four'
p4837
S'Left 4'
p4838
tp4839
a(S'down one'
p4840
S'Down 1'
p4841
tp4842
a(S'up'
p4843
S'Up 1'
p4844
tp4845
a(S'go south'
p4846
S'Down 1'
p4847
tp4848
a(S'travel west'
p4849
S'Left 1'
p4850
tp4851
a(S'down'
p4852
S'Down 1'
p4853
tp4854
a(S'then move south one step'
p4855
S'Down 1'
p4856
tp4857
a(S'go left'
p4858
S'Left 1'
p4859
tp4860
a(S'then down one step'
p4861
S'Down 1'
p4862
tp4863
a(S'left five spaces'
p4864
S'Left 5'
p4865
tp4866
a(S'go down'
p4867
S'Down 1'
p4868
tp4869
a(S'up'
p4870
S'Up 1'
p4871
tp4872
a(S'go west'
p4873
S'Left 1'
p4874
tp4875
a(S'go down'
p4876
S'Down 1'
p4877
tp4878
a(S'down'
p4879
S'Down 1'
p4880
tp4881
a(S'down'
p4882
S'Down 1'
p4883
tp4884
a(S'move west one time'
p4885
S'Left 1'
p4886
tp4887
a(S', down once'
p4888
S'Down 1'
p4889
tp4890
a(S'turn to your left'
p4891
S'Left 1'
p4892
tp4893
a(S'and finally up twice'
p4894
S'Up 2'
p4895
tp4896
a(S'west four times'
p4897
S'Left 4'
p4898
tp4899
a(S'go down three steps'
p4900
S'Down 3'
p4901
tp4902
a(S'then east'
p4903
S'Right 1'
p4904
tp4905
a(S'down'
p4906
S'Down 1'
p4907
tp4908
a(S'then go left'
p4909
S'Left 1'
p4910
tp4911
a(S'left five'
p4912
S'Left 5'
p4913
tp4914
a(S'down five'
p4915
S'Down 5'
p4916
tp4917
a(S'down another space'
p4918
S'Down 1'
p4919
tp4920
a(S'go south'
p4921
S'Down 1'
p4922
tp4923
a(S'up'
p4924
S'Up 1'
p4925
tp4926
a(S', and three steps north'
p4927
S'Up 3'
p4928
tp4929
a(S'down'
p4930
S'Down 1'
p4931
tp4932
a(S'go down'
p4933
S'Down 1'
p4934
tp4935
a(S'left'
p4936
S'Left 1'
p4937
tp4938
a(S'and north again'
p4939
S'Up 1'
p4940
tp4941
a(S'go south'
p4942
S'Down 1'
p4943
tp4944
a(S'move north two spaces'
p4945
S'Up 2'
p4946
tp4947
a(S'go down'
p4948
S'Down 1'
p4949
tp4950
a(S'make a ninety degree turn to your left'
p4951
S'Left 1'
p4952
tp4953
a(S'down one space'
p4954
S'Down 1'
p4955
tp4956
a(S'move east four steps'
p4957
S'Right 4'
p4958
tp4959
a(S'and then north'
p4960
S'Up 1'
p4961
tp4962
a(S'move south'
p4963
S'Down 1'
p4964
tp4965
a(S'north two'
p4966
S'Up 2'
p4967
tp4968
a(S'west four'
p4969
S'Left 4'
p4970
tp4971
a(S'move up and wait'
p4972
S'Up 1'
p4973
tp4974
a(S'go left'
p4975
S'Left 1'
p4976
tp4977
a(S'up three'
p4978
S'Up 3'
p4979
tp4980
a(S', left'
p4981
S'Left 1'
p4982
tp4983
a(S', down'
p4984
S'Down 1'
p4985
tp4986
a(S'down'
p4987
S'Down 1'
p4988
tp4989
a(S'down one space'
p4990
S'Down 1'
p4991
tp4992
a(S'go down'
p4993
S'Down 1'
p4994
tp4995
a(S'then down one'
p4996
S'Down 1'
p4997
tp4998
a(S'south one space'
p4999
S'Down 1'
p5000
tp5001
a(S'then left'
p5002
S'Left 1'
p5003
tp5004
a(S', go right one time'
p5005
S'Right 1'
p5006
tp5007
a(S'south'
p5008
S'Down 1'
p5009
tp5010
a(S'move south one'
p5011
S'Down 1'
p5012
tp5013
a(S'then right'
p5014
S'Right 1'
p5015
tp5016
a(S'then west'
p5017
S'Left 1'
p5018
tp5019
a(S'up one'
p5020
S'Up 1'
p5021
tp5022
a(S'then left'
p5023
S'Left 1'
p5024
tp5025
a(S'down'
p5026
S'Down 1'
p5027
tp5028
a(S'then west'
p5029
S'Right 1'
p5030
tp5031
a(S', south'
p5032
S'Down 1'
p5033
tp5034
a(S'move down three'
p5035
S'Down 3'
p5036
tp5037
a(S'left'
p5038
S'Left 1'
p5039
tp5040
a(S'go three step down'
p5041
S'Down 3'
p5042
tp5043
a(S'go right'
p5044
S'Right 1'
p5045
tp5046
a(S'move slightly to the west'
p5047
S'Left 1'
p5048
tp5049
a(S'go down three'
p5050
S'Down 3'
p5051
tp5052
a(S'down'
p5053
S'Down 1'
p5054
tp5055
a(S'then go up three times'
p5056
S'Up 3'
p5057
tp5058
a(S', and two steps north'
p5059
S'Up 2'
p5060
tp5061
a(S'up one'
p5062
S'Up 1'
p5063
tp5064
a(S'go left once'
p5065
S'Left 1'
p5066
tp5067
a(S'then move north three steps'
p5068
S'Up 3'
p5069
tp5070
a(S'west four'
p5071
S'Left 4'
p5072
tp5073
a(S'go up two steps'
p5074
S'Up 2'
p5075
tp5076
a(S'turn left and move forward one step'
p5077
S'Left 1'
p5078
tp5079
a(S'south'
p5080
S'Up 1'
p5081
tp5082
a(S', go down one time'
p5083
S'Down 1'
p5084
tp5085
a(S'and north three moves'
p5086
S'Up 3'
p5087
tp5088
a(S'grab chair go right'
p5089
S'Right 1'
p5090
tp5091
a(S'east'
p5092
S'Right 1'
p5093
tp5094
a(S'up one space'
p5095
S'Up 1'
p5096
tp5097
a(S'go down'
p5098
S'Down 1'
p5099
tp5100
a(S'left'
p5101
S'Left 1'
p5102
tp5103
a(S'then left'
p5104
S'Left 1'
p5105
tp5106
a(S'up'
p5107
S'Up 1'
p5108
tp5109
a(S', go right'
p5110
S'Right 1'
p5111
tp5112
a(S'go down'
p5113
S'Down 1'
p5114
tp5115
a(S'move east four'
p5116
S'Right 4'
p5117
tp5118
a(S'go down one step'
p5119
S'Down 1'
p5120
tp5121
a(S'go left'
p5122
S'Left 1'
p5123
tp5124
a(S'up'
p5125
S'Up 1'
p5126
tp5127
a(S'left'
p5128
S'Left 1'
p5129
tp5130
a(S', down once'
p5131
S'Down 1'
p5132
tp5133
a(S'up one space'
p5134
S'Up 1'
p5135
tp5136
a(S'go down three steps'
p5137
S'Down 3'
p5138
tp5139
a(S'go west for five spaces'
p5140
S'Left 5'
p5141
tp5142
a(S'west'
p5143
S'Left 1'
p5144
tp5145
a(S'down'
p5146
S'Down 1'
p5147
tp5148
a(S'up'
p5149
S'Up 1'
p5150
tp5151
a(S'and then left'
p5152
S'Left 1'
p5153
tp5154
a(S'south'
p5155
S'Down 1'
p5156
tp5157
a(S'east'
p5158
S'Right 1'
p5159
tp5160
a(S'then move south one step'
p5161
S'Down 1'
p5162
tp5163
a(S'go left five times'
p5164
S'Left 5'
p5165
tp5166
a(S'right one'
p5167
S'Right 1'
p5168
tp5169
a(S'right'
p5170
S'Right 1'
p5171
tp5172
a(S'one step down'
p5173
S'Down 1'
p5174
tp5175
a(S'up one step'
p5176
S'Up 1'
p5177
tp5178
a(S', one step south'
p5179
S'Down 1'
p5180
tp5181
a(S'then right immediately'
p5182
S'Right 1'
p5183
tp5184
a(S'left'
p5185
S'Left 1'
p5186
tp5187
a(S'then go east four paces'
p5188
S'Right 4'
p5189
tp5190
a(S'left one'
p5191
S'Left 1'
p5192
tp5193
a(S'go right'
p5194
S'Right 1'
p5195
tp5196
a(S'north'
p5197
S'Up 1'
p5198
tp5199
a(S'go west'
p5200
S'Left 1'
p5201
tp5202
a(S', right'
p5203
S'Right 1'
p5204
tp5205
a(S'four steps right'
p5206
S'Right 4'
p5207
tp5208
a(S'get chair move east'
p5209
S'Left 1'
p5210
tp5211
a(S', go up'
p5212
S'Right 1'
p5213
tp5214
a(S', south'
p5215
S'Down 1'
p5216
tp5217
a(S'go down'
p5218
S'Down 1'
p5219
tp5220
a(S'down'
p5221
S'Down 1'
p5222
tp5223
a(S'up'
p5224
S'Up 1'
p5225
tp5226
a(S'south'
p5227
S'Down 1'
p5228
tp5229
a(S'move south three spaces'
p5230
S'Down 3'
p5231
tp5232
a(S'go up two steps'
p5233
S'Up 2'
p5234
tp5235
a(S'then up'
p5236
S'Up 1'
p5237
tp5238
a(S'and up'
p5239
S'Up 1'
p5240
tp5241
a(S'left'
p5242
S'Left 1'
p5243
tp5244
a(S'please go down'
p5245
S'Down 3'
p5246
tp5247
a(S'and then up'
p5248
S'Up 1'
p5249
tp5250
a(S'go left'
p5251
S'Left 1'
p5252
tp5253
a(S'go down'
p5254
S'Down 1'
p5255
tp5256
a(S'then north'
p5257
S'Up 1'
p5258
tp5259
a(S'go left four times'
p5260
S'Left 4'
p5261
tp5262
a(S'go down five times'
p5263
S'Down 5'
p5264
tp5265
a(S'right'
p5266
S'Right 1'
p5267
tp5268
a(S'go down'
p5269
S'Down 1'
p5270
tp5271
a(S'left four spots'
p5272
S'Left 4'
p5273
tp5274
a(S'go down'
p5275
S'Down 1'
p5276
tp5277
a(S'move up three'
p5278
S'Up 3'
p5279
tp5280
a(S'north'
p5281
S'Up 1'
p5282
tp5283
a(S'down'
p5284
S'Down 1'
p5285
tp5286
a(S'go right'
p5287
S'Right 1'
p5288
tp5289
a(S'north stop'
p5290
S'Up 1'
p5291
tp5292
a(S'move west'
p5293
S'Left 1'
p5294
tp5295
a(S'then go down'
p5296
S'Down 1'
p5297
tp5298
a(S'then move left one time'
p5299
S'Left 1'
p5300
tp5301
a(S', left'
p5302
S'Left 1'
p5303
tp5304
a(S'down'
p5305
S'Down 1'
p5306
tp5307
a(S'go down'
p5308
S'Down 1'
p5309
tp5310
a(S'go up'
p5311
S'Up 1'
p5312
tp5313
a(S', left'
p5314
S'Left 1'
p5315
tp5316
a(S'then go west'
p5317
S'Left 1'
p5318
tp5319
a(S'left'
p5320
S'Left 1'
p5321
tp5322
a(S'up'
p5323
S'Up 1'
p5324
tp5325
a(S'west'
p5326
S'Left 1'
p5327
tp5328
a(S'right'
p5329
S'Right 1'
p5330
tp5331
a(S'up'
p5332
S'Up 1'
p5333
tp5334
a(S'left'
p5335
S'Left 1'
p5336
tp5337
a(S'up'
p5338
S'Up 1'
p5339
tp5340
a(S'west'
p5341
S'Left 1'
p5342
tp5343
a(S'go north'
p5344
S'Up 1'
p5345
tp5346
a(S'move down'
p5347
S'Down 1'
p5348
tp5349
a(S', go right'
p5350
S'Right 1'
p5351
tp5352
a(S'down once'
p5353
S'Down 1'
p5354
tp5355
a(S'left'
p5356
S'Left 1'
p5357
tp5358
a(S'move down five spaces'
p5359
S'Down 5'
p5360
tp5361
a(S'down two'
p5362
S'Down 1'
p5363
tp5364
a(S'then go right again'
p5365
S'Right 1'
p5366
tp5367
a(S'go up'
p5368
S'Up 1'
p5369
tp5370
a(S'then go right'
p5371
S'Right 1'
p5372
tp5373
a(S'one move left'
p5374
S'Left 1'
p5375
tp5376
a(S'down'
p5377
S'Down 1'
p5378
tp5379
a(S'then up'
p5380
S'Up 1'
p5381
tp5382
a(S'go back down'
p5383
S'Down 1'
p5384
tp5385
a(S', and down'
p5386
S'Down 1'
p5387
tp5388
a(S'then go east'
p5389
S'Right 1'
p5390
tp5391
a(S'turn to your right'
p5392
S'Right 1'
p5393
tp5394
a(S'go down'
p5395
S'Down 1'
p5396
tp5397
a(S'down'
p5398
S'Down 1'
p5399
tp5400
a(S'left four steps'
p5401
S'Left 4'
p5402
tp5403
a(S'down'
p5404
S'Down 1'
p5405
tp5406
a(S'go right'
p5407
S'Right 1'
p5408
tp5409
a(S'left'
p5410
S'Left 1'
p5411
tp5412
a(S'go west'
p5413
S'Left 1'
p5414
tp5415
a(S'down'
p5416
S'Down 1'
p5417
tp5418
a(S'west'
p5419
S'Left 1'
p5420
tp5421
a(S'up'
p5422
S'Up 1'
p5423
tp5424
a(S'up three spaces'
p5425
S'Up 3'
p5426
tp5427
a(S'right four'
p5428
S'Right 4'
p5429
tp5430
a(S'with the chair take one step down'
p5431
S'Down 1'
p5432
tp5433
a(S'right'
p5434
S'Right 1'
p5435
tp5436
a(S', left'
p5437
S'Left 1'
p5438
tp5439
a(S'go south three spaces'
p5440
S'Down 3'
p5441
tp5442
a(S'left'
p5443
S'Left 1'
p5444
tp5445
a(S'and north two steps'
p5446
S'Up 2'
p5447
tp5448
a(S'then move left one time'
p5449
S'Left 1'
p5450
tp5451
a(S', go north'
p5452
S'Up 1'
p5453
tp5454
a(S'another step south'
p5455
S'Down 1'
p5456
tp5457
a(S'and up two'
p5458
S'Up 2'
p5459
tp5460
a(S'. move west four spaces'
p5461
S'Left 4'
p5462
tp5463
a(S'then move left two times'
p5464
S'Left 2'
p5465
tp5466
a(S'then move north one step'
p5467
S'Up 1'
p5468
tp5469
a(S'go right'
p5470
S'Right 1'
p5471
tp5472
a(S'go down'
p5473
S'Down 1'
p5474
tp5475
a(S'up'
p5476
S'Up 1'
p5477
tp5478
a(S'and then to the left'
p5479
S'Left 1'
p5480
tp5481
a(S'go south five'
p5482
S'Down 5'
p5483
tp5484
a(S'down'
p5485
S'Down 1'
p5486
tp5487
a(S'up'
p5488
S'Up 1'
p5489
tp5490
a(S'down'
p5491
S'Down 1'
p5492
tp5493
a(S'north'
p5494
S'Up 1'
p5495
tp5496
a(S'left'
p5497
S'Left 1'
p5498
tp5499
a(S'go left'
p5500
S'Left 1'
p5501
tp5502
a(S'down'
p5503
S'Down 1'
p5504
tp5505
a(S'down'
p5506
S'Down 1'
p5507
tp5508
a(S'left'
p5509
S'Left 1'
p5510
tp5511
a(S'left'
p5512
S'Left 1'
p5513
tp5514
a(S'north one'
p5515
S'Up 1'
p5516
tp5517
a(S'then down'
p5518
S'Down 1'
p5519
tp5520
a(S'go south three steps'
p5521
S'Down 3'
p5522
tp5523
a(S'move one spot to the right'
p5524
S'Right 1'
p5525
tp5526
a(S'down'
p5527
S'Down 1'
p5528
tp5529
a(S'down'
p5530
S'Down 1'
p5531
tp5532
a(S'west five'
p5533
S'Left 5'
p5534
tp5535
a(S'down three'
p5536
S'Down 3'
p5537
tp5538
a(S'left one'
p5539
S'Left 1'
p5540
tp5541
a(S'up'
p5542
S'Up 1'
p5543
tp5544
a(S'left'
p5545
S'Left 1'
p5546
tp5547
a(S'go left five times'
p5548
S'Left 5'
p5549
tp5550
a(S'right'
p5551
S'Right 1'
p5552
tp5553
a(S'up'
p5554
S'Up 1'
p5555
tp5556
a(S'move south'
p5557
S'Down 1'
p5558
tp5559
a(S'left one'
p5560
S'Left 1'
p5561
tp5562
a(S'move west four times'
p5563
S'Left 4'
p5564
tp5565
a(S'then go down'
p5566
S'Down 1'
p5567
tp5568
a(S'down one step'
p5569
S'Down 1'
p5570
tp5571
a(S'down one'
p5572
S'Down 1'
p5573
tp5574
a(S', right'
p5575
S'Right 1'
p5576
tp5577
a(S'down'
p5578
S'Down 1'
p5579
tp5580
a(S'up'
p5581
S'Up 1'
p5582
tp5583
a(S'north three'
p5584
S'Up 3'
p5585
tp5586
a(S'go south'
p5587
S'Down 1'
p5588
tp5589
a(S'down'
p5590
S'Down 1'
p5591
tp5592
a(S'down'
p5593
S'Down 1'
p5594
tp5595
a(S'up'
p5596
S'Up 1'
p5597
tp5598
a(S'move south one space'
p5599
S'Down 1'
p5600
tp5601
a(S', right'
p5602
S'Right 1'
p5603
tp5604
a(S'move five steps down'
p5605
S'Down 5'
p5606
tp5607
a(S'then go south one pace'
p5608
S'Down 1'
p5609
tp5610
a(S'up two'
p5611
S'Up 2'
p5612
tp5613
a(S'move one space to the west'
p5614
S'Left 1'
p5615
tp5616
a(S'right'
p5617
S'Right 1'
p5618
tp5619
a(S'move east one step'
p5620
S'Right 1'
p5621
tp5622
a(S'north one step'
p5623
S'Up 1'
p5624
tp5625
a(S'right'
p5626
S'Right 1'
p5627
tp5628
a(S'go south'
p5629
S'Down 1'
p5630
tp5631
a(S'go to the left one spot'
p5632
S'Left 1'
p5633
tp5634
a(S'then up'
p5635
S'Up 1'
p5636
tp5637
a(S'go down five steps'
p5638
S'Down 5'
p5639
tp5640
a(S'go up'
p5641
S'Up 1'
p5642
tp5643
a(S'down one'
p5644
S'Down 1'
p5645
tp5646
a(S'go down'
p5647
S'Down 1'
p5648
tp5649
a(S'go west one square'
p5650
S'Left 1'
p5651
tp5652
a(S'right'
p5653
S'Right 1'
p5654
tp5655
a(S'take three steps south'
p5656
S'Down 3'
p5657
tp5658
a(S'face left'
p5659
S'Left 1'
p5660
tp5661
a(S'go down'
p5662
S'Down 1'
p5663
tp5664
a(S'go up'
p5665
S'Up 1'
p5666
tp5667
a(S', right'
p5668
S'Right 1'
p5669
tp5670
a(S'up'
p5671
S'Up 1'
p5672
tp5673
a(S'and then left'
p5674
S'Left 1'
p5675
tp5676
a(S', north'
p5677
S'Up 1'
p5678
tp5679
a(S'move east four times'
p5680
S'Right 4'
p5681
tp5682
a(S'go up'
p5683
S'Up 1'
p5684
tp5685
a(S'then up'
p5686
S'Up 1'
p5687
tp5688
a(S'left'
p5689
S'Left 1'
p5690
tp5691
a(S'go down'
p5692
S'Down 1'
p5693
tp5694
a(S'go south three paces'
p5695
S'Down 3'
p5696
tp5697
a(S'down'
p5698
S'Down 1'
p5699
tp5700
a(S'left once'
p5701
S'Left 1'
p5702
tp5703
a(S'right'
p5704
S'Right 1'
p5705
tp5706
a(S'left'
p5707
S'Left 1'
p5708
tp5709
a(S'go down'
p5710
S'Down 1'
p5711
tp5712
a(S'right'
p5713
S'Right 1'
p5714
tp5715
a(S'four steps east'
p5716
S'Right 4'
p5717
tp5718
a(S'up one space'
p5719
S'Up 1'
p5720
tp5721
a(S'left'
p5722
S'Left 1'
p5723
tp5724
a(S'right one space'
p5725
S'Right 1'
p5726
tp5727
a(S'go right'
p5728
S'Right 1'
p5729
tp5730
a(S'down one space'
p5731
S'Down 1'
p5732
tp5733
a(S'go up two'
p5734
S'Up 2'
p5735
tp5736
a(S'and up'
p5737
S'Up 1'
p5738
tp5739
a(S'up'
p5740
S'Up 1'
p5741
tp5742
a(S'move east four times'
p5743
S'Right 4'
p5744
tp5745
a(S'look down , move down once'
p5746
S'Down 1'
p5747
tp5748
a(S'go down'
p5749
S'Down 1'
p5750
tp5751
a(S'down'
p5752
S'Down 1'
p5753
tp5754
a(S'left'
p5755
S'Left 1'
p5756
tp5757
a(S'up'
p5758
S'Up 1'
p5759
tp5760
a(S'go down'
p5761
S'Down 1'
p5762
tp5763
a(S'go left'
p5764
S'Left 1'
p5765
tp5766
a(S'go down'
p5767
S'Down 1'
p5768
tp5769
a(S'left'
p5770
S'Left 1'
p5771
tp5772
a(S'go down'
p5773
S'Down 1'
p5774
tp5775
a(S'move west four spaces'
p5776
S'Left 4'
p5777
tp5778
a(S'go down three steps'
p5779
S'Down 3'
p5780
tp5781
a(S'right four times'
p5782
S'Right 4'
p5783
tp5784
a(S'left'
p5785
S'Left 1'
p5786
tp5787
a(S'then move west five steps'
p5788
S'Left 5'
p5789
tp5790
a(S'then up two steps'
p5791
S'Up 2'
p5792
tp5793
a(S'left'
p5794
S'Left 1'
p5795
tp5796
a(S', east'
p5797
S'Right 1'
p5798
tp5799
a(S'then left one step'
p5800
S'Left 1'
p5801
tp5802
a(S'go up'
p5803
S'Up 1'
p5804
tp5805
a(S', up'
p5806
S'Up 1'
p5807
tp5808
a(S'then east'
p5809
S'Left 1'
p5810
tp5811
a(S'move up'
p5812
S'Up 1'
p5813
tp5814
a(S', east'
p5815
S'Right 1'
p5816
tp5817
a(S'go left five spaces'
p5818
S'Left 5'
p5819
tp5820
a(S'down'
p5821
S'Down 1'
p5822
tp5823
a(S'once to the right'
p5824
S'Right 1'
p5825
tp5826
a(S'up'
p5827
S'Up 1'
p5828
tp5829
a(S'then up'
p5830
S'Up 1'
p5831
tp5832
a(S'down one space'
p5833
S'Down 1'
p5834
tp5835
a(S'move west and go under the door'
p5836
S'Left 1'
p5837
tp5838
a(S'go towards the east wall'
p5839
S'Right 1'
p5840
tp5841
a(S'move down one'
p5842
S'Down 1'
p5843
tp5844
a(S'down'
p5845
S'Down 1'
p5846
tp5847
a(S'go north'
p5848
S'Up 1'
p5849
tp5850
a(S', left'
p5851
S'Left 1'
p5852
tp5853
a(S'move down five'
p5854
S'Down 5'
p5855
tp5856
a(S'up three steps'
p5857
S'Up 3'
p5858
tp5859
a(S'left four steps'
p5860
S'Left 4'
p5861
tp5862
a(S'move west four times'
p5863
S'Left 4'
p5864
tp5865
a(S'then up two times'
p5866
S'Up 2'
p5867
tp5868
a(S'up'
p5869
S'Up 1'
p5870
tp5871
a(S'go down'
p5872
S'Down 1'
p5873
tp5874
a(S'go up'
p5875
S'Up 1'
p5876
tp5877
a(S'go down once'
p5878
S'Down 1'
p5879
tp5880
a(S'go south one move'
p5881
S'Down 1'
p5882
tp5883
a(S'please move down three times'
p5884
S'Down 3'
p5885
tp5886
a(S', go up'
p5887
S'Up 1'
p5888
tp5889
a(S'three steps up'
p5890
S'Up 3'
p5891
tp5892
a(S'down'
p5893
S'Down 1'
p5894
tp5895
a(S'then right'
p5896
S'Right 1'
p5897
tp5898
a(S'down'
p5899
S'Down 1'
p5900
tp5901
a(S'and then go north'
p5902
S'Up 1'
p5903
tp5904
a(S'go left'
p5905
S'Left 1'
p5906
tp5907
a(S'go south'
p5908
S'Down 1'
p5909
tp5910
a(S'down'
p5911
S'Down 1'
p5912
tp5913
a(S'up'
p5914
S'Up 1'
p5915
tp5916
a(S'down'
p5917
S'Down 1'
p5918
tp5919
a(S'east four'
p5920
S'Right 4'
p5921
tp5922
a(S'go right'
p5923
S'Right 1'
p5924
tp5925
a(S'right two'
p5926
S'Right 2'
p5927
tp5928
a(S'move down one'
p5929
S'Down 1'
p5930
tp5931
a(S'up'
p5932
S'Up 1'
p5933
tp5934
a(S'up'
p5935
S'Up 1'
p5936
tp5937
a(S'then five steps to the left'
p5938
S'Left 5'
p5939
tp5940
a(S', one step south'
p5941
S'Down 1'
p5942
tp5943
a(S'north'
p5944
S'Up 1'
p5945
tp5946
a(S'go west'
p5947
S'Left 1'
p5948
tp5949
a(S'left'
p5950
S'Left 1'
p5951
tp5952
a(S', up'
p5953
S'Up 1'
p5954
tp5955
a(S'go down three spaces'
p5956
S'Down 3'
p5957
tp5958
a(S'then south'
p5959
S'Down 1'
p5960
tp5961
a(S', up two'
p5962
S'Up 2'
p5963
tp5964
a(S', one step east'
p5965
S'Right 1'
p5966
tp5967
a(S'then down'
p5968
S'Down 1'
p5969
tp5970
a(S'move down once'
p5971
S'Down 1'
p5972
tp5973
a(S'go down'
p5974
S'Down 1'
p5975
tp5976
a(S'take a step left'
p5977
S'Left 1'
p5978
tp5979
a(S'and then go right four steps'
p5980
S'Right 4'
p5981
tp5982
a(S'left'
p5983
S'Left 1'
p5984
tp5985
a(S'one step left'
p5986
S'Left 1'
p5987
tp5988
a(S'down'
p5989
S'Down 1'
p5990
tp5991
a(S'then go south one pace'
p5992
S'Down 1'
p5993
tp5994
a(S'east'
p5995
S'Right 1'
p5996
tp5997
a(S'down'
p5998
S'Down 1'
p5999
tp6000
a(S'up'
p6001
S'Up 1'
p6002
tp6003
a(S'go down five spaces'
p6004
S'Down 5'
p6005
tp6006
a(S'then go up two steps'
p6007
S'Up 2'
p6008
tp6009
a(S'left'
p6010
S'Left 1'
p6011
tp6012
a(S'go down five times'
p6013
S'Down 5'
p6014
tp6015
a(S'left four'
p6016
S'Left 4'
p6017
tp6018
a(S'then move east four steps'
p6019
S'Right 4'
p6020
tp6021
a(S'go down'
p6022
S'Down 1'
p6023
tp6024
a(S'move left four spaces'
p6025
S'Left 4'
p6026
tp6027
a(S'east'
p6028
S'Right 1'
p6029
tp6030
a(S'go south'
p6031
S'Down 1'
p6032
tp6033
a(S'go up'
p6034
S'Up 1'
p6035
tp6036
a(S', right'
p6037
S'Right 1'
p6038
tp6039
a(S', one step south'
p6040
S'Down 1'
p6041
tp6042
a(S'one down'
p6043
S'Down 1'
p6044
tp6045
a(S'go south for three steps'
p6046
S'Down 3'
p6047
tp6048
a(S'go right'
p6049
S'Right 1'
p6050
tp6051
a(S', go right'
p6052
S'Right 1'
p6053
tp6054
a(S'five steps to the left'
p6055
S'Left 5'
p6056
tp6057
a(S'move north three steps'
p6058
S'Up 3'
p6059
tp6060
a(S', and then go east for four spaces'
p6061
S'Right 4'
p6062
tp6063
a(S', down'
p6064
S'Down 1'
p6065
tp6066
a(S'go right'
p6067
S'Right 1'
p6068
tp6069
a(S'go down'
p6070
S'Down 1'
p6071
tp6072
a(S'down'
p6073
S'Down 1'
p6074
tp6075
a(S'left'
p6076
S'Left 1'
p6077
tp6078
a(S'then move north three steps'
p6079
S'Up 3'
p6080
tp6081
a(S'up'
p6082
S'Up 1'
p6083
tp6084
a(S'step once to the east'
p6085
S'Right 1'
p6086
tp6087
a(S'then up'
p6088
S'Up 1'
p6089
tp6090
a(S'proceed by moving yourself east one movement'
p6091
S'Right 1'
p6092
tp6093
a(S', go straight up'
p6094
S'Up 1'
p6095
tp6096
a(S'east'
p6097
S'Right 1'
p6098
tp6099
a(S'turn and travel north'
p6100
S'Up 1'
p6101
tp6102
a(S'and then up'
p6103
S'Up 1'
p6104
tp6105
a(S'left'
p6106
S'Left 1'
p6107
tp6108
a(S'up'
p6109
S'Up 1'
p6110
tp6111
a(S'go up'
p6112
S'Up 1'
p6113
tp6114
a(S'go up'
p6115
S'Up 1'
p6116
tp6117
a(S'down'
p6118
S'Down 1'
p6119
tp6120
a(S'go north'
p6121
S'Up 1'
p6122
tp6123
a(S'down'
p6124
S'Down 1'
p6125
tp6126
a(S'go right'
p6127
S'Right 1'
p6128
tp6129
a(S'down'
p6130
S'Down 1'
p6131
tp6132
a(S', south'
p6133
S'Down 1'
p6134
tp6135
a(S'then go one step west'
p6136
S'Left 1'
p6137
tp6138
a(S'up'
p6139
S'Up 1'
p6140
tp6141
a(S'go right'
p6142
S'Right 1'
p6143
tp6144
a(S'turn yourself right and move one square forward'
p6145
S'Right 1'
p6146
tp6147
a(S', go down one time'
p6148
S'Down 1'
p6149
tp6150
a(S'go down'
p6151
S'Down 1'
p6152
tp6153
a(S'go up'
p6154
S'Up 1'
p6155
tp6156
a(S'north'
p6157
S'Up 1'
p6158
tp6159
a(S'go down'
p6160
S'Down 1'
p6161
tp6162
a(S'then left one step'
p6163
S'Left 1'
p6164
tp6165
a(S'go down'
p6166
S'Down 1'
p6167
tp6168
a(S'down'
p6169
S'Down 1'
p6170
tp6171
a(S'take three steps south'
p6172
S'Down 3'
p6173
tp6174
a(S'move right one space'
p6175
S'Right 1'
p6176
tp6177
a(S'then left'
p6178
S'Left 1'
p6179
tp6180
a(S', then go right four times'
p6181
S'Right 4'
p6182
tp6183
a(S'go east for one space'
p6184
S'Left 1'
p6185
tp6186
a(S'right four'
p6187
S'Right 4'
p6188
tp6189
a(S'go right'
p6190
S'Right 1'
p6191
tp6192
a(S', move north three units'
p6193
S'Up 3'
p6194
tp6195
a(S', west'
p6196
S'Left 1'
p6197
tp6198
a(S'move west four units'
p6199
S'Left 4'
p6200
tp6201
a(S'down'
p6202
S'Down 1'
p6203
tp6204
a(S'go east'
p6205
S'Right 1'
p6206
tp6207
a(S'go north'
p6208
S'Up 1'
p6209
tp6210
a(S'move north three times'
p6211
S'Up 3'
p6212
tp6213
a(S'go left once'
p6214
S'Left 1'
p6215
tp6216
a(S', then go down once'
p6217
S'Down 1'
p6218
tp6219
a(S'go down'
p6220
S'Down 1'
p6221
tp6222
a(S'one step south'
p6223
S'Down 1'
p6224
tp6225
a(S'left'
p6226
S'Left 1'
p6227
tp6228
a(S'up'
p6229
S'Up 1'
p6230
tp6231
a(S'up'
p6232
S'Up 1'
p6233
tp6234
a(S'and go north for three spaces'
p6235
S'Up 3'
p6236
tp6237
a(S'move north one time'
p6238
S'Up 1'
p6239
tp6240
a(S'up three times'
p6241
S'Up 3'
p6242
tp6243
a(S'go west'
p6244
S'Left 1'
p6245
tp6246
a(S', go left five times'
p6247
S'Left 5'
p6248
tp6249
a(S'go west one'
p6250
S'Left 1'
p6251
tp6252
a(S'left'
p6253
S'Left 1'
p6254
tp6255
a(S'move south five times'
p6256
S'Down 5'
p6257
tp6258
a(S'go south'
p6259
S'Down 1'
p6260
tp6261
a(S'right'
p6262
S'Right 1'
p6263
tp6264
a(S'go left'
p6265
S'Left 1'
p6266
tp6267
a(S'right'
p6268
S'Right 1'
p6269
tp6270
a(S'then north'
p6271
S'Up 1'
p6272
tp6273
a(S'go down'
p6274
S'Down 1'
p6275
tp6276
a(S'move east'
p6277
S'Right 1'
p6278
tp6279
a(S'go left'
p6280
S'Left 1'
p6281
tp6282
a(S'then go down'
p6283
S'Down 1'
p6284
tp6285
a(S'down one space'
p6286
S'Down 1'
p6287
tp6288
a(S', go west for three spaces'
p6289
S'West 3'
p6290
tp6291
a(S'up one'
p6292
S'Up 1'
p6293
tp6294
a(S'then go south one pace'
p6295
S'Down 1'
p6296
tp6297
a(S', go north'
p6298
S'Up 1'
p6299
tp6300
a(S'down'
p6301
S'Down 1'
p6302
tp6303
a(S', north'
p6304
S'Up 1'
p6305
tp6306
a(S'move to the right'
p6307
S'Right 1'
p6308
tp6309
a(S'go left'
p6310
S'Left 1'
p6311
tp6312
a(S'left'
p6313
S'Left 1'
p6314
tp6315
a(S'go down'
p6316
S'Down 1'
p6317
tp6318
a(S', right four times'
p6319
S'Right 4'
p6320
tp6321
a(S'turn to your right and move forward'
p6322
S'Right 1'
p6323
tp6324
a(S'then up two steps'
p6325
S'Up 2'
p6326
tp6327
a(S'then right'
p6328
S'Right 1'
p6329
tp6330
a(S', up'
p6331
S'Up 1'
p6332
tp6333
a(S'go up'
p6334
S'Up 1'
p6335
tp6336
a(S'go down'
p6337
S'Down 1'
p6338
tp6339
a(S'turn around and go up'
p6340
S'Up 1'
p6341
tp6342
a(S', left'
p6343
S'Left 1'
p6344
tp6345
a(S'move one space down'
p6346
S'Down 1'
p6347
tp6348
a(S'go right'
p6349
S'Right 1'
p6350
tp6351
a(S'travel south'
p6352
S'Down 1'
p6353
tp6354
a(S', up'
p6355
S'Up 1'
p6356
tp6357
a(S'go down three times'
p6358
S'Down 3'
p6359
tp6360
a(S'move north three steps'
p6361
S'Up 3'
p6362
tp6363
a(S'then north'
p6364
S'Up 1'
p6365
tp6366
a(S'left'
p6367
S'Left 1'
p6368
tp6369
a(S'right one'
p6370
S'Right 1'
p6371
tp6372
a(S'west'
p6373
S'Left 1'
p6374
tp6375
a(S'up'
p6376
S'Up 1'
p6377
tp6378
a(S'right five'
p6379
S'Right 5'
p6380
tp6381
a(S'and left'
p6382
S'Left 1'
p6383
tp6384
a(S'right'
p6385
S'Right 1'
p6386
tp6387
a(S'go down'
p6388
S'Down 1'
p6389
tp6390
a(S'go left'
p6391
S'Left 1'
p6392
tp6393
a(S'left'
p6394
S'Left 1'
p6395
tp6396
a(S'go south'
p6397
S'Down 1'
p6398
tp6399
a(S'right'
p6400
S'Right 1'
p6401
tp6402
a(S'up one'
p6403
S'Up 1'
p6404
tp6405
a(S'go south'
p6406
S'Down 1'
p6407
tp6408
a(S'go down'
p6409
S'Down 1'
p6410
tp6411
a(S'left'
p6412
S'Left 1'
p6413
tp6414
a(S'left'
p6415
S'Left 1'
p6416
tp6417
a(S'go down'
p6418
S'Down 1'
p6419
tp6420
a(S', down one'
p6421
S'Down 1'
p6422
tp6423
a(S'go left'
p6424
S'Left 1'
p6425
tp6426
a(S', north one time'
p6427
S'Up 1'
p6428
tp6429
a(S'go west'
p6430
S'Left 1'
p6431
tp6432
a(S'down one'
p6433
S'Down 1'
p6434
tp6435
a(S'down'
p6436
S'Down 1'
p6437
tp6438
a(S', left'
p6439
S'Left 1'
p6440
tp6441
a(S'go up'
p6442
S'Up 1'
p6443
tp6444
a(S'right'
p6445
S'Right 1'
p6446
tp6447
a(S'move up'
p6448
S'Up 1'
p6449
tp6450
a(S'go up one space'
p6451
S'Up 1'
p6452
tp6453
a(S'move right'
p6454
S'Right 1'
p6455
tp6456
a(S'then go up'
p6457
S'Up 1'
p6458
tp6459
a(S'down'
p6460
S'Down 1'
p6461
tp6462
a(S'right'
p6463
S'Right 1'
p6464
tp6465
a(S'move right'
p6466
S'Right 1'
p6467
tp6468
a(S', left'
p6469
S'Left 1'
p6470
tp6471
a(S'up two'
p6472
S'Up 2'
p6473
tp6474
a(S'go down three times'
p6475
S'Down 3'
p6476
tp6477
a(S'east'
p6478
S'Right 1'
p6479
tp6480
a(S'go south'
p6481
S'Down 1'
p6482
tp6483
a(S'left'
p6484
S'Left 1'
p6485
tp6486
a(S'down'
p6487
S'Down 1'
p6488
tp6489
a(S'go down'
p6490
S'Down 1'
p6491
tp6492
a(S'down'
p6493
S'Down 1'
p6494
tp6495
a(S'go down'
p6496
S'Down 1'
p6497
tp6498
a(S'step once to the right'
p6499
S'Right 1'
p6500
tp6501
a(S'move down five'
p6502
S'Down 5'
p6503
tp6504
a(S', north'
p6505
S'Up 1'
p6506
tp6507
a(S', north'
p6508
S'Up 1'
p6509
tp6510
a(S'go east'
p6511
S'Right 1'
p6512
tp6513
a(S'then up'
p6514
S'Up 1'
p6515
tp6516
a(S', go left'
p6517
S'Left 1'
p6518
tp6519
a(S'east four'
p6520
S'Right 4'
p6521
tp6522
a(S'down'
p6523
S'Down 1'
p6524
tp6525
a(S'go down'
p6526
S'Down 1'
p6527
tp6528
a(S'down'
p6529
S'Down 1'
p6530
tp6531
a(S'then go down'
p6532
S'Down 1'
p6533
tp6534
a(S', down'
p6535
S'Down 1'
p6536
tp6537
a(S'then left'
p6538
S'Left 1'
p6539
tp6540
a(S'up'
p6541
S'Up 1'
p6542
tp6543
a(S'down'
p6544
S'Down 1'
p6545
tp6546
a(S'one step down'
p6547
S'Down 1'
p6548
tp6549
a(S'left'
p6550
S'Left 1'
p6551
tp6552
a(S'go left'
p6553
S'Left 1'
p6554
tp6555
a(S'move left'
p6556
S'Left 1'
p6557
tp6558
a(S'one down'
p6559
S'Down 1'
p6560
tp6561
a(S'east one step'
p6562
S'Right 1'
p6563
tp6564
a(S'up'
p6565
S'Up 1'
p6566
tp6567
a(S'go left'
p6568
S'Left 1'
p6569
tp6570
a(S'go down'
p6571
S'Down 1'
p6572
tp6573
a(S'move one step to west'
p6574
S'Left 1'
p6575
tp6576
a(S'then right'
p6577
S'Right 1'
p6578
tp6579
a(S'then west'
p6580
S'Left 1'
p6581
tp6582
a(S', left'
p6583
S'Left 1'
p6584
tp6585
a(S'down five'
p6586
S'Down 5'
p6587
tp6588
a(S'left'
p6589
S'Left 1'
p6590
tp6591
a(S'left five'
p6592
S'Left 5'
p6593
tp6594
a(S', go down'
p6595
S'Down 1'
p6596
tp6597
a(S'move up one'
p6598
S'Up 1'
p6599
tp6600
a(S'left'
p6601
S'Left 1'
p6602
tp6603
a(S'left'
p6604
S'Left 1'
p6605
tp6606
a(S', go right'
p6607
S'Right 1'
p6608
tp6609
a(S'and then go north'
p6610
S'Up 1'
p6611
tp6612
a(S', up three times'
p6613
S'Up 3'
p6614
tp6615
a(S'left five'
p6616
S'Left 5'
p6617
tp6618
a(S'go down five times'
p6619
S'Down 5'
p6620
tp6621
a(S'go north'
p6622
S'Up 1'
p6623
tp6624
a(S'down'
p6625
S'Down 1'
p6626
tp6627
a(S'go down five spaces'
p6628
S'Down 5'
p6629
tp6630
a(S'three up'
p6631
S'Up 3'
p6632
tp6633
a(S'up'
p6634
S'Up 1'
p6635
tp6636
a(S'go up one step'
p6637
S'Up 1'
p6638
tp6639
a(S'and go down one step'
p6640
S'Down 1'
p6641
tp6642
a(S', down'
p6643
S'Down 1'
p6644
tp6645
a(S'go left'
p6646
S'Left 1'
p6647
tp6648
a(S'go left'
p6649
S'Left 1'
p6650
tp6651
a(S'move south three times'
p6652
S'Down 3'
p6653
tp6654
a(S'down'
p6655
S'Down 1'
p6656
tp6657
a(S'right'
p6658
S'Right 1'
p6659
tp6660
a(S', go right'
p6661
S'Right 1'
p6662
tp6663
a(S', move north one units'
p6664
S'Up 1'
p6665
tp6666
a(S'left x5'
p6667
S'Left 5'
p6668
tp6669
a(S'left'
p6670
S'Left 1'
p6671
tp6672
a(S'up two'
p6673
S'Up 2'
p6674
tp6675
a(S'move west five times'
p6676
S'Left 5'
p6677
tp6678
a(S', west'
p6679
S'Left 1'
p6680
tp6681
a(S'left'
p6682
S'Left 1'
p6683
tp6684
a(S'up one'
p6685
S'Up 1'
p6686
tp6687
a(S'three steps up'
p6688
S'Up 3'
p6689
tp6690
a(S'right'
p6691
S'Right 1'
p6692
tp6693
a(S'then go up'
p6694
S'Up 1'
p6695
tp6696
a(S'go south three moves'
p6697
S'Down 3'
p6698
tp6699
a(S'and then down again'
p6700
S'Down 1'
p6701
tp6702
a(S'move up'
p6703
S'Up 1'
p6704
tp6705
a(S'up'
p6706
S'Up 1'
p6707
tp6708
a(S'down'
p6709
S'Down 1'
p6710
tp6711
a(S'go up'
p6712
S'Up 1'
p6713
tp6714
a(S'go down'
p6715
S'Down 1'
p6716
tp6717
a(S'and two north'
p6718
S'Up 2'
p6719
tp6720
a(S'up'
p6721
S'Up 1'
p6722
tp6723
a(S'go south'
p6724
S'Down 1'
p6725
tp6726
a(S'go south'
p6727
S'Down 1'
p6728
tp6729
a(S'left four times'
p6730
S'Left 4'
p6731
tp6732
a(S'left six five units'
p6733
S'Left 5'
p6734
tp6735
a(S'go south'
p6736
S'Down 1'
p6737
tp6738
a(S', west five units'
p6739
S'Left 5'
p6740
tp6741
a(S'go right one step'
p6742
S'Right 1'
p6743
tp6744
a(S'right'
p6745
S'Right 1'
p6746
tp6747
a(S'go down'
p6748
S'Down 1'
p6749
tp6750
a(S'up three'
p6751
S'Up 3'
p6752
tp6753
a(S'go down'
p6754
S'Down 1'
p6755
tp6756
a(S'go down'
p6757
S'Down 1'
p6758
tp6759
a(S'and then up'
p6760
S'Up 1'
p6761
tp6762
a(S'one south'
p6763
S'Down 1'
p6764
tp6765
a(S'down ,'
p6766
S'Down 1'
p6767
tp6768
a(S'go left'
p6769
S'Left 1'
p6770
tp6771
a(S'turn to your right and advance a space'
p6772
S'Right 1'
p6773
tp6774
a(S', down'
p6775
S'Down 1'
p6776
tp6777
a(S'turn left and move once'
p6778
S'Left 1'
p6779
tp6780
a(S'left five space'
p6781
S'Left 5'
p6782
tp6783
a(S'move south five steps'
p6784
S'Down 5'
p6785
tp6786
a(S'move right one space'
p6787
S'Right 1'
p6788
tp6789
a(S'move up one'
p6790
S'Up 1'
p6791
tp6792
a(S'left'
p6793
S'Left 1'
p6794
tp6795
a(S'south three'
p6796
S'Down 3'
p6797
tp6798
a(S'left four'
p6799
S'Left 4'
p6800
tp6801
a(S'down'
p6802
S'Down 1'
p6803
tp6804
a(S'left'
p6805
S'Left 1'
p6806
tp6807
a(S'then go left'
p6808
S'Left 1'
p6809
tp6810
a(S'go up'
p6811
S'Up 1'
p6812
tp6813
a(S'go down'
p6814
S'Down 1'
p6815
tp6816
a(S', north'
p6817
S'Right 1'
p6818
tp6819
a(S'left four'
p6820
S'Left 4'
p6821
tp6822
a(S'down'
p6823
S'Down 1'
p6824
tp6825
a(S'north'
p6826
S'Up 1'
p6827
tp6828
a(S'down'
p6829
S'Down 1'
p6830
tp6831
a(S'up'
p6832
S'Up 1'
p6833
tp6834
a(S'head south five steps'
p6835
S'Down 5'
p6836
tp6837
a(S'go down'
p6838
S'Down 1'
p6839
tp6840
a(S', go down'
p6841
S'Down 3'
p6842
tp6843
a(S'four left'
p6844
S'Left 4'
p6845
tp6846
a(S', then move down once'
p6847
S'Down 1'
p6848
tp6849
a(S'then north'
p6850
S'Up 1'
p6851
tp6852
a(S'left five steps'
p6853
S'Left 5'
p6854
tp6855
a(S'move north two times'
p6856
S'Up 2'
p6857
tp6858
a(S'go up'
p6859
S'Up 1'
p6860
tp6861
a(S'then go left'
p6862
S'Left 1'
p6863
tp6864
a(S'go down'
p6865
S'Down 1'
p6866
tp6867
a(S'left'
p6868
S'Left 1'
p6869
tp6870
a(S'go down'
p6871
S'Down 1'
p6872
tp6873
a(S'down one'
p6874
S'Down 1'
p6875
tp6876
a(S'go left'
p6877
S'Left 1'
p6878
tp6879
a(S'up'
p6880
S'Up 1'
p6881
tp6882
a(S'go up'
p6883
S'Up 1'
p6884
tp6885
a(S'down'
p6886
S'Down 1'
p6887
tp6888
a(S'right'
p6889
S'Right 1'
p6890
tp6891
a(S'and then go west'
p6892
S'Left 1'
p6893
tp6894
a(S'then up'
p6895
S'Up 1'
p6896
tp6897
a(S'down'
p6898
S'Down 1'
p6899
tp6900
a(S'go south'
p6901
S'Down 1'
p6902
tp6903
a(S'down'
p6904
S'Down 1'
p6905
tp6906
a(S'east'
p6907
S'Right 1'
p6908
tp6909
a(S'go south three paces'
p6910
S'Down 3'
p6911
tp6912
a(S'up'
p6913
S'Up 1'
p6914
tp6915
a(S'move north two spaces'
p6916
S'Up 2'
p6917
tp6918
a(S'go down'
p6919
S'Down 1'
p6920
tp6921
a(S'go down five'
p6922
S'Down 5'
p6923
tp6924
a(S'go left until even with doorway'
p6925
S'Left 1'
p6926
tp6927
a(S'down'
p6928
S'Down 1'
p6929
tp6930
a(S'west five steps'
p6931
S'Left 5'
p6932
tp6933
a(S'go down three steps'
p6934
S'Down 3'
p6935
tp6936
a(S'then go down'
p6937
S'Down 1'
p6938
tp6939
a(S'and then right'
p6940
S'Right 1'
p6941
tp6942
a(S'south one step'
p6943
S'Down 1'
p6944
tp6945
a(S'one step down'
p6946
S'Down 1'
p6947
tp6948
a(S'go south three spaces'
p6949
S'Down 3'
p6950
tp6951
a(S'up three'
p6952
S'Up 3'
p6953
tp6954
a(S'down'
p6955
S'Down 1'
p6956
tp6957
a(S'please go down'
p6958
S'Down 1'
p6959
tp6960
a(S'then east'
p6961
S'Left 1'
p6962
tp6963
a(S'go up'
p6964
S'Up 1'
p6965
tp6966
a(S'go up'
p6967
S'Up 1'
p6968
tp6969
a(S'left'
p6970
S'Left 1'
p6971
tp6972
a(S'go south'
p6973
S'Down 1'
p6974
tp6975
a(S'west'
p6976
S'Left 1'
p6977
tp6978
a(S'go down'
p6979
S'Down 1'
p6980
tp6981
a(S'and to the left'
p6982
S'Left 1'
p6983
tp6984
a(S'go right'
p6985
S'Right 1'
p6986
tp6987
a(S'left'
p6988
S'Left 1'
p6989
tp6990
a(S'up two'
p6991
S'Up 2'
p6992
tp6993
a(S'move south five times'
p6994
S'Down 5'
p6995
tp6996
a(S'then down'
p6997
S'Down 1'
p6998
tp6999
a(S'go south three time'
p7000
S'Down 3'
p7001
tp7002
a(S', go up'
p7003
S'Up 1'
p7004
tp7005
a(S'then go right five times'
p7006
S'Right 5'
p7007
tp7008
a(S'then go west one pace'
p7009
S'Right 1'
p7010
tp7011
a(S'turn to your right and take one step forward'
p7012
S'Right 1'
p7013
tp7014
a(S'go up'
p7015
S'Up 1'
p7016
tp7017
a(S'go south'
p7018
S'Down 1'
p7019
tp7020
a(S'go west four moves'
p7021
S'Left 4'
p7022
tp7023
a(S'and go up'
p7024
S'Up 1'
p7025
tp7026
a(S'left one space'
p7027
S'Left 1'
p7028
tp7029
a(S'go down'
p7030
S'Down 1'
p7031
tp7032
a(S'move left'
p7033
S'Left 1'
p7034
tp7035
a(S'move down three times'
p7036
S'Down 3'
p7037
tp7038
a(S'right'
p7039
S'Right 1'
p7040
tp7041
a(S'up'
p7042
S'Up 1'
p7043
tp7044
a(S'go down three spaces'
p7045
S'Down 3'
p7046
tp7047
a(S'go down'
p7048
S'Down 1'
p7049
tp7050
a(S'north'
p7051
S'Up 1'
p7052
tp7053
a(S'go left'
p7054
S'Left 1'
p7055
tp7056
a(S'then up three steps'
p7057
S'Up 3'
p7058
tp7059
a(S'one step up'
p7060
S'Up 1'
p7061
tp7062
a(S'move east one unit'
p7063
S'Right 1'
p7064
tp7065
a(S'down'
p7066
S'Down 1'
p7067
tp7068
a(S'left'
p7069
S'Left 1'
p7070
tp7071
a(S'then go left four times'
p7072
S'Left 4'
p7073
tp7074
a(S'up'
p7075
S'Up 1'
p7076
tp7077
a(S'right'
p7078
S'Right 1'
p7079
tp7080
a(S'move down'
p7081
S'Down 1'
p7082
tp7083
a(S'down'
p7084
S'Down 1'
p7085
tp7086
a(S'move south once'
p7087
S'Down 1'
p7088
tp7089
a(S'move right'
p7090
S'Right 1'
p7091
tp7092
a(S'east four spaces'
p7093
S'Right 4'
p7094
tp7095
a(S', down'
p7096
S'Down 1'
p7097
tp7098
a(S', go up'
p7099
S'Up 1'
p7100
tp7101
a(S'then down one step'
p7102
S'Down 1'
p7103
tp7104
a(S'then take two steps up'
p7105
S'Up 2'
p7106
tp7107
a(S'down'
p7108
S'Down 1'
p7109
tp7110
a(S'go down ,'
p7111
S'Down 1'
p7112
tp7113
a(S', three steps north'
p7114
S'Up 3'
p7115
tp7116
a(S'right'
p7117
S'Right 1'
p7118
tp7119
a(S'go up'
p7120
S'Up 1'
p7121
tp7122
a(S', north'
p7123
S'Up 1'
p7124
tp7125
a(S', north'
p7126
S'Up 1'
p7127
tp7128
a(S'up'
p7129
S'Up 1'
p7130
tp7131
a(S'move north'
p7132
S'Up 1'
p7133
tp7134
a(S'left'
p7135
S'Left 1'
p7136
tp7137
a(S'up'
p7138
S'Up 1'
p7139
tp7140
a(S'down'
p7141
S'Down 1'
p7142
tp7143
a(S'up one'
p7144
S'Up 1'
p7145
tp7146
a(S'south'
p7147
S'Down 1'
p7148
tp7149
a(S'right four spaces'
p7150
S'Right 4'
p7151
tp7152
a(S'move west four times'
p7153
S'Left 4'
p7154
tp7155
a(S'right'
p7156
S'Right 1'
p7157
tp7158
a(S'right one without chair'
p7159
S'Right 1'
p7160
tp7161
a(S'move down'
p7162
S'Down 1'
p7163
tp7164
a(S'go down'
p7165
S'Down 1'
p7166
tp7167
a(S'down one'
p7168
S'Down 1'
p7169
tp7170
a(S'four steps right'
p7171
S'Right 4'
p7172
tp7173
a(S'go down'
p7174
S'Down 3'
p7175
tp7176
a(S'move to your right and face the rightmost wall'
p7177
S'Right 1'
p7178
tp7179
a(S'one step up'
p7180
S'Up 1'
p7181
tp7182
a(S', move east one unit'
p7183
S'Right 1'
p7184
tp7185
a(S'go east'
p7186
S'Right 1'
p7187
tp7188
a(S'go east'
p7189
S'Right 1'
p7190
tp7191
a(S'east four'
p7192
S'Right 4'
p7193
tp7194
a(S'then up'
p7195
S'Up 1'
p7196
tp7197
a(S'go left'
p7198
S'Left 1'
p7199
tp7200
a(S'move down five spaces'
p7201
S'Down 5'
p7202
tp7203
a(S'go left'
p7204
S'Left 1'
p7205
tp7206
a(S'west'
p7207
S'Left 1'
p7208
tp7209
a(S'take one step down'
p7210
S'Down 1'
p7211
tp7212
a(S'go down'
p7213
S'Down 1'
p7214
tp7215
a(S'left'
p7216
S'Left 1'
p7217
tp7218
a(S'go east'
p7219
S'Right 1'
p7220
tp7221
a(S'go five south'
p7222
S'Down 5'
p7223
tp7224
a(S'go right'
p7225
S'Right 1'
p7226
tp7227
a(S', down'
p7228
S'Down 1'
p7229
tp7230
a(S'right four'
p7231
S'Right 4'
p7232
tp7233
a(S'then up'
p7234
S'Up 1'
p7235
tp7236
a(S'up'
p7237
S'Up 1'
p7238
tp7239
a(S'with chair go down one'
p7240
S'Down 1'
p7241
tp7242
a(S'down one'
p7243
S'Down 1'
p7244
tp7245
a(S'and north'
p7246
S'Up 1'
p7247
tp7248
a(S'left'
p7249
S'Left 1'
p7250
tp7251
a(S'then go right'
p7252
S'Right 1'
p7253
tp7254
a(S'down'
p7255
S'Down 1'
p7256
tp7257
a(S'west'
p7258
S'Left 1'
p7259
tp7260
a(S'move down one'
p7261
S'Down 1'
p7262
tp7263
a(S'right'
p7264
S'Right 1'
p7265
tp7266
a(S'go up'
p7267
S'Up 1'
p7268
tp7269
a(S'go south for three steps'
p7270
S'Down 3'
p7271
tp7272
a(S'then right'
p7273
S'Right 1'
p7274
tp7275
a(S'go up three times'
p7276
S'Up 3'
p7277
tp7278
a(S'left four'
p7279
S'Left 4'
p7280
tp7281
a(S'then move north three times'
p7282
S'Up 3'
p7283
tp7284
a(S'go right'
p7285
S'Right 1'
p7286
tp7287
a(S'down three'
p7288
S'Down 3'
p7289
tp7290
a(S', west'
p7291
S'Left 1'
p7292
tp7293
a(S'go down one time'
p7294
S'Down 1'
p7295
tp7296
a(S'down'
p7297
S'Down 1'
p7298
tp7299
a(S'north'
p7300
S'Up 1'
p7301
tp7302
a(S'down'
p7303
S'Down 1'
p7304
tp7305
a(S'move three steps down'
p7306
S'Down 3'
p7307
tp7308
a(S'go up'
p7309
S'Up 1'
p7310
tp7311
a(S'three steps  up'
p7312
S'Up 3'
p7313
tp7314
a(S'go left five times'
p7315
S'Left 5'
p7316
tp7317
a(S'move east four units'
p7318
S'Right 4'
p7319
tp7320
a(S'go right'
p7321
S'Right 1'
p7322
tp7323
a(S'face left and move forward one spot'
p7324
S'Left 1'
p7325
tp7326
a(S', move west five times'
p7327
S'Left 5'
p7328
tp7329
a(S', then go left one time'
p7330
S'Left 1'
p7331
tp7332
a(S'go five steps down'
p7333
S'Down 5'
p7334
tp7335
a(S'left four'
p7336
S'Left 4'
p7337
tp7338
a(S', five steps west'
p7339
S'Left 5'
p7340
tp7341
a(S'go up'
p7342
S'Up 1'
p7343
tp7344
a(S'down'
p7345
S'Down 1'
p7346
tp7347
a(S'west'
p7348
S'Left 1'
p7349
tp7350
a(S'then go up three times'
p7351
S'Up 3'
p7352
tp7353
a(S'south'
p7354
S'Down 1'
p7355
tp7356
a(S'up two steps'
p7357
S'Up 2'
p7358
tp7359
a(S'west one space'
p7360
S'Left 1'
p7361
tp7362
a(S'go up'
p7363
S'Up 1'
p7364
tp7365
a(S'left'
p7366
S'Left 1'
p7367
tp7368
a(S'right one step'
p7369
S'Right 1'
p7370
tp7371
a(S'move south five steps'
p7372
S'Down 5'
p7373
tp7374
a(S'south'
p7375
S'Down 1'
p7376
tp7377
a(S'go east'
p7378
S'Right 1'
p7379
tp7380
a(S', four steps east'
p7381
S'Right 4'
p7382
tp7383
a(S', east'
p7384
S'Left 1'
p7385
tp7386
a(S'down'
p7387
S'Down 1'
p7388
tp7389
a(S'go down'
p7390
S'Down 1'
p7391
tp7392
a(S'go right'
p7393
S'Right 1'
p7394
tp7395
a(S'left once'
p7396
S'Left 1'
p7397
tp7398
a(S'go down'
p7399
S'Down 1'
p7400
tp7401
a(S'up'
p7402
S'Up 1'
p7403
tp7404
a(S'down'
p7405
S'Down 1'
p7406
tp7407
a(S'down one'
p7408
S'Down 1'
p7409
tp7410
a(S'then left one time'
p7411
S'Left 1'
p7412
tp7413
a(S'down three'
p7414
S'Down 3'
p7415
tp7416
a(S'down'
p7417
S'Down 1'
p7418
tp7419
a(S'move to the left side one space'
p7420
S'Left 1'
p7421
tp7422
a(S', four steps west'
p7423
S'Left 4'
p7424
tp7425
a(S'move north one time'
p7426
S'Up 1'
p7427
tp7428
a(S'go up'
p7429
S'Up 1'
p7430
tp7431
a(S'go north three moves'
p7432
S'Up 3'
p7433
tp7434
a(S'left'
p7435
S'Left 1'
p7436
tp7437
a(S'go down one time'
p7438
S'Down 1'
p7439
tp7440
a(S'go down'
p7441
S'Down 1'
p7442
tp7443
a(S'go down'
p7444
S'Down 1'
p7445
tp7446
a(S'move right four times'
p7447
S'Right 4'
p7448
tp7449
a(S'move to the right one step'
p7450
S'Right 1'
p7451
tp7452
a(S', go right'
p7453
S'Right 1'
p7454
tp7455
a(S'go south three paces'
p7456
S'Down 3'
p7457
tp7458
a(S'down one'
p7459
S'Down 1'
p7460
tp7461
a(S'up'
p7462
S'Up 1'
p7463
tp7464
a(S'move slightly to the right'
p7465
S'Right 1'
p7466
tp7467
a(S'right'
p7468
S'Right 1'
p7469
tp7470
a(S'west four steps'
p7471
S'Left 4'
p7472
tp7473
a(S', up'
p7474
S'Up 1'
p7475
tp7476
a(S', west'
p7477
S'Left 1'
p7478
tp7479
a(S'go right'
p7480
S'Right 1'
p7481
tp7482
a(S'left'
p7483
S'Left 1'
p7484
tp7485
a(S'down'
p7486
S'Down 1'
p7487
tp7488
a(S'east'
p7489
S'Right 1'
p7490
tp7491
a(S'go south five spaces'
p7492
S'Down 1'
p7493
tp7494
a(S'right'
p7495
S'Right 1'
p7496
tp7497
a(S'move north three'
p7498
S'Up 3'
p7499
tp7500
a(S'face your left side'
p7501
S'Left 1'
p7502
tp7503
a(S'left ,'
p7504
S'Left 1'
p7505
tp7506
a(S'go up'
p7507
S'Up 1'
p7508
tp7509
a(S'go south for one space'
p7510
S'Down 1'
p7511
tp7512
a(S', south'
p7513
S'Down 1'
p7514
tp7515
a(S'up'
p7516
S'Up 1'
p7517
tp7518
a(S'go down'
p7519
S'Down 1'
p7520
tp7521
a(S'move north two units'
p7522
S'Up 2'
p7523
tp7524
a(S'then south'
p7525
S'Down 1'
p7526
tp7527
a(S'up'
p7528
S'Up 1'
p7529
tp7530
a(S'and then to the right five steps'
p7531
S'Right 5'
p7532
tp7533
a(S'down'
p7534
S'Down 1'
p7535
tp7536
a(S'then west'
p7537
S'Left 1'
p7538
tp7539
a(S'go east one square'
p7540
S'Right 1'
p7541
tp7542
a(S'down'
p7543
S'Down 1'
p7544
tp7545
a(S'go down'
p7546
S'Down 1'
p7547
tp7548
a(S'west'
p7549
S'Left 1'
p7550
tp7551
a(S', go up'
p7552
S'Up 1'
p7553
tp7554
a(S'right'
p7555
S'Right 1'
p7556
tp7557
a(S'go south five steps'
p7558
S'Down 5'
p7559
tp7560
a(S'down'
p7561
S'Down 1'
p7562
tp7563
a(S'move south one step'
p7564
S'Down 1'
p7565
tp7566
a(S'step sideways to the right one space'
p7567
S'Right 1'
p7568
tp7569
a(S'left'
p7570
S'Left 1'
p7571
tp7572
a(S'and go north for three spaces'
p7573
S'Up 3'
p7574
tp7575
a(S'left'
p7576
S'Left 1'
p7577
tp7578
a(S'move down again'
p7579
S'Down 1'
p7580
tp7581
a(S'go down three'
p7582
S'Down 3'
p7583
tp7584
a(S'go west'
p7585
S'Left 1'
p7586
tp7587
a(S', up'
p7588
S'Up 1'
p7589
tp7590
a(S'north'
p7591
S'Up 1'
p7592
tp7593
a(S'north three spaces'
p7594
S'Up 3'
p7595
tp7596
a(S'go left'
p7597
S'Left 1'
p7598
tp7599
a(S'left'
p7600
S'Left 1'
p7601
tp7602
a(S', east'
p7603
S'Left 1'
p7604
tp7605
a(S'down'
p7606
S'Down 1'
p7607
tp7608
a(S'go down three times'
p7609
S'Down 3'
p7610
tp7611
a(S'west'
p7612
S'Left 1'
p7613
tp7614
a(S'right'
p7615
S'Right 1'
p7616
tp7617
a(S'north'
p7618
S'Up 1'
p7619
tp7620
a(S'up one'
p7621
S'Up 1'
p7622
tp7623
a(S', left'
p7624
S'Left 1'
p7625
tp7626
a(S'west'
p7627
S'Left 1'
p7628
tp7629
a(S'down one step'
p7630
S'Down 1'
p7631
tp7632
a(S'up three'
p7633
S'Up 3'
p7634
tp7635
a(S'north two steps'
p7636
S'Up 2'
p7637
tp7638
a(S'down'
p7639
S'Down 1'
p7640
tp7641
a(S'move north'
p7642
S'Up 1'
p7643
tp7644
a(S'go up'
p7645
S'Up 1'
p7646
tp7647
a(S'go west'
p7648
S'Left 1'
p7649
tp7650
a(S'down'
p7651
S'Down 1'
p7652
tp7653
a(S', south'
p7654
S'Down 1'
p7655
tp7656
a(S'turn east and move forward in that direction'
p7657
S'Right 1'
p7658
tp7659
a(S'left'
p7660
S'Left 1'
p7661
tp7662
a(S'go down'
p7663
S'Down 1'
p7664
tp7665
a(S'go down'
p7666
S'Down 1'
p7667
tp7668
a(S'north three moves'
p7669
S'Up 3'
p7670
tp7671
a(S'south'
p7672
S'Down 1'
p7673
tp7674
a(S'then left'
p7675
S'Left 1'
p7676
tp7677
a(S'go down'
p7678
S'Down 1'
p7679
tp7680
a(S'move east one time'
p7681
S'Right 1'
p7682
tp7683
a(S'go left five times'
p7684
S'Left 5'
p7685
tp7686
a(S'up'
p7687
S'Up 1'
p7688
tp7689
a(S'down one space'
p7690
S'Down 1'
p7691
tp7692
a(S'up'
p7693
S'Up 1'
p7694
tp7695
a(S'right'
p7696
S'Right 1'
p7697
tp7698
a(S', up'
p7699
S'Up 1'
p7700
tp7701
a(S'slide left'
p7702
S'Left 1'
p7703
tp7704
a(S'left'
p7705
S'Left 1'
p7706
tp7707
a(S'then go west'
p7708
S'Left 1'
p7709
tp7710
a(S'then move left four times'
p7711
S'Left 4'
p7712
tp7713
a(S'up'
p7714
S'Up 1'
p7715
tp7716
a(S'up two'
p7717
S'Up 2'
p7718
tp7719
a(S'up two'
p7720
S'Up 2'
p7721
tp7722
a(S'left five'
p7723
S'Left 5'
p7724
tp7725
a(S'go down once'
p7726
S'Down 1'
p7727
tp7728
a(S'south one'
p7729
S'Down 1'
p7730
tp7731
a(S'right'
p7732
S'Right 1'
p7733
tp7734
a(S', then go down one time'
p7735
S'Down 1'
p7736
tp7737
a(S'then west'
p7738
S'Right 1'
p7739
tp7740
a(S'go up'
p7741
S'Up 1'
p7742
tp7743
a(S'go five steps down'
p7744
S'Down 5'
p7745
tp7746
a(S'move one space to the left'
p7747
S'Left 1'
p7748
tp7749
a(S'up one step'
p7750
S'Up 1'
p7751
tp7752
a(S'down one'
p7753
S'Down 1'
p7754
tp7755
a(S'go to the left'
p7756
S'Left 1'
p7757
tp7758
a(S'go right'
p7759
S'Right 1'
p7760
tp7761
a(S'four steps to the left'
p7762
S'Left 4'
p7763
tp7764
a(S', up two'
p7765
S'Up 2'
p7766
tp7767
a(S'left'
p7768
S'Left 1'
p7769
tp7770
a(S'up'
p7771
S'Up 1'
p7772
tp7773
a(S'go down five times'
p7774
S'Down 5'
p7775
tp7776
a(S'go down'
p7777
S'Down 1'
p7778
tp7779
a(S'move north once'
p7780
S'Up 1'
p7781
tp7782
a(S'right one'
p7783
S'Right 1'
p7784
tp7785
a(S', right'
p7786
S'Right 1'
p7787
tp7788
a(S'go down'
p7789
S'Down 1'
p7790
tp7791
a(S'then go right five times'
p7792
S'Right 5'
p7793
tp7794
a(S'up'
p7795
S'Up 1'
p7796
tp7797
a(S'go north two moves'
p7798
S'Up 2'
p7799
tp7800
a(S'up one step'
p7801
S'Up 1'
p7802
tp7803
a(S'down'
p7804
S'Down 1'
p7805
tp7806
a(S'move west five times'
p7807
S'Left 5'
p7808
tp7809
a(S'right'
p7810
S'Right 1'
p7811
tp7812
a(S'go left five steps'
p7813
S'Left 5'
p7814
tp7815
a(S'go right'
p7816
S'Right 1'
p7817
tp7818
a(S"go south and stand still when you can't move anymore"
p7819
S'Down 1'
p7820
tp7821
a(S'and then left'
p7822
S'Left 1'
p7823
tp7824
a(S'south'
p7825
S'Down 1'
p7826
tp7827
a(S'go down'
p7828
S'Down 1'
p7829
tp7830
a(S'go down'
p7831
S'Down 1'
p7832
tp7833
a(S', east one time'
p7834
S'Right 1'
p7835
tp7836
a(S'move down three'
p7837
S'Down 3'
p7838
tp7839
a(S'go west for one step'
p7840
S'Left 1'
p7841
tp7842
a(S'left four spaces'
p7843
S'Left 4'
p7844
tp7845
a(S'then north'
p7846
S'Up 1'
p7847
tp7848
a(S'up three'
p7849
S'Up 3'
p7850
tp7851
a(S'go down three spaces'
p7852
S'Down 3'
p7853
tp7854
a(S'down'
p7855
S'Down 1'
p7856
tp7857
a(S'move north two steps'
p7858
S'Up 2'
p7859
tp7860
a(S'and up two steps'
p7861
S'Up 2'
p7862
tp7863
a(S'go down'
p7864
S'Down 1'
p7865
tp7866
a(S'then go north'
p7867
S'Up 1'
p7868
tp7869
a(S'then east'
p7870
S'Right 1'
p7871
tp7872
a(S'and go up two steps'
p7873
S'Up 2'
p7874
tp7875
a(S', south'
p7876
S'Down 1'
p7877
tp7878
a(S'then go east six motions'
p7879
S'Right 6'
p7880
tp7881
a(S'left once'
p7882
S'Left 1'
p7883
tp7884
a(S'left four spaces'
p7885
S'Left 4'
p7886
tp7887
a(S'three steps south'
p7888
S'Down 3'
p7889
tp7890
a(S'up there spaces'
p7891
S'Up 3'
p7892
tp7893
a(S'up three'
p7894
S'Up 3'
p7895
tp7896
a(S'move up three spaces'
p7897
S'Up 3'
p7898
tp7899
a(S'down'
p7900
S'Down 1'
p7901
tp7902
a(S'go down to south'
p7903
S'Down 1'
p7904
tp7905
a(S'left'
p7906
S'Left 1'
p7907
tp7908
a(S'go down'
p7909
S'Down 1'
p7910
tp7911
a(S'go down'
p7912
S'Down 1'
p7913
tp7914
a(S'then up two spaces'
p7915
S'Up 2'
p7916
tp7917
a(S'go south'
p7918
S'Down 1'
p7919
tp7920
a(S'right five'
p7921
S'Right 5'
p7922
tp7923
a(S'then go south'
p7924
S'Down 1'
p7925
tp7926
a(S'go down'
p7927
S'Down 1'
p7928
tp7929
a(S'right four'
p7930
S'Right 4'
p7931
tp7932
a(S'go up three times'
p7933
S'Up 3'
p7934
tp7935
a(S'down'
p7936
S'Down 1'
p7937
tp7938
a(S'one step down'
p7939
S'Down 1'
p7940
tp7941
a(S'west'
p7942
S'Left 1'
p7943
tp7944
a(S'and up two spots'
p7945
S'Up 2'
p7946
tp7947
a(S'up'
p7948
S'Up 1'
p7949
tp7950
a(S'down'
p7951
S'Down 1'
p7952
tp7953
a(S'down'
p7954
S'Down 1'
p7955
tp7956
a(S'go south by one step'
p7957
S'Up 1'
p7958
tp7959
a(S'right one space'
p7960
S'Right 1'
p7961
tp7962
a(S'go right'
p7963
S'Right 1'
p7964
tp7965
a(S'go south one square'
p7966
S'Down 1'
p7967
tp7968
a(S'east'
p7969
S'Right 1'
p7970
tp7971
a(S'up three'
p7972
S'Up 2'
p7973
tp7974
a(S'then up'
p7975
S'Up 1'
p7976
tp7977
a(S'down'
p7978
S'Down 1'
p7979
tp7980
a(S'then go west'
p7981
S'Left 1'
p7982
tp7983
a(S'down'
p7984
S'Down 1'
p7985
tp7986
a(S'move south one step'
p7987
S'Down 1'
p7988
tp7989
a(S', down'
p7990
S'Down 1'
p7991
tp7992
a(S'turn right then go forward one spot'
p7993
S'Right 1'
p7994
tp7995
a(S'go west'
p7996
S'Left 1'
p7997
tp7998
a(S'then down'
p7999
S'Down 1'
p8000
tp8001
a(S'up'
p8002
S'Up 1'
p8003
tp8004
a(S'go right'
p8005
S'Right 1'
p8006
tp8007
a(S'up'
p8008
S'Up 1'
p8009
tp8010
a(S'down one'
p8011
S'Down 1'
p8012
tp8013
a(S'move south one spot'
p8014
S'Down 1'
p8015
tp8016
a(S', move west one time'
p8017
S'Left 1'
p8018
tp8019
a(S'right'
p8020
S'Right 1'
p8021
tp8022
a(S'then right'
p8023
S'Right 1'
p8024
tp8025
a(S', down'
p8026
S'Down 1'
p8027
tp8028
a(S'move one spot to your left'
p8029
S'Left 1'
p8030
tp8031
a(S'down'
p8032
S'Down 1'
p8033
tp8034
a(S'and move left four steps'
p8035
S'Left 4'
p8036
tp8037
a(S'down'
p8038
S'Down 1'
p8039
tp8040
a(S', go right four times'
p8041
S'Right 4'
p8042
tp8043
a(S'left'
p8044
S'Left 1'
p8045
tp8046
a(S'up three'
p8047
S'Up 3'
p8048
tp8049
a(S'go right four'
p8050
S'Right 4'
p8051
tp8052
a(S'go north for three steps'
p8053
S'Up 3'
p8054
tp8055
a(S'up two spaces'
p8056
S'Up 2'
p8057
tp8058
a(S'right'
p8059
S'Right 1'
p8060
tp8061
a(S'go up one time'
p8062
S'Up 1'
p8063
tp8064
a(S'north three spaces'
p8065
S'Up 3'
p8066
tp8067
a(S'three steps up'
p8068
S'Up 3'
p8069
tp8070
a(S'down'
p8071
S'Down 1'
p8072
tp8073
a(S'move west'
p8074
S'Right 1'
p8075
tp8076
a(S'up'
p8077
S'Up 1'
p8078
tp8079
a(S'and up again'
p8080
S'Up 1'
p8081
tp8082
a(S', go west'
p8083
S'Left 1'
p8084
tp8085
a(S'up'
p8086
S'Up 1'
p8087
tp8088
a(S'left'
p8089
S'Left 1'
p8090
tp8091
a(S'move south five times'
p8092
S'Down 5'
p8093
tp8094
a(S'go south'
p8095
S'Down 1'
p8096
tp8097
a(S', left'
p8098
S'Left 1'
p8099
tp8100
a(S'right'
p8101
S'Right 1'
p8102
tp8103
a(S'move to your left one step'
p8104
S'Left 1'
p8105
tp8106
a(S'move left four'
p8107
S'Left 4'
p8108
tp8109
a(S'north'
p8110
S'Up 1'
p8111
tp8112
a(S'down'
p8113
S'Down 1'
p8114
tp8115
a(S'then left four steps'
p8116
S'Left 4'
p8117
tp8118
a(S'west'
p8119
S'Left 1'
p8120
tp8121
a(S'move down five'
p8122
S'Down 5'
p8123
tp8124
a(S'go north'
p8125
S'Up 1'
p8126
tp8127
a(S'south'
p8128
S'Down 1'
p8129
tp8130
a(S'go up'
p8131
S'Up 1'
p8132
tp8133
a(S'then east'
p8134
S'Left 1'
p8135
tp8136
a(S'up'
p8137
S'Up 1'
p8138
tp8139
a(S'go left'
p8140
S'Left 1'
p8141
tp8142
a(S', move right once'
p8143
S'Right 1'
p8144
tp8145
a(S'move down three times'
p8146
S'Down 3'
p8147
tp8148
a(S'right'
p8149
S'Right 1'
p8150
tp8151
a(S'right'
p8152
S'Right 1'
p8153
tp8154
a(S'left five steps'
p8155
S'Left 5'
p8156
tp8157
a(S'go to the left once'
p8158
S'Left 1'
p8159
tp8160
a(S'move west'
p8161
S'Left 1'
p8162
tp8163
a(S'go down'
p8164
S'Down 1'
p8165
tp8166
a(S', down'
p8167
S'Down 1'
p8168
tp8169
a(S', north'
p8170
S'Up 1'
p8171
tp8172
a(S'go south'
p8173
S'Down 1'
p8174
tp8175
a(S'move to your right'
p8176
S'Right 1'
p8177
tp8178
a(S'south'
p8179
S'Down 1'
p8180
tp8181
a(S'move up three spaces'
p8182
S'Up 3'
p8183
tp8184
a(S'and north three steps'
p8185
S'Up 3'
p8186
tp8187
a(S'down'
p8188
S'Down 1'
p8189
tp8190
a(S'up two'
p8191
S'Up 2'
p8192
tp8193
a(S'and move west'
p8194
S'Left 1'
p8195
tp8196
a(S', left'
p8197
S'Left 1'
p8198
tp8199
a(S'then up'
p8200
S'Up 1'
p8201
tp8202
a(S', then go left twice'
p8203
S'Left 2'
p8204
tp8205
a(S'go up'
p8206
S'Up 1'
p8207
tp8208
a(S'go up'
p8209
S'Up 1'
p8210
tp8211
a(S'go left'
p8212
S'Left 1'
p8213
tp8214
a(S'go up'
p8215
S'Up 1'
p8216
tp8217
a(S'left'
p8218
S'Left 1'
p8219
tp8220
a(S'then two steps north'
p8221
S'Up 2'
p8222
tp8223
a(S'move south one step'
p8224
S'Down 1'
p8225
tp8226
a(S'south'
p8227
S'Down 1'
p8228
tp8229
a(S'then up'
p8230
S'Up 1'
p8231
tp8232
a(S'south'
p8233
S'Down 1'
p8234
tp8235
a(S'left'
p8236
S'Left 1'
p8237
tp8238
a(S'left five'
p8239
S'Left 5'
p8240
tp8241
a(S'down'
p8242
S'Down 1'
p8243
tp8244
a(S', go up'
p8245
S'Up 1'
p8246
tp8247
a(S'up'
p8248
S'Up 1'
p8249
tp8250
a(S'go down'
p8251
S'Down 5'
p8252
tp8253
a(S'go down'
p8254
S'Down 1'
p8255
tp8256
a(S'move west four steps'
p8257
S'Left 4'
p8258
tp8259
a(S'go left'
p8260
S'Left 1'
p8261
tp8262
a(S', go up'
p8263
S'Up 1'
p8264
tp8265
a(S'move left one pace'
p8266
S'Left 1'
p8267
tp8268
a(S'right four'
p8269
S'Right 4'
p8270
tp8271
a(S'right'
p8272
S'Right 1'
p8273
tp8274
a(S', down'
p8275
S'Down 1'
p8276
tp8277
a(S', south'
p8278
S'Down 1'
p8279
tp8280
a(S'east'
p8281
S'Right 1'
p8282
tp8283
a(S'i want you to go down'
p8284
S'Down 1'
p8285
tp8286
a(S'go down'
p8287
S'Down 1'
p8288
tp8289
a(S'north'
p8290
S'Up 1'
p8291
tp8292
a(S'go right'
p8293
S'Right 1'
p8294
tp8295
a(S'right four steps'
p8296
S'Right 1'
p8297
tp8298
a(S'take five steps south'
p8299
S'Down 5'
p8300
tp8301
a(S'go south'
p8302
S'Down 1'
p8303
tp8304
a(S'down'
p8305
S'Down 1'
p8306
tp8307
a(S'move north one units'
p8308
S'Up 1'
p8309
tp8310
a(S'go south'
p8311
S'Down 1'
p8312
tp8313
a(S'go down'
p8314
S'Down 1'
p8315
tp8316
a(S'down one space'
p8317
S'Down 1'
p8318
tp8319
a(S'go down one space'
p8320
S'Down 1'
p8321
tp8322
a(S'then up once ;'
p8323
S'Up 1'
p8324
tp8325
a(S'go south for one space'
p8326
S'Down 1'
p8327
tp8328
a(S'go south'
p8329
S'Down 1'
p8330
tp8331
a(S'south'
p8332
S'Down 1'
p8333
tp8334
a(S'and move left'
p8335
S'Left 1'
p8336
tp8337
a(S'down'
p8338
S'Down 1'
p8339
tp8340
a(S'left'
p8341
S'Left 1'
p8342
tp8343
a(S', four steps east'
p8344
S'Right 4'
p8345
tp8346
a(S'and up two spaces'
p8347
S'Up 2'
p8348
tp8349
a(S'go down three steps'
p8350
S'Down 3'
p8351
tp8352
a(S'down'
p8353
S'Down 1'
p8354
tp8355
a(S'go down'
p8356
S'Down 1'
p8357
tp8358
a(S'go north'
p8359
S'Up 1'
p8360
tp8361
a(S'right'
p8362
S'Right 1'
p8363
tp8364
a(S'then north'
p8365
S'Up 1'
p8366
tp8367
a(S'go south'
p8368
S'Down 1'
p8369
tp8370
a(S'up'
p8371
S'Up 1'
p8372
tp8373
a(S'go up'
p8374
S'Up 1'
p8375
tp8376
a(S'right one'
p8377
S'Right 1'
p8378
tp8379
a(S', go down'
p8380
S'Down 1'
p8381
tp8382
a(S'left five'
p8383
S'Left 5'
p8384
tp8385
a(S', go down'
p8386
S'Down 1'
p8387
tp8388
a(S'turn left , walk a step , then face the wall'
p8389
S'Left 1'
p8390
tp8391
a(S'down'
p8392
S'Down 1'
p8393
tp8394
a(S'go north'
p8395
S'Up 1'
p8396
tp8397
a(S'then up three steps'
p8398
S'Up 3'
p8399
tp8400
a(S'five steps west'
p8401
S'Left 5'
p8402
tp8403
a(S', right'
p8404
S'Right 1'
p8405
tp8406
a(S'right four'
p8407
S'Right 4'
p8408
tp8409
a(S'up'
p8410
S'Up 1'
p8411
tp8412
a(S'go down three units of distance'
p8413
S'Down 3'
p8414
tp8415
a(S'three steps down through blue door'
p8416
S'Down 3'
p8417
tp8418
a(S'go down'
p8419
S'Down 1'
p8420
tp8421
a(S'three steps north'
p8422
S'Up 3'
p8423
tp8424
a(S'then right'
p8425
S'Right 1'
p8426
tp8427
a(S'move north one step'
p8428
S'Up 1'
p8429
tp8430
a(S'down'
p8431
S'Down 1'
p8432
tp8433
a(S', right'
p8434
S'Right 1'
p8435
tp8436
a(S'left'
p8437
S'Left 1'
p8438
tp8439
a(S'go down'
p8440
S'Down 1'
p8441
tp8442
a(S'move south'
p8443
S'Down 1'
p8444
tp8445
a(S'turn right go straight'
p8446
S'Right 1'
p8447
tp8448
a(S'then up again'
p8449
S'Up 1'
p8450
tp8451
a(S'up one'
p8452
S'Up 1'
p8453
tp8454
a(S'go up'
p8455
S'Up 1'
p8456
tp8457
a(S'and north two spaces'
p8458
S'Up 2'
p8459
tp8460
a(S'left'
p8461
S'Left 1'
p8462
tp8463
a(S'move up one space'
p8464
S'Up 1'
p8465
tp8466
a(S'left'
p8467
S'Left 1'
p8468
tp8469
a(S'then go up twice'
p8470
S'Up 2'
p8471
tp8472
a(S'go east one motion'
p8473
S'Right 1'
p8474
tp8475
a(S'and four times to the right'
p8476
S'Right 4'
p8477
tp8478
a(S'up'
p8479
S'Up 1'
p8480
tp8481
a(S'down'
p8482
S'Down 1'
p8483
tp8484
a(S'move down five spaces'
p8485
S'Down 5'
p8486
tp8487
a(S'go left'
p8488
S'Left 1'
p8489
tp8490
a(S'then move north one step'
p8491
S'Up 1'
p8492
tp8493
a(S'then right four times'
p8494
S'Right 4'
p8495
tp8496
a(S', go up'
p8497
S'Up 1'
p8498
tp8499
a(S'then right'
p8500
S'Right 1'
p8501
tp8502
a(S'move north one space'
p8503
S'Up 1'
p8504
tp8505
a(S'up'
p8506
S'Up 1'
p8507
tp8508
a(S'right'
p8509
S'Right 1'
p8510
tp8511
a(S'left'
p8512
S'Left 1'
p8513
tp8514
a(S'then right'
p8515
S'Right 1'
p8516
tp8517
a(S'go down'
p8518
S'Down 1'
p8519
tp8520
a(S'go down'
p8521
S'Down 3'
p8522
tp8523
a(S'east one step'
p8524
S'Right 1'
p8525
tp8526
a(S'go south'
p8527
S'Down 1'
p8528
tp8529
a(S'go south for three spaces'
p8530
S'Down 3'
p8531
tp8532
a(S'left'
p8533
S'Left 1'
p8534
tp8535
a(S'and up and'
p8536
S'Up 1'
p8537
tp8538
a(S'then go left four steps'
p8539
S'Left 4'
p8540
tp8541
a(S'right'
p8542
S'Right 1'
p8543
tp8544
a(S'go west'
p8545
S'Left 1'
p8546
tp8547
a(S'go west one move'
p8548
S'Left 1'
p8549
tp8550
a(S'move south one step'
p8551
S'Down 1'
p8552
tp8553
a(S'go up'
p8554
S'Up 1'
p8555
tp8556
a(S'up one space'
p8557
S'Up 1'
p8558
tp8559
a(S'go up'
p8560
S'Up 1'
p8561
tp8562
a(S'east one step'
p8563
S'Right 1'
p8564
tp8565
a(S'east'
p8566
S'Right 1'
p8567
tp8568
a(S'up'
p8569
S'Up 1'
p8570
tp8571
a(S'north three steps'
p8572
S'Up 3'
p8573
tp8574
a(S'move south one time'
p8575
S'Down 1'
p8576
tp8577
a(S'up'
p8578
S'Up 1'
p8579
tp8580
a(S'up'
p8581
S'Up 1'
p8582
tp8583
a(S'and go west'
p8584
S'Left 1'
p8585
tp8586
a(S'go south'
p8587
S'Down 1'
p8588
tp8589
a(S'right'
p8590
S'Right 1'
p8591
tp8592
a(S'down'
p8593
S'Down 1'
p8594
tp8595
a(S'and then north'
p8596
S'Up 1'
p8597
tp8598
a(S'east'
p8599
S'Right 1'
p8600
tp8601
a(S'east'
p8602
S'Right 1'
p8603
tp8604
a(S'one right'
p8605
S'Right 1'
p8606
tp8607
a(S'down'
p8608
S'Down 1'
p8609
tp8610
a(S'five steps left'
p8611
S'Left 5'
p8612
tp8613
a(S', go down'
p8614
S'Down 1'
p8615
tp8616
a(S'go up three times'
p8617
S'Up 3'
p8618
tp8619
a(S'go down three times'
p8620
S'Down 3'
p8621
tp8622
a(S'up'
p8623
S'Up 1'
p8624
tp8625
a(S'and take four steps to the right'
p8626
S'Right 4'
p8627
tp8628
a(S'go north'
p8629
S'Up 1'
p8630
tp8631
a(S'go north'
p8632
S'Up 1'
p8633
tp8634
a(S'move north one step'
p8635
S'Up 1'
p8636
tp8637
a(S'right'
p8638
S'Right 1'
p8639
tp8640
a(S'go north'
p8641
S'Up 1'
p8642
tp8643
a(S'west'
p8644
S'Left 1'
p8645
tp8646
a(S'move north three units'
p8647
S'Up 3'
p8648
tp8649
a(S'south'
p8650
S'Down 1'
p8651
tp8652
a(S', go right'
p8653
S'Right 1'
p8654
tp8655
a(S'move down one spaces'
p8656
S'Down 1'
p8657
tp8658
a(S'then move west four times'
p8659
S'Left 4'
p8660
tp8661
a(S'go south for one step'
p8662
S'Down 1'
p8663
tp8664
a(S'four steps to the right'
p8665
S'Right 4'
p8666
tp8667
a.